Archive member included to satisfy reference by file (symbol)

arch/arm/lib/lib.a(lib1funcs.o)
                              arch/arm/mach-omap2/built-in.o (__aeabi_uidiv)
arch/arm/lib/lib.a(uldivmod.o)
                              drivers/built-in.o (__aeabi_uldivmod)
arch/arm/lib/lib.a(div0.o)    arch/arm/lib/lib.a(lib1funcs.o) (__div0)

Discarded input sections

 .data          0x0000000000000000        0x0 arch/arm/cpu/armv7/start.o
 .bss           0x0000000000000000        0x0 arch/arm/cpu/armv7/start.o
 .text          0x0000000000000000        0x0 board/ti/am335x/built-in.o
 .text.do_board_detect
                0x0000000000000000       0x20 board/ti/am335x/built-in.o
 .text.board_fit_config_name_match
                0x0000000000000000      0x10c board/ti/am335x/built-in.o
 .rodata.do_board_detect.str1.1
                0x0000000000000000       0x1b board/ti/am335x/built-in.o
 .rodata.board_fit_config_name_match.str1.1
                0x0000000000000000       0x79 board/ti/am335x/built-in.o
 .data          0x0000000000000000        0x0 board/ti/am335x/built-in.o
 .bss           0x0000000000000000        0x0 board/ti/am335x/built-in.o
 .text.mmu_page_table_flush
                0x0000000000000000       0x1e arch/arm/cpu/armv7/built-in.o
 .text.v7_arch_cp15_set_l2aux_ctrl
                0x0000000000000000        0x6 arch/arm/cpu/armv7/built-in.o
 .text.wait_on_value
                0x0000000000000000       0x1e arch/arm/cpu/armv7/built-in.o
 .data          0x0000000000000000        0x0 arch/arm/cpu/armv7/built-in.o
 .bss           0x0000000000000000        0x0 arch/arm/cpu/armv7/built-in.o
 .text.armv7_boot_nonsec_default
                0x0000000000000000        0x4 arch/arm/lib/built-in.o
 .text.enable_caches
                0x0000000000000000        0xc arch/arm/lib/built-in.o
 .text.invalidate_dcache_range
                0x0000000000000000        0x2 arch/arm/lib/built-in.o
 .text.flush_dcache_range
                0x0000000000000000        0x2 arch/arm/lib/built-in.o
 .text.flush_dcache_all
                0x0000000000000000        0xa arch/arm/lib/built-in.o
 .text.invalidate_l2_cache
                0x0000000000000000        0xc arch/arm/lib/built-in.o
 .text.arm_init_before_mmu
                0x0000000000000000        0x2 arch/arm/lib/built-in.o
 .text.arm_init_domains
                0x0000000000000000        0x2 arch/arm/lib/built-in.o
 .text.mmu_page_table_flush
                0x0000000000000000        0x2 arch/arm/lib/built-in.o
 .text.mmu_set_region_dcache_behaviour_phys
                0x0000000000000000       0x52 arch/arm/lib/built-in.o
 .text.mmu_set_region_dcache_behaviour
                0x0000000000000000        0xa arch/arm/lib/built-in.o
 .text.dram_bank_mmu_setup
                0x0000000000000000       0x30 arch/arm/lib/built-in.o
 .text.fdt_psci
                0x0000000000000000        0x4 arch/arm/lib/built-in.o
 .rodata.enable_caches.str1.1
                0x0000000000000000       0x1d arch/arm/lib/built-in.o
 .data          0x0000000000000000        0x0 arch/arm/lib/built-in.o
 .__secure_end  0x0000000000000000        0x0 arch/arm/lib/built-in.o
 .__secure_stack_end
                0x0000000000000000        0x0 arch/arm/lib/built-in.o
 .__secure_stack_start
                0x0000000000000000        0x0 arch/arm/lib/built-in.o
 .__secure_start
                0x0000000000000000        0x0 arch/arm/lib/built-in.o
 .bss           0x0000000000000000        0x0 arch/arm/lib/built-in.o
 .text.get_dpll_mpu_params
                0x0000000000000000        0x8 arch/arm/mach-omap2/built-in.o
 .text.get_dpll_core_params
                0x0000000000000000       0x14 arch/arm/mach-omap2/built-in.o
 .text.get_dpll_per_params
                0x0000000000000000       0x14 arch/arm/mach-omap2/built-in.o
 .text.setup_clocks_for_console
                0x0000000000000000       0x7c arch/arm/mach-omap2/built-in.o
 .text.enable_basic_clocks
                0x0000000000000000       0x44 arch/arm/mach-omap2/built-in.o
 .text.set_mpu_spreadspectrum
                0x0000000000000000       0xc4 arch/arm/mach-omap2/built-in.o
 .text.do_setup_dpll
                0x0000000000000000       0xe0 arch/arm/mach-omap2/built-in.o
 .text.do_enable_clocks
                0x0000000000000000       0x64 arch/arm/mach-omap2/built-in.o
 .text.do_disable_clocks
                0x0000000000000000       0x6c arch/arm/mach-omap2/built-in.o
 .text.scale_vcores
                0x0000000000000000        0x2 arch/arm/mach-omap2/built-in.o
 .text.setup_early_clocks
                0x0000000000000000       0x12 arch/arm/mach-omap2/built-in.o
 .text.prcm_init
                0x0000000000000000       0x5c arch/arm/mach-omap2/built-in.o
 .text.rtc_only_prcm_init
                0x0000000000000000       0x1c arch/arm/mach-omap2/built-in.o
 .text.get_sysboot_value
                0x0000000000000000       0x14 arch/arm/mach-omap2/built-in.o
 .text.get_sys_clk_index
                0x0000000000000000       0x14 arch/arm/mach-omap2/built-in.o
 .text.am335x_get_efuse_mpu_max_freq
                0x0000000000000000       0x8c arch/arm/mach-omap2/built-in.o
 .text.am335x_get_tps65910_mpu_vdd
                0x0000000000000000       0x3c arch/arm/mach-omap2/built-in.o
 .text.am335x_get_mpu_vdd
                0x0000000000000000       0x20 arch/arm/mach-omap2/built-in.o
 .text.configure_mr
                0x0000000000000000       0x88 arch/arm/mach-omap2/built-in.o
 .text.config_sdram_emif4d5
                0x0000000000000000      0x164 arch/arm/mach-omap2/built-in.o
 .text.config_sdram
                0x0000000000000000       0x80 arch/arm/mach-omap2/built-in.o
 .text.set_sdram_timings
                0x0000000000000000       0x3c arch/arm/mach-omap2/built-in.o
 .text.config_ddr_phy
                0x0000000000000000      0x1b8 arch/arm/mach-omap2/built-in.o
 .text.config_cmd_ctrl
                0x0000000000000000       0x44 arch/arm/mach-omap2/built-in.o
 .text.config_ddr_data
                0x0000000000000000       0x4c arch/arm/mach-omap2/built-in.o
 .text.config_io_ctrl
                0x0000000000000000       0x34 arch/arm/mach-omap2/built-in.o
 .text.cpu_mmc_init
                0x0000000000000000       0x28 arch/arm/mach-omap2/built-in.o
 .text.configure_module_pin_mux
                0x0000000000000000       0x20 arch/arm/mach-omap2/built-in.o
 .text.set_uart_mux_conf
                0x0000000000000000        0x2 arch/arm/mach-omap2/built-in.o
 .text.set_mux_conf_regs
                0x0000000000000000        0x2 arch/arm/mach-omap2/built-in.o
 .text.ft_cpu_setup
                0x0000000000000000        0x2 arch/arm/mach-omap2/built-in.o
 .text.warm_reset
                0x0000000000000000       0x1c arch/arm/mach-omap2/built-in.o
 .text.setup_warmreset_time
                0x0000000000000000        0x2 arch/arm/mach-omap2/built-in.o
 .text.do_cancel_out
                0x0000000000000000       0x44 arch/arm/mach-omap2/built-in.o
 .text.omap_set_fastboot_vars
                0x0000000000000000      0x15c arch/arm/mach-omap2/built-in.o
 .text.cancel_out
                0x0000000000000000       0x62 arch/arm/mach-omap2/built-in.o
 .text.omap_die_id
                0x0000000000000000        0xc arch/arm/mach-omap2/built-in.o
 .text.omap_die_id_serial
                0x0000000000000000       0x50 arch/arm/mach-omap2/built-in.o
 .text.omap_die_id_get_board_serial
                0x0000000000000000       0x24 arch/arm/mach-omap2/built-in.o
 .text.omap_die_id_usbethaddr
                0x0000000000000000       0x68 arch/arm/mach-omap2/built-in.o
 .text.omap_die_id_display
                0x0000000000000000       0x2c arch/arm/mach-omap2/built-in.o
 .text.omap_sys_boot_device
                0x0000000000000000        0x4 arch/arm/mach-omap2/built-in.o
 .text.save_omap_boot_params
                0x0000000000000000       0x5c arch/arm/mach-omap2/built-in.o
 .rodata.set_mpu_spreadspectrum.str1.1
                0x0000000000000000       0x31 arch/arm/mach-omap2/built-in.o
 .rodata.cmdpll
                0x0000000000000000        0x4 arch/arm/mach-omap2/built-in.o
 .rodata.cmper  0x0000000000000000        0x4 arch/arm/mach-omap2/built-in.o
 .rodata.cmrtc  0x0000000000000000        0x4 arch/arm/mach-omap2/built-in.o
 .rodata.cmwkup
                0x0000000000000000        0x4 arch/arm/mach-omap2/built-in.o
 .rodata.dpll_core_1000MHz
                0x0000000000000000       0x40 arch/arm/mach-omap2/built-in.o
 .rodata.dpll_core_opp100
                0x0000000000000000       0x10 arch/arm/mach-omap2/built-in.o
 .rodata.dpll_core_regs
                0x0000000000000000       0x24 arch/arm/mach-omap2/built-in.o
 .rodata.dpll_ddr2_266MHz
                0x0000000000000000       0x40 arch/arm/mach-omap2/built-in.o
 .rodata.dpll_ddr3_303MHz
                0x0000000000000000       0x40 arch/arm/mach-omap2/built-in.o
 .rodata.dpll_ddr3_400MHz
                0x0000000000000000       0x40 arch/arm/mach-omap2/built-in.o
 .rodata.dpll_ddr_regs
                0x0000000000000000       0x24 arch/arm/mach-omap2/built-in.o
 .rodata.dpll_disp_regs
                0x0000000000000000       0x24 arch/arm/mach-omap2/built-in.o
 .rodata.dpll_mpu_opp
                0x0000000000000000      0x180 arch/arm/mach-omap2/built-in.o
 .rodata.dpll_mpu_regs
                0x0000000000000000       0x24 arch/arm/mach-omap2/built-in.o
 .rodata.dpll_per_192MHz
                0x0000000000000000       0x40 arch/arm/mach-omap2/built-in.o
 .rodata.dpll_per_regs
                0x0000000000000000       0x24 arch/arm/mach-omap2/built-in.o
 .rodata.do_setup_dpll.str1.1
                0x0000000000000000       0x3a arch/arm/mach-omap2/built-in.o
 .rodata.do_enable_clocks.str1.1
                0x0000000000000000       0x2a arch/arm/mach-omap2/built-in.o
 .rodata.do_disable_clocks.str1.1
                0x0000000000000000       0x2b arch/arm/mach-omap2/built-in.o
 .rodata.CSWTCH.9
                0x0000000000000000       0x4c arch/arm/mach-omap2/built-in.o
 .rodata.config_sdram_emif4d5.str1.1
                0x0000000000000000       0x2a arch/arm/mach-omap2/built-in.o
 .rodata.ddr_cmd_reg
                0x0000000000000000        0x8 arch/arm/mach-omap2/built-in.o
 .rodata.ddr_data_reg
                0x0000000000000000        0x8 arch/arm/mach-omap2/built-in.o
 .rodata.emif_reg
                0x0000000000000000        0x8 arch/arm/mach-omap2/built-in.o
 .rodata.omap_set_fastboot_vars.str1.1
                0x0000000000000000      0x14c arch/arm/mach-omap2/built-in.o
 .rodata.omap_die_id_serial.str1.1
                0x0000000000000000       0x11 arch/arm/mach-omap2/built-in.o
 .rodata.omap_die_id_usbethaddr.str1.1
                0x0000000000000000       0x13 arch/arm/mach-omap2/built-in.o
 .rodata.omap_die_id_display.str1.1
                0x0000000000000000       0x1f arch/arm/mach-omap2/built-in.o
 .rodata.CSWTCH.5
                0x0000000000000000        0xc arch/arm/mach-omap2/built-in.o
 .data          0x0000000000000000        0x0 arch/arm/mach-omap2/built-in.o
 .data.dpll_mpu_opp100
                0x0000000000000000       0x10 arch/arm/mach-omap2/built-in.o
 .data.cstat    0x0000000000000000        0x4 arch/arm/mach-omap2/built-in.o
 .bss           0x0000000000000000        0x0 arch/arm/mach-omap2/built-in.o
 .text          0x0000000000000000        0x0 board/ti/common/built-in.o
 .text.ti_eeprom_string_cleanup
                0x0000000000000000       0x22 board/ti/common/built-in.o
 .text.ti_i2c_eeprom_get
                0x0000000000000000       0x7c board/ti/common/built-in.o
 .text.ti_i2c_eeprom_am6_get.part.0
                0x0000000000000000      0x120 board/ti/common/built-in.o
 .text.gpi2c_init
                0x0000000000000000        0x2 board/ti/common/built-in.o
 .text.ti_emmc_boardid_get
                0x0000000000000000       0xec board/ti/common/built-in.o
 .text.ti_i2c_eeprom_am_set
                0x0000000000000000       0x60 board/ti/common/built-in.o
 .text.ti_i2c_eeprom_am_get
                0x0000000000000000       0xcc board/ti/common/built-in.o
 .text.ti_i2c_eeprom_dra7_get
                0x0000000000000000       0xac board/ti/common/built-in.o
 .text.ti_i2c_eeprom_am6_get
                0x0000000000000000       0x5c board/ti/common/built-in.o
 .text.ti_i2c_eeprom_am6_get_base
                0x0000000000000000       0x38 board/ti/common/built-in.o
 .text.board_ti_k3_is
                0x0000000000000000       0x30 board/ti/common/built-in.o
 .text.board_ti_rev_is
                0x0000000000000000       0x34 board/ti/common/built-in.o
 .text.board_ti_get_config
                0x0000000000000000        0x8 board/ti/common/built-in.o
 .text.board_ti_get_name
                0x0000000000000000        0x8 board/ti/common/built-in.o
 .text.board_ti_get_eth_mac_addr
                0x0000000000000000       0x34 board/ti/common/built-in.o
 .text.board_ti_am6_get_eth_mac_addr
                0x0000000000000000       0x3c board/ti/common/built-in.o
 .text.board_ti_get_emif1_size
                0x0000000000000000       0x20 board/ti/common/built-in.o
 .text.board_ti_get_emif2_size
                0x0000000000000000       0x20 board/ti/common/built-in.o
 .text.set_board_info_env_am6
                0x0000000000000000       0x80 board/ti/common/built-in.o
 .text.board_ti_set_ethaddr
                0x0000000000000000      0x120 board/ti/common/built-in.o
 .text.board_ti_am6_set_ethaddr
                0x0000000000000000       0x54 board/ti/common/built-in.o
 .text.board_ti_was_eeprom_read
                0x0000000000000000       0x18 board/ti/common/built-in.o
 .rodata.ti_i2c_eeprom_am_set.str1.1
                0x0000000000000000        0x5 board/ti/common/built-in.o
 .rodata.ti_i2c_eeprom_am_get.str1.1
                0x0000000000000000        0x5 board/ti/common/built-in.o
 .rodata.ti_i2c_eeprom_dra7_get.str1.1
                0x0000000000000000        0x6 board/ti/common/built-in.o
 .rodata.set_board_info_env_am6.str1.1
                0x0000000000000000       0x18 board/ti/common/built-in.o
 .rodata.board_ti_set_ethaddr.str1.1
                0x0000000000000000       0x34 board/ti/common/built-in.o
 .rodata.__func__.9220
                0x0000000000000000       0x15 board/ti/common/built-in.o
 .data          0x0000000000000000        0x0 board/ti/common/built-in.o
 .bss           0x0000000000000000        0x0 board/ti/common/built-in.o
 .text          0x0000000000000000        0x0 cmd/built-in.o
 .text.bdinfo_print_mhz
                0x0000000000000000       0x20 cmd/built-in.o
 .text.arch_print_bdinfo
                0x0000000000000000        0x2 cmd/built-in.o
 .text.bootz_setup
                0x0000000000000000       0x14 cmd/built-in.o
 .text.eeprom_init
                0x0000000000000000        0xc cmd/built-in.o
 .text.name_to_gpio
                0x0000000000000000        0x8 cmd/built-in.o
 .text.i2c_init_board
                0x0000000000000000        0x2 cmd/built-in.o
 .rodata.bdinfo_print_mhz.str1.1
                0x0000000000000000       0x10 cmd/built-in.o
 .rodata.bootz_setup.str1.1
                0x0000000000000000       0x34 cmd/built-in.o
 .data          0x0000000000000000        0x0 cmd/built-in.o
 .bss           0x0000000000000000        0x0 cmd/built-in.o
 .text          0x0000000000000000        0x0 common/built-in.o
 .text.board_init_f_init_stack_protection_addr
                0x0000000000000000        0x2 common/built-in.o
 .text.board_init_f_init_stack_protection
                0x0000000000000000        0x2 common/built-in.o
 .text.hash_progressive_lookup_algo
                0x0000000000000000       0x3c common/built-in.o
 .text.hash_parse_string
                0x0000000000000000       0x3c common/built-in.o
 .text.hash_block
                0x0000000000000000       0x4a common/built-in.o
 .text.unset_local_var
                0x0000000000000000       0x5c common/built-in.o
 .text.dram_init_banksize
                0x0000000000000000       0x1a common/built-in.o
 .text.arch_reserve_mmu
                0x0000000000000000        0x4 common/built-in.o
 .text.arch_cpu_init_dm
                0x0000000000000000        0x4 common/built-in.o
 .text.red_led_off
                0x0000000000000000        0x2 common/built-in.o
 .text.green_led_on
                0x0000000000000000        0x2 common/built-in.o
 .text.green_led_off
                0x0000000000000000        0x2 common/built-in.o
 .text.yellow_led_on
                0x0000000000000000        0x2 common/built-in.o
 .text.yellow_led_off
                0x0000000000000000        0x2 common/built-in.o
 .text.blue_led_on
                0x0000000000000000        0x2 common/built-in.o
 .text.blue_led_off
                0x0000000000000000        0x2 common/built-in.o
 .text.arch_reserve_stacks
                0x0000000000000000        0x4 common/built-in.o
 .text.mux_control_states
                0x0000000000000000        0x6 common/built-in.o
 .text.mux_control_select
                0x0000000000000000        0x6 common/built-in.o
 .text.mux_control_deselect
                0x0000000000000000        0x6 common/built-in.o
 .text.mux_control_get
                0x0000000000000000        0x4 common/built-in.o
 .text.mux_control_put
                0x0000000000000000        0x2 common/built-in.o
 .text.devm_mux_control_get
                0x0000000000000000        0x4 common/built-in.o
 .text.dm_mux_init
                0x0000000000000000        0x6 common/built-in.o
 .text.board_flash_wp_on
                0x0000000000000000        0x4 common/built-in.o
 .text.fixup_cpu
                0x0000000000000000        0x4 common/built-in.o
 .text.board_quiesce_devices
                0x0000000000000000        0x2 common/built-in.o
 .text.fdt_read_prop
                0x0000000000000000       0x3c common/built-in.o
 .text.fdt_getprop_u32_default_node
                0x0000000000000000       0x24 common/built-in.o
 .text.fdt_getprop_u32_default
                0x0000000000000000       0x24 common/built-in.o
 .text.do_fixup_by_path_u32
                0x0000000000000000       0x1a common/built-in.o
 .text.do_fixup_by_prop
                0x0000000000000000       0x64 common/built-in.o
 .text.do_fixup_by_prop_u32
                0x0000000000000000       0x22 common/built-in.o
 .text.do_fixup_by_compat
                0x0000000000000000       0x50 common/built-in.o
 .text.do_fixup_by_compat_u32
                0x0000000000000000       0x1a common/built-in.o
 .text.fdt_set_usable_memory
                0x0000000000000000       0x9c common/built-in.o
 .text.fdt_record_loadable
                0x0000000000000000       0xf4 common/built-in.o
 .text.fdt_increase_size
                0x0000000000000000       0x10 common/built-in.o
 .text.fdt_del_node_and_alias
                0x0000000000000000       0x30 common/built-in.o
 .text.fdt_translate_dma_address
                0x0000000000000000        0xc common/built-in.o
 .text.fdt_node_offset_by_compat_reg
                0x0000000000000000       0x5c common/built-in.o
 .text.fdt_alloc_phandle
                0x0000000000000000       0x36 common/built-in.o
 .text.fdt_set_phandle
                0x0000000000000000       0x38 common/built-in.o
 .text.fdt_create_phandle
                0x0000000000000000       0x40 common/built-in.o
 .text.fdt_set_node_status
                0x0000000000000000       0x90 common/built-in.o
 .text.fdt_set_status_by_alias
                0x0000000000000000       0x1c common/built-in.o
 .text.fdt_verify_alias_address
                0x0000000000000000       0x8c common/built-in.o
 .text.fdt_get_base_address
                0x0000000000000000       0x2c common/built-in.o
 .text.fdt_read_range
                0x0000000000000000       0xc8 common/built-in.o
 .text.fdt_setup_simplefb_node
                0x0000000000000000      0x158 common/built-in.o
 .text.fdt_fixup_display
                0x0000000000000000       0x84 common/built-in.o
 .text.mdio_register_seq
                0x0000000000000000       0x24 common/built-in.o
 .text.mdio_unregister
                0x0000000000000000       0x24 common/built-in.o
 .text.mdio_get_list_head
                0x0000000000000000        0x8 common/built-in.o
 .text.usb_set_protocol
                0x0000000000000000       0x2e common/built-in.o
 .text.usb_set_idle
                0x0000000000000000       0x32 common/built-in.o
 .text.usb_get_report
                0x0000000000000000       0x3a common/built-in.o
 .text.usb_get_class_descriptor
                0x0000000000000000       0x3a common/built-in.o
 .text.board_usb_init
                0x0000000000000000        0x4 common/built-in.o
 .text.board_usb_cleanup
                0x0000000000000000        0x4 common/built-in.o
 .text.usb_hub_probe
                0x0000000000000000       0x3a common/built-in.o
 .text.splash_screen_prepare
                0x0000000000000000        0x6 common/built-in.o
 .text.menu_default_choice
                0x0000000000000000       0x12 common/built-in.o
 .text.cli_simple_parse_line
                0x0000000000000000       0x50 common/built-in.o
 .text.cli_simple_run_command
                0x0000000000000000       0xd0 common/built-in.o
 .text.cli_simple_loop
                0x0000000000000000       0x58 common/built-in.o
 .text.cli_simple_run_command_list
                0x0000000000000000       0x3a common/built-in.o
 .text.console_puts_select
                0x0000000000000000       0x4c common/built-in.o
 .text.serial_printf
                0x0000000000000000       0x32 common/built-in.o
 .text.fgetc    0x0000000000000000        0xe common/built-in.o
 .text.fputc    0x0000000000000000       0x14 common/built-in.o
 .text.fprintf  0x0000000000000000       0x36 common/built-in.o
 .text.console_announce_r
                0x0000000000000000       0x20 common/built-in.o
 .text.stdio_print_current_devices
                0x0000000000000000       0x78 common/built-in.o
 .text.valloc   0x0000000000000000        0xa common/built-in.o
 .text.pvalloc  0x0000000000000000       0x14 common/built-in.o
 .text.cfree    0x0000000000000000        0x4 common/built-in.o
 .text.malloc_usable_size
                0x0000000000000000       0x2a common/built-in.o
 .text.mallopt  0x0000000000000000       0x30 common/built-in.o
 .text.malloc_simple_info
                0x0000000000000000       0x18 common/built-in.o
 .text.image_decomp_type
                0x0000000000000000       0x30 common/built-in.o
 .text.genimg_get_short_name
                0x0000000000000000       0x14 common/built-in.o
 .text.genimg_get_cat_name
                0x0000000000000000       0x38 common/built-in.o
 .text.genimg_get_cat_short_name
                0x0000000000000000       0x38 common/built-in.o
 .text.genimg_get_cat_count
                0x0000000000000000       0x10 common/built-in.o
 .text.genimg_get_cat_desc
                0x0000000000000000       0x10 common/built-in.o
 .text.genimg_cat_has_id
                0x0000000000000000       0x1c common/built-in.o
 .text.genimg_get_type_short_name
                0x0000000000000000        0xc common/built-in.o
 .text.genimg_get_comp_short_name
                0x0000000000000000        0xc common/built-in.o
 .text.genimg_get_os_short_name
                0x0000000000000000        0xc common/built-in.o
 .text.genimg_get_arch_short_name
                0x0000000000000000        0xc common/built-in.o
 .text.android_image_get_dtbo
                0x0000000000000000      0x108 common/built-in.o
 .text.android_image_print_dtb_contents
                0x0000000000000000      0x124 common/built-in.o
 .text.android_dt_print_contents
                0x0000000000000000      0x164 common/built-in.o
 .text.arch_fixup_fdt
                0x0000000000000000        0x4 common/built-in.o
 .text.fit_get_subimage_count
                0x0000000000000000       0x2c common/built-in.o
 .text.fit_image_get_data_size_unciphered
                0x0000000000000000       0x24 common/built-in.o
 .text.fit_image_cipher_get_algo
                0x0000000000000000        0x4 common/built-in.o
 .text.fit_set_timestamp
                0x0000000000000000       0x2c common/built-in.o
 .text.fit_image_check_arch
                0x0000000000000000       0x2c common/built-in.o
 .text.fit_conf_find_compat
                0x0000000000000000      0x11c common/built-in.o
 .text.fit_conf_get_prop_node_count
                0x0000000000000000        0x4 common/built-in.o
 .text.stdio_deregister_dev
                0x0000000000000000       0xa8 common/built-in.o
 .text.stdio_deregister
                0x0000000000000000       0x1a common/built-in.o
 .text.stdio_init
                0x0000000000000000        0xe common/built-in.o
 .text.run_command_repeatable
                0x0000000000000000       0x12 common/built-in.o
 .text.cmd_discard_repeatable
                0x0000000000000000        0xe common/built-in.o
 .rodata.fdt_set_usable_memory.str1.1
                0x0000000000000000       0x41 common/built-in.o
 .rodata.fdt_record_loadable.str1.1
                0x0000000000000000       0x23 common/built-in.o
 .rodata.fdt_translate_dma_address.str1.1
                0x0000000000000000        0xb common/built-in.o
 .rodata.fdt_set_phandle.str1.1
                0x0000000000000000       0x16 common/built-in.o
 .rodata.fdt_create_phandle.str1.1
                0x0000000000000000       0x1a common/built-in.o
 .rodata.fdt_set_node_status.str1.1
                0x0000000000000000       0x3a common/built-in.o
 .rodata.fdt_verify_alias_address.str1.1
                0x0000000000000000       0xcc common/built-in.o
 .rodata.fdt_read_range.str1.1
                0x0000000000000000        0xf common/built-in.o
 .rodata.fdt_setup_simplefb_node.str1.1
                0x0000000000000000       0x2c common/built-in.o
 .rodata.fdt_fixup_display.str1.1
                0x0000000000000000       0x1c common/built-in.o
 .rodata.__func__.7479
                0x0000000000000000       0x16 common/built-in.o
 .rodata.__func__.7519
                0x0000000000000000       0x14 common/built-in.o
 .rodata.mdio_register_seq.str1.1
                0x0000000000000000        0x6 common/built-in.o
 .rodata.cli_simple_parse_line.str1.1
                0x0000000000000000       0x1f common/built-in.o
 .rodata.cli_simple_run_command.str1.1
                0x0000000000000000       0x16 common/built-in.o
 .rodata.cli_simple_loop.str1.1
                0x0000000000000000       0x11 common/built-in.o
 .rodata.console_puts_select.str1.1
                0x0000000000000000        0x7 common/built-in.o
 .rodata.stdio_print_current_devices.str1.1
                0x0000000000000000       0x74 common/built-in.o
 .rodata.malloc_simple_info.str1.1
                0x0000000000000000       0x2b common/built-in.o
 .rodata.genimg_get_short_name.str1.1
                0x0000000000000000        0x8 common/built-in.o
 .rodata.image_comp
                0x0000000000000000       0x3c common/built-in.o
 .rodata.table_info
                0x0000000000000000       0x30 common/built-in.o
 .rodata.unknown_str.9557
                0x0000000000000000        0x9 common/built-in.o
 .rodata.android_image_get_dtbo.str1.1
                0x0000000000000000       0x50 common/built-in.o
 .rodata.android_image_print_dtb_contents.str1.1
                0x0000000000000000       0xe3 common/built-in.o
 .rodata.android_dt_print_contents.str1.1
                0x0000000000000000      0x1f8 common/built-in.o
 .rodata.fit_image_get_data_size_unciphered.str1.1
                0x0000000000000000       0x15 common/built-in.o
 .rodata.fit_conf_find_compat.str1.1
                0x0000000000000000        0xb common/built-in.o
 .rodata.stdio_deregister_dev.str1.1
                0x0000000000000000        0x8 common/built-in.o
 .data          0x0000000000000000        0x0 common/built-in.o
 .bss           0x0000000000000000        0x0 common/built-in.o
 .bss.lastcommand.6598
                0x0000000000000000      0x401 common/built-in.o
 .bss.image_save_addr
                0x0000000000000000        0x4 common/built-in.o
 .bss.image_save_size
                0x0000000000000000        0x4 common/built-in.o
 .bss.msg.9558  0x0000000000000000       0x1e common/built-in.o
 .text          0x0000000000000000        0x0 disk/built-in.o
 .text.part_get_info_by_dev_and_name_or_num
                0x0000000000000000       0x98 disk/built-in.o
 .rodata.part_get_info_by_dev_and_name_or_num.str1.1
                0x0000000000000000       0x54 disk/built-in.o
 .data          0x0000000000000000        0x0 disk/built-in.o
 .bss           0x0000000000000000        0x0 disk/built-in.o
 .text          0x0000000000000000        0x0 drivers/built-in.o
 .text.dev_get_clk_ptr
                0x0000000000000000        0x4 drivers/built-in.o
 .text.clk_get_by_name
                0x0000000000000000       0x2c drivers/built-in.o
 .text.clk_get_by_index_nodev
                0x0000000000000000       0x30 drivers/built-in.o
 .text.clk_get_by_name_nodev
                0x0000000000000000       0x28 drivers/built-in.o
 .text.clk_get_optional_nodev
                0x0000000000000000       0x10 drivers/built-in.o
 .text.clk_free
                0x0000000000000000       0x14 drivers/built-in.o
 .text.clk_get_parent
                0x0000000000000000       0x1e drivers/built-in.o
 .text.clk_get_parent_rate
                0x0000000000000000       0x54 drivers/built-in.o
 .text.clk_enable
                0x0000000000000000       0x1c drivers/built-in.o
 .text.clk_enable_bulk
                0x0000000000000000       0x28 drivers/built-in.o
 .text.clk_disable
                0x0000000000000000       0x1c drivers/built-in.o
 .text.clk_release_all
                0x0000000000000000       0x3e drivers/built-in.o
 .text.clk_get_bulk
                0x0000000000000000       0x6c drivers/built-in.o
 .text.clk_disable_bulk
                0x0000000000000000       0x28 drivers/built-in.o
 .text.clk_get_by_id
                0x0000000000000000       0x44 drivers/built-in.o
 .text.clk_is_match
                0x0000000000000000       0x30 drivers/built-in.o
 .text.devm_clk_get
                0x0000000000000000       0x2e drivers/built-in.o
 .text.devm_clk_get_optional
                0x0000000000000000       0x10 drivers/built-in.o
 .text.devm_clk_put
                0x0000000000000000        0x2 drivers/built-in.o
 .text.clk_register_fixed_rate
                0x0000000000000000       0x3c drivers/built-in.o
 .text._device_find_global_by_ofnode
                0x0000000000000000       0x2e drivers/built-in.o
 .text.device_bind
                0x0000000000000000       0x1c drivers/built-in.o
 .text.device_reparent
                0x0000000000000000       0x4e drivers/built-in.o
 .text.device_get_device_tail.part.0
                0x0000000000000000       0x10 drivers/built-in.o
 .text.device_get_child
                0x0000000000000000       0x30 drivers/built-in.o
 .text.device_get_child_count
                0x0000000000000000       0x1c drivers/built-in.o
 .text.device_find_child_by_seq
                0x0000000000000000       0x3a drivers/built-in.o
 .text.device_get_child_by_seq
                0x0000000000000000       0x2e drivers/built-in.o
 .text.device_find_child_by_of_offset
                0x0000000000000000       0x2e drivers/built-in.o
 .text.device_get_child_by_of_offset
                0x0000000000000000       0x1c drivers/built-in.o
 .text.device_find_global_by_ofnode
                0x0000000000000000       0x1e drivers/built-in.o
 .text.device_get_global_by_ofnode
                0x0000000000000000       0x22 drivers/built-in.o
 .text.device_find_first_inactive_child
                0x0000000000000000       0x3a drivers/built-in.o
 .text.device_find_first_child_by_uclass
                0x0000000000000000       0x32 drivers/built-in.o
 .text.device_find_child_by_name
                0x0000000000000000       0x32 drivers/built-in.o
 .text.device_first_child_err
                0x0000000000000000       0x20 drivers/built-in.o
 .text.device_next_child_err
                0x0000000000000000       0x22 drivers/built-in.o
 .text.device_first_child_ofdata_err
                0x0000000000000000       0x22 drivers/built-in.o
 .text.device_next_child_ofdata_err
                0x0000000000000000       0x26 drivers/built-in.o
 .text.dev_get_driver_ops
                0x0000000000000000        0x8 drivers/built-in.o
 .text.dev_get_uclass_name
                0x0000000000000000        0xa drivers/built-in.o
 .text.device_has_children
                0x0000000000000000        0xe drivers/built-in.o
 .text.device_set_name
                0x0000000000000000       0x20 drivers/built-in.o
 .text.dev_disable_by_path
                0x0000000000000000        0xc drivers/built-in.o
 .text.dev_enable_by_path
                0x0000000000000000       0x10 drivers/built-in.o
 .text.devfdt_get_addr_size_index
                0x0000000000000000       0x2c drivers/built-in.o
 .text.devfdt_get_addr_name
                0x0000000000000000       0x28 drivers/built-in.o
 .text.devfdt_get_addr_size_name
                0x0000000000000000       0x2c drivers/built-in.o
 .text.devfdt_remap_addr_index
                0x0000000000000000       0x10 drivers/built-in.o
 .text.devfdt_remap_addr_name
                0x0000000000000000       0x10 drivers/built-in.o
 .text.devfdt_remap_addr
                0x0000000000000000        0x6 drivers/built-in.o
 .text.devfdt_map_physmem
                0x0000000000000000       0x10 drivers/built-in.o
 .text.dm_fixup_for_gd_move
                0x0000000000000000       0x14 drivers/built-in.o
 .text.fix_drivers
                0x0000000000000000       0x80 drivers/built-in.o
 .text.fix_uclass
                0x0000000000000000       0x80 drivers/built-in.o
 .text.fix_devices
                0x0000000000000000       0x24 drivers/built-in.o
 .text.dm_uninit
                0x0000000000000000       0x1c drivers/built-in.o
 .text.uclass_destroy
                0x0000000000000000       0x52 drivers/built-in.o
 .text.uclass_get_name
                0x0000000000000000       0x1a drivers/built-in.o
 .text.uclass_get_by_name
                0x0000000000000000       0x2a drivers/built-in.o
 .text.uclass_find_device_by_name
                0x0000000000000000       0x46 drivers/built-in.o
 .text.uclass_find_next_free_req_seq
                0x0000000000000000       0x3c drivers/built-in.o
 .text.uclass_find_device_by_phandle
                0x0000000000000000       0x60 drivers/built-in.o
 .text.uclass_get_device_by_driver
                0x0000000000000000       0x40 drivers/built-in.o
 .text.uclass_get_device_by_name
                0x0000000000000000       0x1c drivers/built-in.o
 .text.uclass_get_device_by_phandle_id
                0x0000000000000000       0x4c drivers/built-in.o
 .text.uclass_get_device_by_phandle
                0x0000000000000000       0x1c drivers/built-in.o
 .text.uclass_next_device_err
                0x0000000000000000       0x16 drivers/built-in.o
 .text.uclass_first_device_drvdata
                0x0000000000000000       0x40 drivers/built-in.o
 .text.list_count_items
                0x0000000000000000       0x14 drivers/built-in.o
 .text.pci_get_devfn
                0x0000000000000000       0x2c drivers/built-in.o
 .text.simple_bus_translate
                0x0000000000000000       0x20 drivers/built-in.o
 .text.ofnode_read_fmap_entry
                0x0000000000000000       0x9c drivers/built-in.o
 .text.ofnode_decode_region
                0x0000000000000000       0x2c drivers/built-in.o
 .text.ofnode_decode_memory_region
                0x0000000000000000       0xa8 drivers/built-in.o
 .text.ofnode_read_u32_index_default
                0x0000000000000000       0x12 drivers/built-in.o
 .text.ofnode_read_u64
                0x0000000000000000       0x34 drivers/built-in.o
 .text.ofnode_read_u64_default
                0x0000000000000000       0x16 drivers/built-in.o
 .text.decode_timing_property
                0x0000000000000000       0x38 drivers/built-in.o
 .text.ofnode_name_eq
                0x0000000000000000       0x32 drivers/built-in.o
 .text.ofnode_get_by_phandle
                0x0000000000000000        0xe drivers/built-in.o
 .text.ofnode_stringlist_search
                0x0000000000000000       0x26 drivers/built-in.o
 .text.ofnode_read_string_index
                0x0000000000000000       0x2c drivers/built-in.o
 .text.ofnode_read_string_count
                0x0000000000000000        0xe drivers/built-in.o
 .text.ofnode_read_chosen_string
                0x0000000000000000        0x6 drivers/built-in.o
 .text.ofnode_read_aliases_prop
                0x0000000000000000       0x1c drivers/built-in.o
 .text.ofnode_get_aliases_node
                0x0000000000000000       0x18 drivers/built-in.o
 .text.ofnode_get_child_count
                0x0000000000000000       0x18 drivers/built-in.o
 .text.ofnode_decode_display_timing
                0x0000000000000000      0x1b8 drivers/built-in.o
 .text.ofnode_get_first_property
                0x0000000000000000       0x1a drivers/built-in.o
 .text.ofnode_get_next_property
                0x0000000000000000       0x16 drivers/built-in.o
 .text.ofnode_get_property_by_prop
                0x0000000000000000       0x14 drivers/built-in.o
 .text.ofnode_is_available
                0x0000000000000000       0x14 drivers/built-in.o
 .text.ofnode_get_addr_size
                0x0000000000000000       0x14 drivers/built-in.o
 .text.ofnode_read_pci_addr
                0x0000000000000000       0x68 drivers/built-in.o
 .text.ofnode_read_pci_vendev
                0x0000000000000000       0x90 drivers/built-in.o
 .text.ofnode_read_addr_cells
                0x0000000000000000       0x1a drivers/built-in.o
 .text.ofnode_read_size_cells
                0x0000000000000000       0x1a drivers/built-in.o
 .text.ofnode_read_resource
                0x0000000000000000       0x40 drivers/built-in.o
 .text.ofnode_read_resource_byname
                0x0000000000000000       0x24 drivers/built-in.o
 .text.ofnode_translate_address
                0x0000000000000000        0xe drivers/built-in.o
 .text.ofnode_translate_dma_address
                0x0000000000000000        0xe drivers/built-in.o
 .text.ofnode_by_compatible
                0x0000000000000000       0x16 drivers/built-in.o
 .text.ofnode_by_prop_value
                0x0000000000000000       0x1c drivers/built-in.o
 .text.ofnode_write_prop
                0x0000000000000000        0x6 drivers/built-in.o
 .text.ofnode_write_string
                0x0000000000000000        0x6 drivers/built-in.o
 .text.ofnode_set_enabled
                0x0000000000000000        0x6 drivers/built-in.o
 .text.dfu_write_by_alt
                0x0000000000000000       0x3a drivers/built-in.o
 .text.create_keymap
                0x0000000000000000       0x56 drivers/built-in.o
 .text.key_matrix_decode
                0x0000000000000000       0x94 drivers/built-in.o
 .text.key_matrix_decode_fdt
                0x0000000000000000       0x70 drivers/built-in.o
 .text.key_matrix_init
                0x0000000000000000       0x20 drivers/built-in.o
 .text.mtd_ooblayout_ecc
                0x0000000000000000       0x3c drivers/built-in.o
 .text.mtd_ooblayout_free
                0x0000000000000000       0x3c drivers/built-in.o
 .text.mtd_ooblayout_find_region
                0x0000000000000000       0x4c drivers/built-in.o
 .text.mtd_ooblayout_get_bytes
                0x0000000000000000       0x56 drivers/built-in.o
 .text.mtd_ooblayout_set_bytes
                0x0000000000000000       0x56 drivers/built-in.o
 .text.idr_remove
                0x0000000000000000       0x14 drivers/built-in.o
 .text.idr_find
                0x0000000000000000        0xe drivers/built-in.o
 .text.idr_alloc
                0x0000000000000000       0x2a drivers/built-in.o
 .text.mtd_dev_list_updated
                0x0000000000000000       0x14 drivers/built-in.o
 .text.del_mtd_device
                0x0000000000000000       0x44 drivers/built-in.o
 .text.get_mtd_device
                0x0000000000000000       0x58 drivers/built-in.o
 .text.mtd_get_unmapped_area
                0x0000000000000000       0x52 drivers/built-in.o
 .text.mtd_panic_write
                0x0000000000000000       0x64 drivers/built-in.o
 .text.mtd_ooblayout_find_eccregion
                0x0000000000000000       0x14 drivers/built-in.o
 .text.mtd_ooblayout_get_eccbytes
                0x0000000000000000       0x18 drivers/built-in.o
 .text.mtd_ooblayout_set_eccbytes
                0x0000000000000000       0x18 drivers/built-in.o
 .text.mtd_ooblayout_get_databytes
                0x0000000000000000       0x18 drivers/built-in.o
 .text.mtd_ooblayout_set_databytes
                0x0000000000000000       0x18 drivers/built-in.o
 .text.mtd_ooblayout_count_freebytes
                0x0000000000000000       0x28 drivers/built-in.o
 .text.mtd_ooblayout_count_eccbytes
                0x0000000000000000       0x28 drivers/built-in.o
 .text.mtd_get_fact_prot_info
                0x0000000000000000       0x1a drivers/built-in.o
 .text.mtd_read_fact_prot_reg
                0x0000000000000000       0x22 drivers/built-in.o
 .text.mtd_get_user_prot_info
                0x0000000000000000       0x1a drivers/built-in.o
 .text.mtd_read_user_prot_reg
                0x0000000000000000       0x24 drivers/built-in.o
 .text.mtd_write_user_prot_reg
                0x0000000000000000       0x38 drivers/built-in.o
 .text.mtd_lock_user_prot_reg
                0x0000000000000000       0x1e drivers/built-in.o
 .text.mtd_lock
                0x0000000000000000       0x5c drivers/built-in.o
 .text.mtd_is_locked
                0x0000000000000000       0x5c drivers/built-in.o
 .text.mtd_block_isreserved
                0x0000000000000000       0x2c drivers/built-in.o
 .text.mtd_search_alternate_name
                0x0000000000000000       0x88 drivers/built-in.o
 .text.mtd_probe_devices
                0x0000000000000000        0x4 drivers/built-in.o
 .text.nand_mtd_to_devnum
                0x0000000000000000       0x1e drivers/built-in.o
 .text.nand_exit_status_op
                0x0000000000000000       0x14 drivers/built-in.o
 .text.nand_check_ecc_caps
                0x0000000000000000       0xd8 drivers/built-in.o
 .text.nand_match_ecc_req
                0x0000000000000000      0x128 drivers/built-in.o
 .text.nand_maximize_ecc
                0x0000000000000000       0xfc drivers/built-in.o
 .text.onfi_async_timing_mode_to_sdr_timings
                0x0000000000000000       0x1c drivers/built-in.o
 .text.omap_calculate_ecc
                0x0000000000000000       0x28 drivers/built-in.o
 .text.omap_enable_hwecc
                0x0000000000000000       0x8c drivers/built-in.o
 .text.omap_correct_data
                0x0000000000000000       0xbc drivers/built-in.o
 .text.omap_nand_switch_ecc
                0x0000000000000000      0x25c drivers/built-in.o
 .text.spi_flash_free
                0x0000000000000000        0xc drivers/built-in.o
 .text.spi_flash_probe
                0x0000000000000000       0x1a drivers/built-in.o
 .text.spi_nor_set_fixups
                0x0000000000000000        0x2 drivers/built-in.o
 .text.blk_get_by_device
                0x0000000000000000       0x2e drivers/built-in.o
 .text.blk_get_from_parent
                0x0000000000000000       0x32 drivers/built-in.o
 .text.blk_unbind_all
                0x0000000000000000       0x5a drivers/built-in.o
 .text.rsa_mod_exp
                0x0000000000000000       0x18 drivers/built-in.o
 .text.fastboot_get_progress_callback
                0x0000000000000000        0xc drivers/built-in.o
 .text.fastboot_set_progress_callback
                0x0000000000000000        0xc drivers/built-in.o
 .text.misc_read
                0x0000000000000000       0x18 drivers/built-in.o
 .text.misc_write
                0x0000000000000000       0x18 drivers/built-in.o
 .text.misc_ioctl
                0x0000000000000000       0x10 drivers/built-in.o
 .text.misc_call
                0x0000000000000000       0x18 drivers/built-in.o
 .text.misc_set_enabled
                0x0000000000000000       0x10 drivers/built-in.o
 .text.misc_init_by_ofnode
                0x0000000000000000       0x3a drivers/built-in.o
 .text.cpu_mmc_init
                0x0000000000000000        0x6 drivers/built-in.o
 .text.board_mmc_init
                0x0000000000000000        0x6 drivers/built-in.o
 .text.mmc_set_preinit
                0x0000000000000000        0x6 drivers/built-in.o
 .text.mmc_init_device
                0x0000000000000000       0x44 drivers/built-in.o
 .text.dm_mmc_hs400_prepare_ddr
                0x0000000000000000        0xe drivers/built-in.o
 .text.mmc_hs400_prepare_ddr
                0x0000000000000000        0x8 drivers/built-in.o
 .text.mmc_get_next_devnum
                0x0000000000000000        0x6 drivers/built-in.o
 .text.mmc_unbind
                0x0000000000000000       0x20 drivers/built-in.o
 .text.mmc_init_stream
                0x0000000000000000       0xac drivers/built-in.o
 .text.wdt_stop
                0x0000000000000000       0x10 drivers/built-in.o
 .text.wdt_expire_now
                0x0000000000000000       0x32 drivers/built-in.o
 .rodata.clk_get_by_name.str1.1
                0x0000000000000000        0xc drivers/built-in.o
 .rodata.devfdt_get_addr_name.str1.1
                0x0000000000000000        0xa drivers/built-in.o
 .rodata.pci_get_devfn.str1.1
                0x0000000000000000        0x4 drivers/built-in.o
 .rodata.ofnode_read_fmap_entry.str1.1
                0x0000000000000000       0x32 drivers/built-in.o
 .rodata.ofnode_decode_memory_region.str1.1
                0x0000000000000000       0x2d drivers/built-in.o
 .rodata.ofnode_read_aliases_prop.str1.1
                0x0000000000000000        0x9 drivers/built-in.o
 .rodata.ofnode_decode_display_timing.str1.1
                0x0000000000000000       0xca drivers/built-in.o
 .rodata.ofnode_read_pci_vendev.str1.1
                0x0000000000000000       0x1c drivers/built-in.o
 .rodata.ofnode_read_resource_byname.str1.1
                0x0000000000000000        0xa drivers/built-in.o
 .rodata.key_matrix_decode_fdt.str1.1
                0x0000000000000000       0x1d drivers/built-in.o
 .rodata.del_mtd_device.str1.1
                0x0000000000000000       0x30 drivers/built-in.o
 .rodata.mtd_search_alternate_name.str1.1
                0x0000000000000000       0x14 drivers/built-in.o
 .rodata.__func__.10016
                0x0000000000000000       0x14 drivers/built-in.o
 .rodata.__func__.10053
                0x0000000000000000       0x13 drivers/built-in.o
 .rodata.__func__.10086
                0x0000000000000000       0x12 drivers/built-in.o
 .rodata.omap_enable_hwecc.str1.1
                0x0000000000000000       0x23 drivers/built-in.o
 .rodata.omap_correct_data.str1.1
                0x0000000000000000       0x31 drivers/built-in.o
 .rodata.omap_nand_switch_ecc.str1.1
                0x0000000000000000       0x9e drivers/built-in.o
 .rodata.__func__.9014
                0x0000000000000000       0x12 drivers/built-in.o
 .rodata.force32bit_soc_attr
                0x0000000000000000       0x20 drivers/built-in.o
 .rodata.mmc_init_stream.str1.1
                0x0000000000000000       0x1e drivers/built-in.o
 .data          0x0000000000000000        0x0 drivers/built-in.o
 .data.nand_manuf_ids
                0x0000000000000000       0x78 drivers/built-in.o
 .bss           0x0000000000000000        0x0 drivers/built-in.o
 .bss.__warned.10020
                0x0000000000000000        0x1 drivers/built-in.o
 .bss.__warned.10056
                0x0000000000000000        0x1 drivers/built-in.o
 .bss.__warned.10090
                0x0000000000000000        0x1 drivers/built-in.o
 .text          0x0000000000000000        0x0 drivers/gpio/built-in.o
 .text.gpio_hog_lookup_name
                0x0000000000000000        0x4 drivers/gpio/built-in.o
 .text.gpio_requestf
                0x0000000000000000       0x2a drivers/gpio/built-in.o
 .text.dm_gpio_set_dir
                0x0000000000000000       0x20 drivers/gpio/built-in.o
 .text.dm_gpio_get_dir_flags
                0x0000000000000000       0x78 drivers/gpio/built-in.o
 .text.gpio_claim_vector
                0x0000000000000000       0x52 drivers/gpio/built-in.o
 .text.gpio_get_values_as_int
                0x0000000000000000       0x2c drivers/gpio/built-in.o
 .text.dm_gpio_get_values_as_int
                0x0000000000000000       0x32 drivers/gpio/built-in.o
 .text.gpio_request_by_name_nodev
                0x0000000000000000       0x18 drivers/gpio/built-in.o
 .text.gpio_get_number
                0x0000000000000000       0x14 drivers/gpio/built-in.o
 .text.gpio_dev_request_index
                0x0000000000000000       0x30 drivers/gpio/built-in.o
 .text.devm_gpiod_get_index
                0x0000000000000000       0x6c drivers/gpio/built-in.o
 .text.devm_gpiod_get_index_optional
                0x0000000000000000       0x10 drivers/gpio/built-in.o
 .text.devm_gpiod_put
                0x0000000000000000        0x2 drivers/gpio/built-in.o
 .text.gpio_is_valid
                0x0000000000000000        0xa drivers/gpio/built-in.o
 .rodata.dm_gpio_set_dir.str1.1
                0x0000000000000000        0x8 drivers/gpio/built-in.o
 .rodata.dm_gpio_get_dir_flags.str1.1
                0x0000000000000000        0xe drivers/gpio/built-in.o
 .rodata.suffix.8946
                0x0000000000000000        0x7 drivers/gpio/built-in.o
 .data          0x0000000000000000        0x0 drivers/gpio/built-in.o
 .bss           0x0000000000000000        0x0 drivers/gpio/built-in.o
 .text          0x0000000000000000        0x0 drivers/i2c/built-in.o
 .text.i2c_dump_msgs
                0x0000000000000000       0x64 drivers/i2c/built-in.o
 .text.dm_i2c_xfer
                0x0000000000000000       0x22 drivers/i2c/built-in.o
 .text.i2c_set_chip_addr_offset_mask
                0x0000000000000000        0xe drivers/i2c/built-in.o
 .text.i2c_get_chip_addr_offset_mask
                0x0000000000000000        0xa drivers/i2c/built-in.o
 .text.i2c_deblock_gpio_loop
                0x0000000000000000       0xde drivers/i2c/built-in.o
 .rodata.i2c_dump_msgs.str1.1
                0x0000000000000000       0x1b drivers/i2c/built-in.o
 .data          0x0000000000000000        0x0 drivers/i2c/built-in.o
 .bss           0x0000000000000000        0x0 drivers/i2c/built-in.o
 .text          0x0000000000000000        0x0 drivers/net/built-in.o
 .text.cpsw_mdio_free
                0x0000000000000000       0x2e drivers/net/built-in.o
 .data          0x0000000000000000        0x0 drivers/net/built-in.o
 .bss           0x0000000000000000        0x0 drivers/net/built-in.o
 .text          0x0000000000000000        0x0 drivers/net/phy/built-in.o
 .text.miiphy_reset
                0x0000000000000000       0x1a drivers/net/phy/built-in.o
 .text.phy_shutdown
                0x0000000000000000        0xe drivers/net/phy/built-in.o
 .data          0x0000000000000000        0x0 drivers/net/phy/built-in.o
 .bss           0x0000000000000000        0x0 drivers/net/phy/built-in.o
 .text          0x0000000000000000        0x0 drivers/power/pmic/built-in.o
 .text.tps65217_reg_read
                0x0000000000000000       0x14 drivers/power/pmic/built-in.o
 .text.tps65217_reg_write
                0x0000000000000000       0x98 drivers/power/pmic/built-in.o
 .text.tps65217_voltage_update
                0x0000000000000000       0x32 drivers/power/pmic/built-in.o
 .text.power_tps65217_init
                0x0000000000000000       0x24 drivers/power/pmic/built-in.o
 .text.power_tps65910_init
                0x0000000000000000       0x24 drivers/power/pmic/built-in.o
 .text.tps65910_set_i2c_control
                0x0000000000000000       0x28 drivers/power/pmic/built-in.o
 .text.tps65910_voltage_update
                0x0000000000000000       0x64 drivers/power/pmic/built-in.o
 .data          0x0000000000000000        0x8 drivers/power/pmic/built-in.o
 .bss           0x0000000000000000        0x0 drivers/power/pmic/built-in.o
 .comment       0x0000000000000000       0xb6 drivers/power/pmic/built-in.o
 .note.GNU-stack
                0x0000000000000000        0x0 drivers/power/pmic/built-in.o
 .ARM.attributes
                0x0000000000000000       0x2d drivers/power/pmic/built-in.o
 .debug_aranges
                0x0000000000000000       0x68 drivers/power/pmic/built-in.o
 .debug_info    0x0000000000000000      0xc0a drivers/power/pmic/built-in.o
 .debug_abbrev  0x0000000000000000      0x457 drivers/power/pmic/built-in.o
 .debug_line    0x0000000000000000      0x570 drivers/power/pmic/built-in.o
 .debug_frame   0x0000000000000000       0xdc drivers/power/pmic/built-in.o
 .debug_str     0x0000000000000000      0xc6f drivers/power/pmic/built-in.o
 .debug_loc     0x0000000000000000      0x548 drivers/power/pmic/built-in.o
 .debug_ranges  0x0000000000000000       0xb0 drivers/power/pmic/built-in.o
 .text          0x0000000000000000        0x0 drivers/serial/built-in.o
 .text.serial_getconfig
                0x0000000000000000        0xe drivers/serial/built-in.o
 .text.serial_setconfig
                0x0000000000000000        0xe drivers/serial/built-in.o
 .text.serial_getinfo
                0x0000000000000000       0x1e drivers/serial/built-in.o
 .text.ns16550_calc_divisor
                0x0000000000000000       0x10 drivers/serial/built-in.o
 .text.NS16550_reinit
                0x0000000000000000       0x38 drivers/serial/built-in.o
 .text.NS16550_putc
                0x0000000000000000       0x2a drivers/serial/built-in.o
 .text.NS16550_getc
                0x0000000000000000       0x22 drivers/serial/built-in.o
 .text.NS16550_tstc
                0x0000000000000000       0x10 drivers/serial/built-in.o
 .data          0x0000000000000000        0x0 drivers/serial/built-in.o
 .bss           0x0000000000000000        0x0 drivers/serial/built-in.o
 .text          0x0000000000000000        0x0 drivers/spi/built-in.o
 .text.dm_spi_get_mmap
                0x0000000000000000       0x2a drivers/spi/built-in.o
 .text.spi_write_then_read
                0x0000000000000000       0x40 drivers/spi/built-in.o
 .text.spi_chip_select
                0x0000000000000000       0x12 drivers/spi/built-in.o
 .text.spi_cs_info
                0x0000000000000000       0x1c drivers/spi/built-in.o
 .text.spi_cs_is_valid
                0x0000000000000000       0x20 drivers/spi/built-in.o
 .text.spi_setup_slave
                0x0000000000000000       0x22 drivers/spi/built-in.o
 .text.spi_free_slave
                0x0000000000000000       0x12 drivers/spi/built-in.o
 .text.spi_mem_dtr_supports_op
                0x0000000000000000        0xe drivers/spi/built-in.o
 .data          0x0000000000000000        0x0 drivers/spi/built-in.o
 .bss           0x0000000000000000        0x0 drivers/spi/built-in.o
 .text          0x0000000000000000        0x0 drivers/usb/common/built-in.o
 .text.usb_speed_string
                0x0000000000000000       0x14 drivers/usb/common/built-in.o
 .text.usb_get_maximum_speed
                0x0000000000000000       0x34 drivers/usb/common/built-in.o
 .text.usb_get_phy_mode
                0x0000000000000000       0x4c drivers/usb/common/built-in.o
 .rodata.usb_get_maximum_speed.str1.1
                0x0000000000000000        0xe drivers/usb/common/built-in.o
 .rodata.speed_names
                0x0000000000000000       0x1c drivers/usb/common/built-in.o
 .data          0x0000000000000000        0x0 drivers/usb/common/built-in.o
 .bss           0x0000000000000000        0x0 drivers/usb/common/built-in.o
 .text          0x0000000000000000        0x0 drivers/usb/gadget/built-in.o
 .text.usb_function_deactivate
                0x0000000000000000       0x2a drivers/usb/gadget/built-in.o
 .text.usb_function_activate
                0x0000000000000000       0x2a drivers/usb/gadget/built-in.o
 .text.usb_string_ids_tab
                0x0000000000000000       0x28 drivers/usb/gadget/built-in.o
 .text.usb_string_ids_n
                0x0000000000000000       0x1c drivers/usb/gadget/built-in.o
 .text.g_dnl_set_product
                0x0000000000000000       0x18 drivers/usb/gadget/built-in.o
 .text.board_usb_init
                0x0000000000000000        0x4 drivers/usb/gadget/built-in.o
 .text.board_usb_cleanup
                0x0000000000000000        0x4 drivers/usb/gadget/built-in.o
 .data          0x0000000000000000        0x0 drivers/usb/gadget/built-in.o
 .bss           0x0000000000000000        0x0 drivers/usb/gadget/built-in.o
 .text          0x0000000000000000        0x0 drivers/usb/gadget/udc/built-in.o
 .text.usb_gadget_map_request
                0x0000000000000000       0x32 drivers/usb/gadget/udc/built-in.o
 .text.usb_gadget_unmap_request
                0x0000000000000000       0x18 drivers/usb/gadget/udc/built-in.o
 .text.usb_gadget_giveback_request
                0x0000000000000000        0x4 drivers/usb/gadget/udc/built-in.o
 .text.usb_gadget_set_state
                0x0000000000000000        0x4 drivers/usb/gadget/udc/built-in.o
 .text.usb_gadget_udc_reset
                0x0000000000000000        0xe drivers/usb/gadget/udc/built-in.o
 .data          0x0000000000000000        0x0 drivers/usb/gadget/udc/built-in.o
 .bss           0x0000000000000000        0x0 drivers/usb/gadget/udc/built-in.o
 .text          0x0000000000000000        0x0 drivers/usb/host/built-in.o
 .text.create_int_queue
                0x0000000000000000       0x2a drivers/usb/host/built-in.o
 .text.poll_int_queue
                0x0000000000000000       0x20 drivers/usb/host/built-in.o
 .text.destroy_int_queue
                0x0000000000000000       0x22 drivers/usb/host/built-in.o
 .text.usb_setup_ehci_gadget
                0x0000000000000000       0x42 drivers/usb/host/built-in.o
 .text.usb_remove_ehci_gadget
                0x0000000000000000       0x22 drivers/usb/host/built-in.o
 .text.usb_detect_change
                0x0000000000000000       0x68 drivers/usb/host/built-in.o
 .data          0x0000000000000000        0x0 drivers/usb/host/built-in.o
 .bss           0x0000000000000000        0x0 drivers/usb/host/built-in.o
 .text          0x0000000000000000        0x0 drivers/usb/musb-new/built-in.o
 .text.musb_gadget_cleanup
                0x0000000000000000        0x2 drivers/usb/musb-new/built-in.o
 .text.musb_g_resume
                0x0000000000000000        0x2 drivers/usb/musb-new/built-in.o
 .text.musb_g_suspend
                0x0000000000000000        0x2 drivers/usb/musb-new/built-in.o
 .text.musb_g_wakeup
                0x0000000000000000        0x2 drivers/usb/musb-new/built-in.o
 .text.musb_g_disconnect
                0x0000000000000000       0x3a drivers/usb/musb-new/built-in.o
 .text.musb_g_reset
                0x0000000000000000       0x66 drivers/usb/musb-new/built-in.o
 .text.musb_register
                0x0000000000000000        0x6 drivers/usb/musb-new/built-in.o
 .data          0x0000000000000000        0x0 drivers/usb/musb-new/built-in.o
 .bss           0x0000000000000000        0x0 drivers/usb/musb-new/built-in.o
 .text          0x0000000000000000        0x0 env/built-in.o
 .text.env_reload
                0x0000000000000000       0x60 env/built-in.o
 .text.env_erase
                0x0000000000000000       0x58 env/built-in.o
 .text.env_select
                0x0000000000000000       0x98 env/built-in.o
 .text.env_flags_parse_varaccess_from_binflags
                0x0000000000000000       0x30 env/built-in.o
 .rodata.env_erase.str1.1
                0x0000000000000000       0x1e env/built-in.o
 .rodata.env_select.str1.1
                0x0000000000000000       0x41 env/built-in.o
 .rodata.env_flags_parse_varaccess_from_binflags.str1.1
                0x0000000000000000       0x2c env/built-in.o
 .data          0x0000000000000000        0x0 env/built-in.o
 .bss           0x0000000000000000        0x0 env/built-in.o
 .text          0x0000000000000000        0x0 fs/built-in.o
 .text.fs_uuid  0x0000000000000000       0x1c fs/built-in.o
 .text.do_fs_uuid
                0x0000000000000000       0x58 fs/built-in.o
 .text.print_revoke_blks
                0x0000000000000000       0x34 fs/built-in.o
 .text.fat_register_device
                0x0000000000000000       0x54 fs/built-in.o
 .rodata.print_revoke_blks.str1.1
                0x0000000000000000       0x25 fs/built-in.o
 .rodata.fat_register_device.str1.1
                0x0000000000000000       0x2b fs/built-in.o
 .data          0x0000000000000000        0x0 fs/built-in.o
 .bss           0x0000000000000000        0x0 fs/built-in.o
 .bss.ext4fs_symlinknest
                0x0000000000000000        0x4 fs/built-in.o
 .text          0x0000000000000000        0x0 lib/built-in.o
 .text.efi_serialize_load_option
                0x0000000000000000       0x88 lib/built-in.o
 .text.indent_string
                0x0000000000000000       0x20 lib/built-in.o
 .text.__efi_nesting
                0x0000000000000000        0xc lib/built-in.o
 .text.__efi_nesting_inc
                0x0000000000000000       0x10 lib/built-in.o
 .text.__efi_nesting_dec
                0x0000000000000000       0x10 lib/built-in.o
 .text.form_callback
                0x0000000000000000       0x14 lib/built-in.o
 .text.extract_config_access
                0x0000000000000000       0x14 lib/built-in.o
 .text.route_config_access
                0x0000000000000000       0x14 lib/built-in.o
 .text.invalidate_icache_all
                0x0000000000000000        0x2 lib/built-in.o
 .text.efi_add_runtime_mmio
                0x0000000000000000       0x50 lib/built-in.o
 .text.allow_unaligned
                0x0000000000000000        0x2 lib/built-in.o
 .text.efi_create_indexed_name
                0x0000000000000000       0x30 lib/built-in.o
 .text.efi_secure_boot_enabled
                0x0000000000000000        0xc lib/built-in.o
 .text.efi_disk_is_system_part
                0x0000000000000000       0x34 lib/built-in.o
 .text.fdt_get_property_by_offset
                0x0000000000000000       0x20 lib/built-in.o
 .text.fdt_generate_phandle
                0x0000000000000000       0x2a lib/built-in.o
 .text.fdt_node_offset_by_prop_value
                0x0000000000000000       0x58 lib/built-in.o
 .text.fdt_stringlist_search
                0x0000000000000000       0x66 lib/built-in.o
 .text.fdt_node_offset_by_compatible
                0x0000000000000000       0x40 lib/built-in.o
 .text.fdt_check_full
                0x0000000000000000       0xbc lib/built-in.o
 .text.fdt_nop_property
                0x0000000000000000       0x2c lib/built-in.o
 .text.fdt_nop_node
                0x0000000000000000       0x30 lib/built-in.o
 .text.fdt_sw_probe_
                0x0000000000000000       0x28 lib/built-in.o
 .text.fdt_grab_space_
                0x0000000000000000       0x2e lib/built-in.o
 .text.fdt_add_string_
                0x0000000000000000       0x42 lib/built-in.o
 .text.fdt_sw_probe_struct_
                0x0000000000000000       0x18 lib/built-in.o
 .text.fdt_create_with_flags
                0x0000000000000000       0x4c lib/built-in.o
 .text.fdt_create
                0x0000000000000000        0x6 lib/built-in.o
 .text.fdt_resize
                0x0000000000000000       0x90 lib/built-in.o
 .text.fdt_add_reservemap_entry
                0x0000000000000000       0x56 lib/built-in.o
 .text.fdt_finish_reservemap
                0x0000000000000000       0x1a lib/built-in.o
 .text.fdt_begin_node
                0x0000000000000000       0x40 lib/built-in.o
 .text.fdt_end_node
                0x0000000000000000       0x26 lib/built-in.o
 .text.fdt_property_placeholder
                0x0000000000000000       0x90 lib/built-in.o
 .text.fdt_property
                0x0000000000000000       0x22 lib/built-in.o
 .text.fdt_finish
                0x0000000000000000       0x9c lib/built-in.o
 .text.fdt_set_name
                0x0000000000000000       0x5a lib/built-in.o
 .text.fdt_appendprop
                0x0000000000000000       0x88 lib/built-in.o
 .text.fdt_create_empty_tree
                0x0000000000000000       0x44 lib/built-in.o
 .text.fdt_appendprop_addrrange
                0x0000000000000000       0xce lib/built-in.o
 .text.fdt_overlay_apply_node
                0x0000000000000000        0x4 lib/built-in.o
 .text.u16_strsize
                0x0000000000000000        0xc lib/built-in.o
 .text.u16_strcpy
                0x0000000000000000       0x14 lib/built-in.o
 .text.crc8     0x0000000000000000       0x2e lib/built-in.o
 .text.fdtdec_get_uint
                0x0000000000000000       0x1c lib/built-in.o
 .text.fdtdec_get_child_count
                0x0000000000000000       0x20 lib/built-in.o
 .text.ldiv     0x0000000000000000       0x24 lib/built-in.o
 .text.add_ip_checksums
                0x0000000000000000       0x2c lib/built-in.o
 .text.rc4_encode
                0x0000000000000000       0x92 lib/built-in.o
 .text.byteReverse
                0x0000000000000000        0x2 lib/built-in.o
 .text.md5      0x0000000000000000       0x44 lib/built-in.o
 .text.sha1_csum
                0x0000000000000000       0x24 lib/built-in.o
 .text.sha1_hmac
                0x0000000000000000       0xba lib/built-in.o
 .text.sha1_self_test
                0x0000000000000000        0x4 lib/built-in.o
 .text.inflateInit_
                0x0000000000000000        0xa lib/built-in.o
 .text.fdtdec_get_compatible
                0x0000000000000000        0xc lib/built-in.o
 .text.fdtdec_get_uint64
                0x0000000000000000       0x24 lib/built-in.o
 .text.fdtdec_lookup
                0x0000000000000000       0x28 lib/built-in.o
 .text.fdtdec_next_compatible
                0x0000000000000000       0x10 lib/built-in.o
 .text.fdtdec_next_compatible_subnode
                0x0000000000000000       0x40 lib/built-in.o
 .text.fdtdec_next_alias
                0x0000000000000000       0x60 lib/built-in.o
 .text.fdtdec_add_aliases_for_id
                0x0000000000000000      0x174 lib/built-in.o
 .text.fdtdec_find_aliases_for_id
                0x0000000000000000       0x30 lib/built-in.o
 .text.fdtdec_get_chosen_node
                0x0000000000000000       0x1c lib/built-in.o
 .text.fdtdec_check_fdt
                0x0000000000000000        0xa lib/built-in.o
 .text.decode_timing_property
                0x0000000000000000       0x4a lib/built-in.o
 .text.fdtdec_locate_array
                0x0000000000000000       0x18 lib/built-in.o
 .text.fdtdec_get_byte_array
                0x0000000000000000       0x26 lib/built-in.o
 .text.fdtdec_get_config_bool
                0x0000000000000000       0x2c lib/built-in.o
 .text.fdtdec_get_addr_size_auto_noparent
                0x0000000000000000       0x34 lib/built-in.o
 .text.fdt_get_named_resource
                0x0000000000000000       0x2c lib/built-in.o
 .text.fdtdec_decode_display_timing
                0x0000000000000000      0x1e8 lib/built-in.o
 .text.fdtdec_setup_mem_size_base
                0x0000000000000000       0x3c lib/built-in.o
 .text.get_next_memory_node
                0x0000000000000000       0x2c lib/built-in.o
 .text.fdtdec_setup_memory_banksize
                0x0000000000000000       0x76 lib/built-in.o
 .text.fdtdec_setup_mem_size_base_lowest
                0x0000000000000000       0x70 lib/built-in.o
 .text.fdtdec_set_ethernet_mac_address
                0x0000000000000000       0x60 lib/built-in.o
 .text.fdtdec_add_reserved_memory
                0x0000000000000000      0x214 lib/built-in.o
 .text.fdtdec_get_carveout
                0x0000000000000000       0x80 lib/built-in.o
 .text.fdtdec_set_carveout
                0x0000000000000000       0x96 lib/built-in.o
 .text.fdtdec_decode_ram_size
                0x0000000000000000      0x174 lib/built-in.o
 .text.print_freq
                0x0000000000000000      0x11c lib/built-in.o
 .text.div_s64_rem
                0x0000000000000000       0x8c lib/built-in.o
 .text.div64_u64_rem
                0x0000000000000000      0x124 lib/built-in.o
 .text.div64_u64
                0x0000000000000000      0x104 lib/built-in.o
 .text.div64_s64
                0x0000000000000000       0x2e lib/built-in.o
 .text.iter_div_u64_rem
                0x0000000000000000       0x24 lib/built-in.o
 .text.copy_from_user
                0x0000000000000000        0xa lib/built-in.o
 .text.get_mem  0x0000000000000000       0x10 lib/built-in.o
 .text.kmem_cache_alloc
                0x0000000000000000        0xe lib/built-in.o
 .text.kmemdup  0x0000000000000000       0x1e lib/built-in.o
 .text.lmb_init
                0x0000000000000000        0xc lib/built-in.o
 .text.lmb_is_reserved
                0x0000000000000000       0x28 lib/built-in.o
 .text.arch_lmb_reserve
                0x0000000000000000        0x2 lib/built-in.o
 .text.membuff_purge
                0x0000000000000000        0x8 lib/built-in.o
 .text.membuff_putraw
                0x0000000000000000       0x66 lib/built-in.o
 .text.membuff_putbyte
                0x0000000000000000       0x1c lib/built-in.o
 .text.membuff_getraw
                0x0000000000000000       0x50 lib/built-in.o
 .text.membuff_getbyte
                0x0000000000000000       0x22 lib/built-in.o
 .text.membuff_peekbyte
                0x0000000000000000       0x20 lib/built-in.o
 .text.membuff_get
                0x0000000000000000       0x46 lib/built-in.o
 .text.membuff_put
                0x0000000000000000       0x3e lib/built-in.o
 .text.membuff_isempty
                0x0000000000000000        0xc lib/built-in.o
 .text.membuff_avail
                0x0000000000000000       0x34 lib/built-in.o
 .text.membuff_size
                0x0000000000000000        0x8 lib/built-in.o
 .text.membuff_makecontig
                0x0000000000000000       0x44 lib/built-in.o
 .text.membuff_free
                0x0000000000000000       0x1a lib/built-in.o
 .text.membuff_readline
                0x0000000000000000       0x6a lib/built-in.o
 .text.membuff_extend_by
                0x0000000000000000       0x78 lib/built-in.o
 .text.membuff_init
                0x0000000000000000        0xc lib/built-in.o
 .text.membuff_new
                0x0000000000000000       0x22 lib/built-in.o
 .text.membuff_uninit
                0x0000000000000000        0xc lib/built-in.o
 .text.membuff_dispose
                0x0000000000000000       0x14 lib/built-in.o
 .text.strchrnul
                0x0000000000000000       0x14 lib/built-in.o
 .text.strcspn  0x0000000000000000       0x20 lib/built-in.o
 .text.strndup  0x0000000000000000       0x30 lib/built-in.o
 .text.strswab  0x0000000000000000       0x26 lib/built-in.o
 .text.memscan  0x0000000000000000       0x16 lib/built-in.o
 .text.memchr_inv
                0x0000000000000000       0x98 lib/built-in.o
 .text.table_compute_checksum
                0x0000000000000000       0x18 lib/built-in.o
 .text.get_timer_us
                0x0000000000000000       0x68 lib/built-in.o
 .text.get_timer_us_long
                0x0000000000000000        0xc lib/built-in.o
 .text.print_hex_dump
                0x0000000000000000        0x2 lib/built-in.o
 .text.print_hex_dump_bytes
                0x0000000000000000        0x2 lib/built-in.o
 .text.scnprintf
                0x0000000000000000       0x1a lib/built-in.o
 .text.print_grouped_ull
                0x0000000000000000       0x5c lib/built-in.o
 .text.strmhz   0x0000000000000000       0x4c lib/built-in.o
 .text.str_to_upper
                0x0000000000000000       0x2c lib/built-in.o
 .text.rtc_calc_weekday
                0x0000000000000000       0x94 lib/built-in.o
 .text.rtc_mktime
                0x0000000000000000       0x84 lib/built-in.o
 .rodata.indent_string.str1.1
                0x0000000000000000       0x15 lib/built-in.o
 .rodata.efi_guid_event_group_ready_to_boot
                0x0000000000000000       0x10 lib/built-in.o
 .rodata.efi_guid_event_group_virtual_address_change
                0x0000000000000000       0x10 lib/built-in.o
 .rodata.efi_guid_hii_config_access_protocol
                0x0000000000000000       0x10 lib/built-in.o
 .rodata.efi_hii_config_access
                0x0000000000000000        0xc lib/built-in.o
 .rodata.efi_create_indexed_name.str1.1
                0x0000000000000000        0x5 lib/built-in.o
 .rodata.efi_guid_cert_rsa2048
                0x0000000000000000       0x10 lib/built-in.o
 .rodata.efi_guid_cert_type_pkcs7
                0x0000000000000000       0x10 lib/built-in.o
 .rodata.efi_guid_cert_x509
                0x0000000000000000       0x10 lib/built-in.o
 .rodata.efi_guid_cert_x509_sha256
                0x0000000000000000       0x10 lib/built-in.o
 .rodata.efi_guid_sha256
                0x0000000000000000       0x10 lib/built-in.o
 .rodata.fdt_create_empty_tree.str1.1
                0x0000000000000000        0x1 lib/built-in.o
 .rodata.sha1_der_prefix
                0x0000000000000000        0xf lib/built-in.o
 .rodata.sha256_der_prefix
                0x0000000000000000       0x13 lib/built-in.o
 .rodata.z_errmsg
                0x0000000000000000       0x28 lib/built-in.o
 .rodata.fdtdec_next_alias.str1.1
                0x0000000000000000        0x7 lib/built-in.o
 .rodata.fdtdec_decode_display_timing.str1.1
                0x0000000000000000       0xca lib/built-in.o
 .rodata.fdtdec_setup_mem_size_base.str1.1
                0x0000000000000000        0x8 lib/built-in.o
 .rodata.get_next_memory_node.str1.1
                0x0000000000000000       0x13 lib/built-in.o
 .rodata.fdtdec_set_ethernet_mac_address.str1.1
                0x0000000000000000       0x1b lib/built-in.o
 .rodata.fdtdec_add_reserved_memory.str1.1
                0x0000000000000000       0x5c lib/built-in.o
 .rodata.fdtdec_decode_ram_size.str1.1
                0x0000000000000000       0x21 lib/built-in.o
 .rodata.compat_names
                0x0000000000000000       0x8c lib/built-in.o
 .rodata.names.6176
                0x0000000000000000        0x3 lib/built-in.o
 .rodata.hex_asc_upper
                0x0000000000000000       0x11 lib/built-in.o
 .rodata.print_grouped_ull.str1.1
                0x0000000000000000        0xb lib/built-in.o
 .rodata.strmhz.str1.1
                0x0000000000000000        0xb lib/built-in.o
 .rodata.month_offset
                0x0000000000000000       0x30 lib/built-in.o
 .data          0x0000000000000000        0x0 lib/built-in.o
 .data.cur      0x0000000000000000        0x4 lib/built-in.o
 .data.current  0x0000000000000000        0x4 lib/built-in.o
 .bss           0x0000000000000000        0x0 lib/built-in.o
 .bss.nesting_level
                0x0000000000000000        0x4 lib/built-in.o
 .text          0x0000000000000000        0x0 net/built-in.o
 .text.eth_init_state_only
                0x0000000000000000       0x1e net/built-in.o
 .text.net_get_udp_handler
                0x0000000000000000        0xc net/built-in.o
 .text.net_set_arp_handler
                0x0000000000000000       0x18 net/built-in.o
 .text.vlan_to_string
                0x0000000000000000       0x30 net/built-in.o
 .text.env_get_vlan
                0x0000000000000000        0xe net/built-in.o
 .rodata.vlan_to_string.str1.1
                0x0000000000000000        0x8 net/built-in.o
 .data          0x0000000000000000        0x0 net/built-in.o
 .bss           0x0000000000000000        0x0 net/built-in.o
 .bss.net_busy_flag
                0x0000000000000000        0x4 net/built-in.o
 .text          0x0000000000000000        0x0 arch/arm/lib/eabi_compat.o
 .data          0x0000000000000000        0x0 arch/arm/lib/eabi_compat.o
 .bss           0x0000000000000000        0x0 arch/arm/lib/eabi_compat.o
 .rodata.raise.str1.1
                0x0000000000000000       0x1b arch/arm/lib/eabi_compat.o
 .text.raise    0x0000000000000000       0x14 arch/arm/lib/eabi_compat.o
 .text.__aeabi_unwind_cpp_pr0
                0x0000000000000000        0x2 arch/arm/lib/eabi_compat.o
 .text.__aeabi_unwind_cpp_pr1
                0x0000000000000000        0x2 arch/arm/lib/eabi_compat.o
 .text.__aeabi_memcpy
                0x0000000000000000        0x4 arch/arm/lib/eabi_compat.o
 .text.__aeabi_memset
                0x0000000000000000        0xa arch/arm/lib/eabi_compat.o
 .debug_info    0x0000000000000000      0x3ab arch/arm/lib/eabi_compat.o
 .debug_abbrev  0x0000000000000000      0x18f arch/arm/lib/eabi_compat.o
 .debug_loc     0x0000000000000000      0x12a arch/arm/lib/eabi_compat.o
 .debug_aranges
                0x0000000000000000       0x38 arch/arm/lib/eabi_compat.o
 .debug_ranges  0x0000000000000000       0x28 arch/arm/lib/eabi_compat.o
 .debug_line    0x0000000000000000      0x1a4 arch/arm/lib/eabi_compat.o
 .debug_str     0x0000000000000000      0x470 arch/arm/lib/eabi_compat.o
 .comment       0x0000000000000000       0x5b arch/arm/lib/eabi_compat.o
 .note.GNU-stack
                0x0000000000000000        0x0 arch/arm/lib/eabi_compat.o
 .debug_frame   0x0000000000000000       0x68 arch/arm/lib/eabi_compat.o
 .ARM.attributes
                0x0000000000000000       0x2d arch/arm/lib/eabi_compat.o
 .text          0x0000000000000000        0x0 arch/arm/lib/lib.a(lib1funcs.o)
 .data          0x0000000000000000        0x0 arch/arm/lib/lib.a(lib1funcs.o)
 .bss           0x0000000000000000        0x0 arch/arm/lib/lib.a(lib1funcs.o)
 .text.__umodsi3
                0x0000000000000000       0xa0 arch/arm/lib/lib.a(lib1funcs.o)
 .text.__modsi3
                0x0000000000000000       0xb8 arch/arm/lib/lib.a(lib1funcs.o)
 .text          0x0000000000000000        0x0 arch/arm/lib/lib.a(uldivmod.o)
 .data          0x0000000000000000        0x0 arch/arm/lib/lib.a(uldivmod.o)
 .bss           0x0000000000000000        0x0 arch/arm/lib/lib.a(uldivmod.o)
 .text          0x0000000000000000        0x0 arch/arm/lib/lib.a(div0.o)
 .data          0x0000000000000000        0x0 arch/arm/lib/lib.a(div0.o)
 .bss           0x0000000000000000        0x0 arch/arm/lib/lib.a(div0.o)

Memory Configuration

Name             Origin             Length             Attributes
*default*        0x0000000000000000 0xffffffffffffffff

Linker script and memory map

Address of section .text set to 0x80800000
                0x0000000000000000                . = 0x0
                0x0000000000000000                . = ALIGN (0x4)

.text           0x0000000080800000      0x908
 *(.__image_copy_start)
 .__image_copy_start
                0x0000000080800000        0x0 arch/arm/lib/built-in.o
                0x0000000080800000                __image_copy_start
 *(.vectors)
 .vectors       0x0000000080800000      0x2e8 arch/arm/lib/built-in.o
                0x0000000080800000                _start
                0x0000000080800020                _undefined_instruction
                0x0000000080800024                _software_interrupt
                0x0000000080800028                _prefetch_abort
                0x000000008080002c                _data_abort
                0x0000000080800030                _not_used
                0x0000000080800034                _irq
                0x0000000080800038                _fiq
                0x0000000080800040                IRQ_STACK_START_IN
 arch/arm/cpu/armv7/start.o(.text*)
 .text          0x00000000808002e8       0xc8 arch/arm/cpu/armv7/start.o
                0x00000000808002e8                reset
                0x00000000808002ec                save_boot_params_ret
                0x0000000080800320                c_runtime_cpu_setup
                0x0000000080800334                cpu_init_cp15
 board/ti/am335x/built-in.o(.text*)
 .text.request_and_set_gpio
                0x00000000808003b0       0x58 board/ti/am335x/built-in.o
 .text.ft_board_setup
                0x0000000080800408      0x164 board/ti/am335x/built-in.o
                0x0000000080800408                ft_board_setup
 .text.board_init
                0x000000008080056c      0x1b0 board/ti/am335x/built-in.o
                0x000000008080056c                board_init
 .text.board_late_init
                0x000000008080071c      0x1ec board/ti/am335x/built-in.o
                0x000000008080071c                board_late_init

.glue_7         0x0000000080800908        0x0
 .glue_7        0x0000000080800908        0x0 linker stubs

.glue_7t        0x0000000080800908        0x0
 .glue_7t       0x0000000080800908        0x0 linker stubs

.vfp11_veneer   0x0000000080800908        0x0
 .vfp11_veneer  0x0000000080800908        0x0 linker stubs

.v4_bx          0x0000000080800908        0x0
 .v4_bx         0x0000000080800908        0x0 linker stubs

.iplt           0x0000000080800908        0x0
 .iplt          0x0000000080800908        0x0 arch/arm/cpu/armv7/start.o

.__efi_runtime_start
                0x0000000080800908        0x0
 *(.__efi_runtime_start)
 .__efi_runtime_start
                0x0000000080800908        0x0 arch/arm/lib/built-in.o

.efi_runtime    0x0000000080800908      0xb94
 *(.text.efi_runtime*)
 .text.efi_runtime
                0x0000000080800908      0x53c lib/built-in.o
                0x0000000080800908                efi_reset_system
                0x000000008080090a                efi_get_time
                0x0000000080800914                efi_set_time
                0x0000000080800934                efi_convert_pointer
                0x00000000808009cc                efi_update_capsule
                0x00000000808009d4                efi_query_capsule_caps
                0x00000000808009dc                efi_update_table_header_crc32
                0x00000000808009f0                efi_memcpy_runtime
                0x0000000080800a04                efi_get_variable_runtime
                0x0000000080800a22                efi_get_next_variable_name_runtime
                0x0000000080800a98                efi_var_mem_find
                0x0000000080800b28                efi_get_next_variable_name_mem
                0x0000000080800ba4                efi_get_variable_mem
                0x0000000080800c14                efi_var_mem_del
                0x0000000080800c68                efi_var_mem_ins
                0x0000000080800d14                efi_var_mem_free
                0x0000000080800d28                efi_query_variable_info_runtime
                0x0000000080800d38                efi_get_variable_int
                0x0000000080800d3c                efi_get_next_variable_name_int
                0x0000000080800d40                u16_strnlen
                0x0000000080800d54                crc32_no_comp
                0x0000000080800e38                crc32
 .text.efi_runtime_detach
                0x0000000080800e44       0x24 lib/built-in.o
                0x0000000080800e44                efi_runtime_detach
 .text.efi_runtime_relocate
                0x0000000080800e68       0xf8 lib/built-in.o
                0x0000000080800e68                efi_runtime_relocate
 *(.rodata.efi_runtime*)
 .rodata.efi_runtime_relocate.str1.1
                0x0000000080800f60       0x4e lib/built-in.o
 *(.data.efi_runtime*)
 *fill*         0x0000000080800fae        0x2 
 .data.efi_runtime
                0x0000000080800fb0      0x4e4 lib/built-in.o
                0x0000000080800fb0                efi_events
                0x0000000080800fb8                systab
                0x0000000080801028                efi_runtime_services
                0x000000008080107c                efi_var_buf
 .data.efi_runtime_mmio
                0x0000000080801494        0x8 lib/built-in.o
                0x0000000080801494                efi_runtime_mmio

.__efi_runtime_stop
                0x000000008080149c        0x0
 *(.__efi_runtime_stop)
 .__efi_runtime_stop
                0x000000008080149c        0x0 arch/arm/lib/built-in.o

.text_rest      0x00000000808014a0    0x51e20
 *(.text*)
 .text          0x00000000808014a0      0x168 arch/arm/cpu/armv7/built-in.o
                0x00000000808014a0                __v7_flush_dcache_all
                0x000000008080153c                v7_flush_dcache_all
                0x000000008080154c                __v7_invalidate_dcache_all
                0x00000000808015e8                v7_invalidate_dcache_all
                0x00000000808015f8                allow_unaligned
 .text.invalidate_icache_all
                0x0000000080801608       0x14 arch/arm/cpu/armv7/built-in.o
                0x0000000080801608                invalidate_icache_all
 .text.v7_outer_cache_enable
                0x000000008080161c        0x2 arch/arm/cpu/armv7/built-in.o
                0x000000008080161c                v7_outer_cache_enable
 .text.v7_outer_cache_disable
                0x000000008080161e        0x2 arch/arm/cpu/armv7/built-in.o
                0x000000008080161e                v7_outer_cache_disable
 .text.v7_outer_cache_flush_all
                0x0000000080801620        0x2 arch/arm/cpu/armv7/built-in.o
                0x0000000080801620                v7_outer_cache_flush_all
 .text.flush_dcache_all
                0x0000000080801622        0xe arch/arm/cpu/armv7/built-in.o
                0x0000000080801622                flush_dcache_all
 .text.v7_outer_cache_inval_all
                0x0000000080801630        0x2 arch/arm/cpu/armv7/built-in.o
                0x0000000080801630                v7_outer_cache_inval_all
 .text.invalidate_dcache_all
                0x0000000080801632        0xe arch/arm/cpu/armv7/built-in.o
                0x0000000080801632                invalidate_dcache_all
 .text.arm_init_before_mmu
                0x0000000080801640       0x22 arch/arm/cpu/armv7/built-in.o
                0x0000000080801640                arm_init_before_mmu
 .text.v7_outer_cache_flush_range
                0x0000000080801662        0x2 arch/arm/cpu/armv7/built-in.o
                0x0000000080801662                v7_outer_cache_flush_range
 .text.flush_dcache_range
                0x0000000080801664       0x38 arch/arm/cpu/armv7/built-in.o
                0x0000000080801664                flush_dcache_range
 .text.v7_outer_cache_inval_range
                0x000000008080169c        0x2 arch/arm/cpu/armv7/built-in.o
                0x000000008080169c                v7_outer_cache_inval_range
 .text.invalidate_dcache_range
                0x000000008080169e       0x42 arch/arm/cpu/armv7/built-in.o
                0x000000008080169e                invalidate_dcache_range
 .text.cpu_cache_initialization
                0x00000000808016e0        0x2 arch/arm/cpu/armv7/built-in.o
                0x00000000808016e0                cpu_cache_initialization
 .text.cleanup_before_linux_select
                0x00000000808016e2       0x3e arch/arm/cpu/armv7/built-in.o
                0x00000000808016e2                cleanup_before_linux_select
 .text.cleanup_before_linux
                0x0000000080801720        0x6 arch/arm/cpu/armv7/built-in.o
                0x0000000080801720                cleanup_before_linux
 .text.v7_arch_cp15_set_acr
                0x0000000080801726        0x6 arch/arm/cpu/armv7/built-in.o
                0x0000000080801726                v7_arch_cp15_set_acr
 .text.sdelay   0x000000008080172c        0x6 arch/arm/cpu/armv7/built-in.o
                0x000000008080172c                sdelay
 *fill*         0x0000000080801732        0xe 
 .text          0x0000000080801740      0x424 arch/arm/lib/built-in.o
                0x0000000080801740                _main
                0x00000000808017e0                memset
                0x0000000080801880                memcpy
 .text.setjmp   0x0000000080801b64       0x10 arch/arm/lib/built-in.o
                0x0000000080801b64                setjmp
 .text.longjmp  0x0000000080801b74       0x1c arch/arm/lib/built-in.o
                0x0000000080801b74                longjmp
 .text.relocate_vectors
                0x0000000080801b90       0x70 arch/arm/lib/built-in.o
                0x0000000080801b90                relocate_vectors
                0x0000000080801b9c                relocate_code
 .text.arch_fixup_fdt
                0x0000000080801c00       0x3a arch/arm/lib/built-in.o
                0x0000000080801c00                arch_fixup_fdt
 *fill*         0x0000000080801c3a        0x2 
 .text.setup_initrd_tag.isra.0
                0x0000000080801c3c       0x2c arch/arm/lib/built-in.o
 .text.arch_lmb_reserve
                0x0000000080801c68       0x5e arch/arm/lib/built-in.o
                0x0000000080801c68                arch_lmb_reserve
 .text.board_quiesce_devices
                0x0000000080801cc6        0x2 arch/arm/lib/built-in.o
                0x0000000080801cc6                board_quiesce_devices
 .text.boot_jump_linux
                0x0000000080801cc8       0x90 arch/arm/lib/built-in.o
 .text.setup_board_tags
                0x0000000080801d58        0x2 arch/arm/lib/built-in.o
                0x0000000080801d58                setup_board_tags
 .text.board_prep_linux
                0x0000000080801d5a        0x2 arch/arm/lib/built-in.o
                0x0000000080801d5a                board_prep_linux
 .text.boot_prep_linux
                0x0000000080801d5c      0x104 arch/arm/lib/built-in.o
 .text.do_bootm_linux
                0x0000000080801e60       0x44 arch/arm/lib/built-in.o
                0x0000000080801e60                do_bootm_linux
 .text.boot_prep_vxworks
                0x0000000080801ea4       0x34 arch/arm/lib/built-in.o
                0x0000000080801ea4                boot_prep_vxworks
 .text.boot_jump_vxworks
                0x0000000080801ed8        0xa arch/arm/lib/built-in.o
                0x0000000080801ed8                boot_jump_vxworks
 *fill*         0x0000000080801ee2        0x2 
 .text.bootz_setup
                0x0000000080801ee4       0x78 arch/arm/lib/built-in.o
                0x0000000080801ee4                bootz_setup
 .text.arch_print_bdinfo
                0x0000000080801f5c       0x54 arch/arm/lib/built-in.o
                0x0000000080801f5c                arch_print_bdinfo
 .text.arch_reserve_stacks
                0x0000000080801fb0       0x16 arch/arm/lib/built-in.o
                0x0000000080801fb0                arch_reserve_stacks
 *fill*         0x0000000080801fc6        0x2 
 .text.interrupt_init
                0x0000000080801fc8       0x14 arch/arm/lib/built-in.o
                0x0000000080801fc8                interrupt_init
 .text.enable_interrupts
                0x0000000080801fdc        0x2 arch/arm/lib/built-in.o
                0x0000000080801fdc                enable_interrupts
 .text.disable_interrupts
                0x0000000080801fde        0x4 arch/arm/lib/built-in.o
                0x0000000080801fde                disable_interrupts
 *fill*         0x0000000080801fe2        0x2 
 .text.bad_mode
                0x0000000080801fe4        0xc arch/arm/lib/built-in.o
                0x0000000080801fe4                bad_mode
 .text.show_regs
                0x0000000080801ff0      0x184 arch/arm/lib/built-in.o
                0x0000000080801ff0                show_regs
 .text.do_undefined_instruction
                0x0000000080802174       0x28 arch/arm/lib/built-in.o
                0x0000000080802174                do_undefined_instruction
 .text.do_software_interrupt
                0x000000008080219c       0x28 arch/arm/lib/built-in.o
                0x000000008080219c                do_software_interrupt
 .text.do_prefetch_abort
                0x00000000808021c4       0x28 arch/arm/lib/built-in.o
                0x00000000808021c4                do_prefetch_abort
 .text.do_data_abort
                0x00000000808021ec       0x28 arch/arm/lib/built-in.o
                0x00000000808021ec                do_data_abort
 .text.do_not_used
                0x0000000080802214       0x28 arch/arm/lib/built-in.o
                0x0000000080802214                do_not_used
 .text.do_fiq   0x000000008080223c       0x28 arch/arm/lib/built-in.o
                0x000000008080223c                do_fiq
 .text.do_irq   0x0000000080802264       0x28 arch/arm/lib/built-in.o
                0x0000000080802264                do_irq
 .text.reset_misc
                0x000000008080228c        0x2 arch/arm/lib/built-in.o
                0x000000008080228c                reset_misc
 *fill*         0x000000008080228e        0x2 
 .text.do_reset
                0x0000000080802290       0x28 arch/arm/lib/built-in.o
                0x0000000080802290                do_reset
 .text.flush_cache
                0x00000000808022b8        0x6 arch/arm/lib/built-in.o
                0x00000000808022b8                flush_cache
 *fill*         0x00000000808022be        0x2 
 .text.check_cache_range
                0x00000000808022c0       0x20 arch/arm/lib/built-in.o
                0x00000000808022c0                check_cache_range
 .text.arm_reserve_mmu
                0x00000000808022e0       0x2e arch/arm/lib/built-in.o
                0x00000000808022e0                arm_reserve_mmu
 .text.arch_reserve_mmu
                0x000000008080230e        0x4 arch/arm/lib/built-in.o
                0x000000008080230e                arch_reserve_mmu
 .text.set_section_dcache
                0x0000000080802312       0x12 arch/arm/lib/built-in.o
                0x0000000080802312                set_section_dcache
 .text.icache_enable
                0x0000000080802324       0x12 arch/arm/lib/built-in.o
                0x0000000080802324                icache_enable
 .text.icache_disable
                0x0000000080802336       0x16 arch/arm/lib/built-in.o
                0x0000000080802336                icache_disable
 .text.icache_status
                0x000000008080234c        0xa arch/arm/lib/built-in.o
                0x000000008080234c                icache_status
 .text.dcache_enable
                0x0000000080802356       0x80 arch/arm/lib/built-in.o
                0x0000000080802356                dcache_enable
 .text.dcache_disable
                0x00000000808023d6       0x20 arch/arm/lib/built-in.o
                0x00000000808023d6                dcache_disable
 .text.dcache_status
                0x00000000808023f6        0xa arch/arm/lib/built-in.o
                0x00000000808023f6                dcache_status
 .text          0x0000000080802400       0x60 arch/arm/mach-omap2/built-in.o
                0x0000000080802400                save_boot_params
                0x000000008080240c                omap_smc1
                0x0000000080802428                omap_smc_sec
 .text.get_cpu_rev
                0x0000000080802460       0x10 arch/arm/mach-omap2/built-in.o
                0x0000000080802460                get_cpu_rev
 .text.get_cpu_type
                0x0000000080802470       0x14 arch/arm/mach-omap2/built-in.o
                0x0000000080802470                get_cpu_type
 .text.print_cpuinfo
                0x0000000080802484       0x90 arch/arm/mach-omap2/built-in.o
                0x0000000080802484                print_cpuinfo
 .text.dram_init
                0x0000000080802514       0x16 arch/arm/mach-omap2/built-in.o
                0x0000000080802514                dram_init
 .text.dram_init_banksize
                0x000000008080252a       0x18 arch/arm/mach-omap2/built-in.o
                0x000000008080252a                dram_init_banksize
 .text.arch_misc_init
                0x0000000080802542       0x1a arch/arm/mach-omap2/built-in.o
                0x0000000080802542                arch_misc_init
 .text.arch_cpu_init_dm
                0x000000008080255c        0xa arch/arm/mach-omap2/built-in.o
                0x000000008080255c                arch_cpu_init_dm
 *fill*         0x0000000080802566        0x2 
 .text.hw_data_init
                0x0000000080802568       0x14 arch/arm/mach-omap2/built-in.o
                0x0000000080802568                hw_data_init
 .text.clk_synthesizer_reg_write
                0x000000008080257c       0x30 arch/arm/mach-omap2/built-in.o
 .text.setup_clock_synthesizer
                0x00000000808025ac       0x90 arch/arm/mach-omap2/built-in.o
                0x00000000808025ac                setup_clock_synthesizer
 .text.reset_cpu
                0x000000008080263c       0x10 arch/arm/mach-omap2/built-in.o
                0x000000008080263c                reset_cpu
 .text.get_device_type
                0x000000008080264c       0x18 arch/arm/mach-omap2/built-in.o
                0x000000008080264c                get_device_type
 .text.enable_caches
                0x0000000080802664       0x14 arch/arm/mach-omap2/built-in.o
                0x0000000080802664                enable_caches
 .text.dram_bank_mmu_setup
                0x0000000080802678       0x28 arch/arm/mach-omap2/built-in.o
                0x0000000080802678                dram_bank_mmu_setup
 .text.arm_init_domains
                0x00000000808026a0       0x16 arch/arm/mach-omap2/built-in.o
                0x00000000808026a0                arm_init_domains
 .text.enable_gpmc_cs_config
                0x00000000808026b6       0x6c arch/arm/mach-omap2/built-in.o
                0x00000000808026b6                enable_gpmc_cs_config
 *fill*         0x0000000080802722        0x2 
 .text.set_gpmc_cs0
                0x0000000080802724       0x4c arch/arm/mach-omap2/built-in.o
                0x0000000080802724                set_gpmc_cs0
 .text.gpmc_init
                0x0000000080802770       0x50 arch/arm/mach-omap2/built-in.o
                0x0000000080802770                gpmc_init
 .text.board_ti_is
                0x00000000808027c0       0x30 board/ti/common/built-in.o
                0x00000000808027c0                board_ti_is
 .text.board_ti_get_rev
                0x00000000808027f0        0x8 board/ti/common/built-in.o
                0x00000000808027f0                board_ti_get_rev
 .text.set_board_info_env
                0x00000000808027f8       0x64 board/ti/common/built-in.o
                0x00000000808027f8                set_board_info_env
 .text.do_go_exec
                0x000000008080285c        0x8 cmd/built-in.o
                0x000000008080285c                do_go_exec
 .text.do_go    0x0000000080802864       0x4c cmd/built-in.o
 .text.do_bootm
                0x00000000808028b0       0xa0 cmd/built-in.o
                0x00000000808028b0                do_bootm
 .text.do_bootd
                0x0000000080802950       0x18 cmd/built-in.o
                0x0000000080802950                do_bootd
 .text.image_info
                0x0000000080802968       0xd8 cmd/built-in.o
 .text.do_iminfo
                0x0000000080802a40       0x3c cmd/built-in.o
 .text.bootm_maybe_autostart
                0x0000000080802a7c       0x4c cmd/built-in.o
                0x0000000080802a7c                bootm_maybe_autostart
 .text.do_help  0x0000000080802ac8       0x2c cmd/built-in.o
 .text.do_panic
                0x0000000080802af4       0x14 cmd/built-in.o
 .text.do_version
                0x0000000080802b08       0x30 cmd/built-in.o
 .text.blk_common_cmd
                0x0000000080802b38      0x200 cmd/built-in.o
                0x0000000080802b38                blk_common_cmd
 .text.image_source_script
                0x0000000080802d38      0x13c cmd/built-in.o
                0x0000000080802d38                image_source_script
 .text.do_source
                0x0000000080802e74       0x50 cmd/built-in.o
 .text.bdinfo_print_num
                0x0000000080802ec4       0x10 cmd/built-in.o
                0x0000000080802ec4                bdinfo_print_num
 .text.do_bdinfo
                0x0000000080802ed4      0x154 cmd/built-in.o
                0x0000000080802ed4                do_bdinfo
 .text.do_blkcache
                0x0000000080803028       0x3c cmd/built-in.o
 .text.blkc_configure
                0x0000000080803064       0x40 cmd/built-in.o
 .text.blkc_show
                0x00000000808030a4       0x28 cmd/built-in.o
 .text.efi_reserve_memory
                0x00000000808030cc       0x34 cmd/built-in.o
 .text.do_bootefi_exec
                0x0000000080803100       0x54 cmd/built-in.o
 .text.efi_install_fdt
                0x0000000080803154      0x264 cmd/built-in.o
                0x0000000080803154                efi_install_fdt
 .text.efi_run_image
                0x00000000808033b8      0x10c cmd/built-in.o
                0x00000000808033b8                efi_run_image
 .text.do_bootefi
                0x00000000808034c4       0xb4 cmd/built-in.o
 .text.efi_set_bootdev
                0x0000000080803578       0x68 cmd/built-in.o
                0x0000000080803578                efi_set_bootdev
 .text.do_bootz
                0x00000000808035e0       0xb0 cmd/built-in.o
                0x00000000808035e0                do_bootz
 .text.do_coninfo
                0x0000000080803690       0x94 cmd/built-in.o
 .text.do_dm_dump_devres
                0x0000000080803724        0x4 cmd/built-in.o
 .text.do_dm    0x0000000080803728       0x44 cmd/built-in.o
 .text.do_dm_dump_static_driver_info
                0x000000008080376c        0xa cmd/built-in.o
 .text.do_dm_dump_driver_compat
                0x0000000080803776        0xa cmd/built-in.o
 .text.do_dm_dump_drivers
                0x0000000080803780        0xa cmd/built-in.o
 .text.do_dm_dump_uclass
                0x000000008080378a        0xa cmd/built-in.o
 .text.do_dm_dump_all
                0x0000000080803794        0xa cmd/built-in.o
 *fill*         0x000000008080379e        0x2 
 .text.do_echo  0x00000000808037a0       0x80 cmd/built-in.o
 .text.parse_numeric_param
                0x0000000080803820       0x1c cmd/built-in.o
 .text.parse_i2c_bus_addr
                0x000000008080383c       0x42 cmd/built-in.o
 *fill*         0x000000008080387e        0x2 
 .text.eeprom_rw
                0x0000000080803880       0xa0 cmd/built-in.o
 .text.eeprom_write_enable
                0x0000000080803920        0x4 cmd/built-in.o
                0x0000000080803920                eeprom_write_enable
 .text.eeprom_read
                0x0000000080803924        0xe cmd/built-in.o
                0x0000000080803924                eeprom_read
 .text.eeprom_write
                0x0000000080803932       0x38 cmd/built-in.o
                0x0000000080803932                eeprom_write
 *fill*         0x000000008080396a        0x2 
 .text.do_eeprom
                0x000000008080396c       0xdc cmd/built-in.o
                0x000000008080396c                do_eeprom
 .text.do_bootelf
                0x0000000080803a48       0xd0 cmd/built-in.o
                0x0000000080803a48                do_bootelf
 .text.do_bootvx
                0x0000000080803b18      0x230 cmd/built-in.o
                0x0000000080803b18                do_bootvx
 .text.do_exit  0x0000000080803d48       0x20 cmd/built-in.o
 .text.do_ext4_size
                0x0000000080803d68        0xe cmd/built-in.o
                0x0000000080803d68                do_ext4_size
 .text.do_ext4_load
                0x0000000080803d76        0xe cmd/built-in.o
                0x0000000080803d76                do_ext4_load
 .text.do_ext4_ls
                0x0000000080803d84        0xe cmd/built-in.o
                0x0000000080803d84                do_ext4_ls
 .text.do_ext4_write
                0x0000000080803d92        0xe cmd/built-in.o
                0x0000000080803d92                do_ext4_write
 .text.do_ext2load
                0x0000000080803da0        0xe cmd/built-in.o
                0x0000000080803da0                do_ext2load
 .text.do_ext2ls
                0x0000000080803dae        0xe cmd/built-in.o
 .text.do_fat_size
                0x0000000080803dbc        0xe cmd/built-in.o
                0x0000000080803dbc                do_fat_size
 .text.do_fat_fsload
                0x0000000080803dca        0xe cmd/built-in.o
                0x0000000080803dca                do_fat_fsload
 .text.do_fat_ls
                0x0000000080803dd8        0xe cmd/built-in.o
 *fill*         0x0000000080803de6        0x2 
 .text.do_fat_fsinfo
                0x0000000080803de8       0x54 cmd/built-in.o
 .text.do_fat_fswrite
                0x0000000080803e3c        0xe cmd/built-in.o
 .text.do_fat_rm
                0x0000000080803e4a        0xe cmd/built-in.o
 .text.do_fat_mkdir
                0x0000000080803e58        0xe cmd/built-in.o
 *fill*         0x0000000080803e66        0x2 
 .text.fdt_valid
                0x0000000080803e68       0x74 cmd/built-in.o
 .text.is_printable_string
                0x0000000080803edc       0x4c cmd/built-in.o
 .text.print_data.part.0
                0x0000000080803f28      0x11c cmd/built-in.o
 .text.set_working_fdt_addr
                0x0000000080804044       0x14 cmd/built-in.o
                0x0000000080804044                set_working_fdt_addr
 .text.do_fdt   0x0000000080804058      0xb04 cmd/built-in.o
 .text.do_size_wrapper
                0x0000000080804b5c        0xe cmd/built-in.o
 .text.do_load_wrapper
                0x0000000080804b6a        0xe cmd/built-in.o
 .text.do_save_wrapper
                0x0000000080804b78        0xe cmd/built-in.o
 .text.do_ls_wrapper
                0x0000000080804b86        0xe cmd/built-in.o
 .text.do_ln_wrapper
                0x0000000080804b94        0xe cmd/built-in.o
 .text.do_fstype_wrapper
                0x0000000080804ba2        0x4 cmd/built-in.o
 .text.do_fstypes_wrapper
                0x0000000080804ba6        0x4 cmd/built-in.o
 *fill*         0x0000000080804baa        0x2 
 .text.gpio_get_description
                0x0000000080804bac       0x84 cmd/built-in.o
 .text.do_gpio  0x0000000080804c30      0x244 cmd/built-in.o
 .text.do_i2c   0x0000000080804e74       0x3c cmd/built-in.o
 .text.i2c_get_cur_bus
                0x0000000080804eb0       0x24 cmd/built-in.o
 .text.do_i2c_bus_speed
                0x0000000080804ed4       0x64 cmd/built-in.o
 .text.do_i2c_reset
                0x0000000080804f38       0x24 cmd/built-in.o
 .text.i2c_get_cur_bus_chip
                0x0000000080804f5c       0x1e cmd/built-in.o
 *fill*         0x0000000080804f7a        0x2 
 .text.do_i2c_probe
                0x0000000080804f7c       0x74 cmd/built-in.o
 .text.do_i2c_bus_num
                0x0000000080804ff0       0x70 cmd/built-in.o
 .text.show_bus
                0x0000000080805060       0x64 cmd/built-in.o
 .text.do_i2c_olen
                0x00000000808050c4       0x74 cmd/built-in.o
 .text.do_i2c_flags
                0x0000000080805138       0x78 cmd/built-in.o
 .text.do_i2c_show_bus
                0x00000000808051b0       0x6c cmd/built-in.o
 .text.get_alen.constprop.0
                0x000000008080521c       0x1e cmd/built-in.o
 *fill*         0x000000008080523a        0x2 
 .text.do_i2c_crc
                0x000000008080523c       0xe0 cmd/built-in.o
 .text.mod_i2c_mem.isra.0.part.0
                0x000000008080531c      0x158 cmd/built-in.o
 .text.do_i2c_nm
                0x0000000080805474       0x12 cmd/built-in.o
 *fill*         0x0000000080805486        0x2 
 .text.do_i2c_md
                0x0000000080805488      0x16c cmd/built-in.o
 .text.do_i2c_read
                0x00000000808055f4       0x90 cmd/built-in.o
 .text.do_i2c_mw
                0x0000000080805684       0xbc cmd/built-in.o
 .text.do_i2c_write
                0x0000000080805740      0x104 cmd/built-in.o
 .text.do_i2c_loop
                0x0000000080805844       0xc0 cmd/built-in.o
 .text.do_i2c_mm
                0x0000000080805904       0x12 cmd/built-in.o
 .text.evalexp  0x0000000080805916       0x4c cmd/built-in.o
 .text.evalstr  0x0000000080805962       0x3c cmd/built-in.o
 *fill*         0x000000008080599e        0x2 
 .text.binary_test
                0x00000000808059a0       0xf4 cmd/built-in.o
 .text.do_itest
                0x0000000080805a94       0x4c cmd/built-in.o
 .text.bin_data_init
                0x0000000080805ae0       0x1c cmd/built-in.o
 .text.k_data_save
                0x0000000080805afc       0x34 cmd/built-in.o
 .text.k_data_restore
                0x0000000080805b30       0x34 cmd/built-in.o
 .text.getcxmodem
                0x0000000080805b64       0x16 cmd/built-in.o
 *fill*         0x0000000080805b7a        0x2 
 .text.load_serial_ymodem
                0x0000000080805b7c       0x90 cmd/built-in.o
 .text.bin_data_char
                0x0000000080805c0c       0x1c cmd/built-in.o
 .text.chk1.constprop.0
                0x0000000080805c28       0x20 cmd/built-in.o
 .text.s1_sendpacket.constprop.0
                0x0000000080805c48       0x34 cmd/built-in.o
 .text.load_serial
                0x0000000080805c7c      0x124 cmd/built-in.o
 .text.do_load_serial
                0x0000000080805da0       0x8c cmd/built-in.o
 .text.do_load_serial_bin
                0x0000000080805e2c      0x528 cmd/built-in.o
 .text.do_mem_md
                0x0000000080806354       0xa0 cmd/built-in.o
 .text.do_mem_base
                0x00000000808063f4       0x28 cmd/built-in.o
 .text.do_mem_crc
                0x000000008080641c       0x2c cmd/built-in.o
 .text.do_random
                0x0000000080806448       0x98 cmd/built-in.o
 .text.do_mem_loop
                0x00000000808064e0       0x9e cmd/built-in.o
 *fill*         0x000000008080657e        0x2 
 .text.mod_mem.isra.0.part.0
                0x0000000080806580       0xfc cmd/built-in.o
 .text.do_mem_mm
                0x000000008080667c       0x12 cmd/built-in.o
 *fill*         0x000000008080668e        0x2 
 .text.do_mem_mw
                0x0000000080806690       0x7c cmd/built-in.o
 .text.do_mem_cp
                0x000000008080670c       0x70 cmd/built-in.o
 .text.do_mem_cmp
                0x000000008080677c      0x104 cmd/built-in.o
 .text.do_mem_nm
                0x0000000080806880       0x12 cmd/built-in.o
 .text.extract_range
                0x0000000080806892       0x7a cmd/built-in.o
 .text.dump_field
                0x000000008080690c       0x3c cmd/built-in.o
 .text.do_mii   0x0000000080806948      0x5b4 cmd/built-in.o
 .text.do_mdio  0x0000000080806efc      0x4b0 cmd/built-in.o
 .text.do_sleep
                0x00000000808073ac       0x84 cmd/built-in.o
 .text.do_mmcops
                0x0000000080807430       0x84 cmd/built-in.o
 .text.do_mmc_list
                0x00000000808074b4        0xc cmd/built-in.o
 .text.print_mmcinfo
                0x00000000808074c0      0x2dc cmd/built-in.o
 .text.do_mmc_setdsr
                0x000000008080779c       0x70 cmd/built-in.o
 .text.__init_mmc_device.isra.0
                0x000000008080780c       0x48 cmd/built-in.o
 .text.do_mmc_dev
                0x0000000080807854       0xfc cmd/built-in.o
 .text.do_mmc_rescan
                0x0000000080807950       0x34 cmd/built-in.o
 .text.do_mmc_boot_wp
                0x0000000080807984       0x40 cmd/built-in.o
 .text.do_mmcinfo
                0x00000000808079c4       0x3c cmd/built-in.o
 .text.do_mmc_part
                0x0000000080807a00       0x38 cmd/built-in.o
 .text.do_mmc_erase
                0x0000000080807a38       0x9c cmd/built-in.o
 .text.do_mmc_write
                0x0000000080807ad4       0xb0 cmd/built-in.o
 .text.do_mmc_read
                0x0000000080807b84       0x9c cmd/built-in.o
 .text.part_delall
                0x0000000080807c20       0x26 cmd/built-in.o
 .text.memsize_parse
                0x0000000080807c46       0x4a cmd/built-in.o
 .text.mtd_part_info
                0x0000000080807c90       0x6c cmd/built-in.o
 .text.env_get_mtdparts
                0x0000000080807cfc       0x30 cmd/built-in.o
 .text.memsize_format
                0x0000000080807d2c       0x60 cmd/built-in.o
 .text.index_partitions
                0x0000000080807d8c       0x6c cmd/built-in.o
 .text.current_save
                0x0000000080807df8       0x84 cmd/built-in.o
 .text.part_sort_add
                0x0000000080807e7c       0xbc cmd/built-in.o
 .text.device_del
                0x0000000080807f38       0x50 cmd/built-in.o
 .text.generate_mtdparts_save.constprop.0
                0x0000000080807f88      0x1b0 cmd/built-in.o
 .text.device_delall.constprop.0
                0x0000000080808138       0x3c cmd/built-in.o
 .text.mtd_devices_init
                0x0000000080808174       0x20 cmd/built-in.o
 .text.get_mtd_info.constprop.0
                0x0000000080808194       0x68 cmd/built-in.o
 .text.part_validate
                0x00000000808081fc      0x264 cmd/built-in.o
 .text.device_find
                0x0000000080808460       0x28 cmd/built-in.o
                0x0000000080808460                device_find
 .text.device_parse
                0x0000000080808488      0x310 cmd/built-in.o
 .text.mtd_id_parse
                0x0000000080808798       0xbc cmd/built-in.o
                0x0000000080808798                mtd_id_parse
 .text.find_dev_and_part
                0x0000000080808854      0x12c cmd/built-in.o
                0x0000000080808854                find_dev_and_part
 .text.mtdparts_init
                0x0000000080808980      0x448 cmd/built-in.o
                0x0000000080808980                mtdparts_init
 .text.do_chpart
                0x0000000080808dc8       0x94 cmd/built-in.o
 .text.do_mtdparts
                0x0000000080808e5c      0x3ec cmd/built-in.o
 .text.mtd_arg_off
                0x0000000080809248       0xa4 cmd/built-in.o
                0x0000000080809248                mtd_arg_off
 .text.mtd_arg_off_size
                0x00000000808092ec       0xc4 cmd/built-in.o
                0x00000000808092ec                mtd_arg_off_size
 .text.set_dev  0x00000000808093b0       0x3c cmd/built-in.o
 .text.nand_load_image
                0x00000000808093ec      0x164 cmd/built-in.o
 .text.do_nandboot
                0x0000000080809550      0x158 cmd/built-in.o
 .text.nand_print_and_set_info.constprop.0
                0x00000000808096a8       0xb4 cmd/built-in.o
 .text.do_nand  0x000000008080975c      0x860 cmd/built-in.o
 .text.netboot_common
                0x0000000080809fbc      0x1ec cmd/built-in.o
 .text.do_bootp
                0x000000008080a1a8        0x8 cmd/built-in.o
 .text.do_dhcp  0x000000008080a1b0        0x8 cmd/built-in.o
 .text.do_nfs   0x000000008080a1b8        0x8 cmd/built-in.o
 .text.do_tftpb
                0x000000008080a1c0       0x26 cmd/built-in.o
                0x000000008080a1c0                do_tftpb
 *fill*         0x000000008080a1e6        0x2 
 .text.do_ping  0x000000008080a1e8       0x48 cmd/built-in.o
 .text.do_part_list
                0x000000008080a230       0xf0 cmd/built-in.o
 .text.do_part_info
                0x000000008080a320       0xb4 cmd/built-in.o
 .text.do_part  0x000000008080a3d4      0x134 cmd/built-in.o
 .text.do_pxe   0x000000008080a508       0x48 cmd/built-in.o
 .text.do_pxe_boot
                0x000000008080a550       0x94 cmd/built-in.o
 .text.do_get_tftp
                0x000000008080a5e4       0x2c cmd/built-in.o
 .text.do_pxe_get
                0x000000008080a610       0xec cmd/built-in.o
 .text.eol_or_eof
                0x000000008080a6fc       0x12 cmd/built-in.o
 *fill*         0x000000008080a70e        0x2 
 .text.label_print
                0x000000008080a710       0x14 cmd/built-in.o
 .text.label_destroy
                0x000000008080a724       0x46 cmd/built-in.o
 *fill*         0x000000008080a76a        0x2 
 .text.get_string
                0x000000008080a76c       0x74 cmd/built-in.o
 .text.get_token
                0x000000008080a7e0       0x98 cmd/built-in.o
 .text.parse_sliteral
                0x000000008080a878       0x34 cmd/built-in.o
 .text.parse_integer
                0x000000008080a8ac       0x44 cmd/built-in.o
 .text.get_relfile
                0x000000008080a8f0       0xd4 cmd/built-in.o
 .text.get_relfile_envaddr
                0x000000008080a9c4       0x34 cmd/built-in.o
 .text.format_mac_pxe
                0x000000008080a9f8       0x68 cmd/built-in.o
                0x000000008080a9f8                format_mac_pxe
 .text.label_boot
                0x000000008080aa60      0x428 cmd/built-in.o
 .text.get_pxe_file
                0x000000008080ae88       0x3c cmd/built-in.o
                0x000000008080ae88                get_pxe_file
 .text.handle_include
                0x000000008080aec4       0x68 cmd/built-in.o
 .text.parse_pxefile_top
                0x000000008080af2c      0x344 cmd/built-in.o
 .text.get_pxelinux_path
                0x000000008080b270       0x58 cmd/built-in.o
                0x000000008080b270                get_pxelinux_path
 .text.destroy_pxe_menu
                0x000000008080b2c8       0x36 cmd/built-in.o
                0x000000008080b2c8                destroy_pxe_menu
 .text.parse_pxefile
                0x000000008080b2fe       0x42 cmd/built-in.o
                0x000000008080b2fe                parse_pxefile
 .text.handle_pxe_menu
                0x000000008080b340       0xf4 cmd/built-in.o
                0x000000008080b340                handle_pxe_menu
 .text.bytes_per_second
                0x000000008080b434       0x34 cmd/built-in.o
 .text.do_spi_flash
                0x000000008080b468      0x59c cmd/built-in.o
 .text.do_spi   0x000000008080ba04      0x1e4 cmd/built-in.o
                0x000000008080ba04                do_spi
 .text.do_sysboot
                0x000000008080bbe8      0x13c cmd/built-in.o
 .text.do_get_any
                0x000000008080bd24       0x2c cmd/built-in.o
 .text.do_get_fat
                0x000000008080bd50       0x28 cmd/built-in.o
 .text.do_get_ext2
                0x000000008080bd78       0x28 cmd/built-in.o
 .text.do_time  0x000000008080bda0       0x9c cmd/built-in.o
 .text.do_false
                0x000000008080be3c        0x4 cmd/built-in.o
 .text.do_true  0x000000008080be40        0x4 cmd/built-in.o
 .text.do_test  0x000000008080be44      0x200 cmd/built-in.o
 .text.usb_get_class_desc
                0x000000008080c044       0x74 cmd/built-in.o
 .text.usb_display_class_sub
                0x000000008080c0b8       0xf8 cmd/built-in.o
 .text.usb_display_desc
                0x000000008080c1b0       0xf8 cmd/built-in.o
 .text.usb_show_tree_graph
                0x000000008080c2a8      0x178 cmd/built-in.o
 .text.usb_show_subtree
                0x000000008080c420       0x1c cmd/built-in.o
 .text.usb_for_each_root_dev
                0x000000008080c43c       0x3c cmd/built-in.o
 .text.usb_display_string
                0x000000008080c478       0x2c cmd/built-in.o
 .text.usb_display_config
                0x000000008080c4a4      0x1ac cmd/built-in.o
 .text.usb_show_info
                0x000000008080c650       0x4a cmd/built-in.o
 .text.usb_find_device
                0x000000008080c69a       0x64 cmd/built-in.o
 *fill*         0x000000008080c6fe        0x2 
 .text.do_usbboot
                0x000000008080c700        0xc cmd/built-in.o
 .text.do_usb_start
                0x000000008080c70c       0x20 cmd/built-in.o
 .text.usb_show_tree
                0x000000008080c72c        0xc cmd/built-in.o
                0x000000008080c72c                usb_show_tree
 .text.do_usb   0x000000008080c738      0x294 cmd/built-in.o
 .text.common_diskboot
                0x000000008080c9cc      0x1bc cmd/built-in.o
                0x000000008080c9cc                common_diskboot
 .text.do_fastboot
                0x000000008080cb88      0x104 cmd/built-in.o
 .text.do_imgextract
                0x000000008080cc8c      0x294 cmd/built-in.o
 .text.do_spl   0x000000008080cf20      0x144 cmd/built-in.o
 .text.do_dfu   0x000000008080d064       0xac cmd/built-in.o
 .text.extract_val
                0x000000008080d110       0x58 cmd/built-in.o
 .text.extract_env
                0x000000008080d168       0xa0 cmd/built-in.o
 .text.set_gpt_info.isra.0.constprop.0
                0x000000008080d208      0x350 cmd/built-in.o
 .text.do_gpt   0x000000008080d558      0x208 cmd/built-in.o
 .text.do_env_delete
                0x000000008080d760       0x6c cmd/built-in.o
 .text.do_env_save
                0x000000008080d7cc        0xe cmd/built-in.o
 *fill*         0x000000008080d7da        0x2 
 .text.do_env   0x000000008080d7dc       0x3c cmd/built-in.o
 .text.env_print
                0x000000008080d818       0x78 cmd/built-in.o
 .text.do_env_print
                0x000000008080d890       0x7c cmd/built-in.o
 .text.do_env_import
                0x000000008080d90c      0x1a4 cmd/built-in.o
 .text.do_env_default
                0x000000008080dab0       0x5c cmd/built-in.o
 .text.do_env_exists
                0x000000008080db0c       0x40 cmd/built-in.o
 .text._do_env_set.isra.0
                0x000000008080db4c      0x120 cmd/built-in.o
 .text.do_env_set
                0x000000008080dc6c       0x14 cmd/built-in.o
 .text.do_env_ask
                0x000000008080dc80       0xfc cmd/built-in.o
                0x000000008080dc80                do_env_ask
 .text.env_get_id
                0x000000008080dd7c        0xc cmd/built-in.o
                0x000000008080dd7c                env_get_id
 .text.env_set  0x000000008080dd88       0x3c cmd/built-in.o
                0x000000008080dd88                env_set
 .text.env_set_ulong
                0x000000008080ddc4       0x16 cmd/built-in.o
                0x000000008080ddc4                env_set_ulong
 *fill*         0x000000008080ddda        0x2 
 .text.env_set_hex
                0x000000008080dddc       0x20 cmd/built-in.o
                0x000000008080dddc                env_set_hex
 .text.do_env_export
                0x000000008080ddfc      0x14c cmd/built-in.o
 .text.env_match
                0x000000008080df48       0x48 cmd/built-in.o
                0x000000008080df48                env_match
 .text.env_get_f
                0x000000008080df90       0x84 cmd/built-in.o
                0x000000008080df90                env_get_f
 .text.env_get  0x000000008080e014       0x54 cmd/built-in.o
                0x000000008080e014                env_get
 .text.env_get_hex
                0x000000008080e068       0x20 cmd/built-in.o
                0x000000008080e068                env_get_hex
 .text.eth_env_get_enetaddr
                0x000000008080e088       0x34 cmd/built-in.o
                0x000000008080e088                eth_env_get_enetaddr
 .text.eth_env_set_enetaddr
                0x000000008080e0bc       0x30 cmd/built-in.o
                0x000000008080e0bc                eth_env_set_enetaddr
 .text.from_env
                0x000000008080e0ec       0x1c cmd/built-in.o
                0x000000008080e0ec                from_env
 .text.env_get_ulong
                0x000000008080e108       0x1c cmd/built-in.o
                0x000000008080e108                env_get_ulong
 .text.do_env_edit.part.0
                0x000000008080e124       0x70 cmd/built-in.o
 .text.do_env_edit
                0x000000008080e194       0x1c cmd/built-in.o
 .text.board_init_f_alloc_reserve
                0x000000008080e1b0        0xc common/built-in.o
                0x000000008080e1b0                board_init_f_alloc_reserve
 .text.board_init_f_init_reserve
                0x000000008080e1bc       0x14 common/built-in.o
                0x000000008080e1bc                board_init_f_init_reserve
 .text.show_boot_progress
                0x000000008080e1d0        0x2 common/built-in.o
                0x000000008080e1d0                show_boot_progress
 *fill*         0x000000008080e1d2        0x2 
 .text.main_loop
                0x000000008080e1d4       0x44 common/built-in.o
                0x000000008080e1d4                main_loop
 .text.mdelay   0x000000008080e218        0xa common/built-in.o
 .text.dummy    0x000000008080e222        0x2 common/built-in.o
 .text.get_version
                0x000000008080e224        0x4 common/built-in.o
                0x000000008080e224                get_version
 .text.jumptable_init
                0x000000008080e228      0x170 common/built-in.o
                0x000000008080e228                jumptable_init
 .text.hash_finish_crc32
                0x000000008080e398       0x1c common/built-in.o
 .text.hash_finish_crc16_ccitt
                0x000000008080e3b4       0x1c common/built-in.o
 .text.hash_update_crc32
                0x000000008080e3d0       0x14 common/built-in.o
 .text.hash_init_crc32
                0x000000008080e3e4       0x14 common/built-in.o
 .text.hash_init_crc16_ccitt
                0x000000008080e3f8       0x14 common/built-in.o
 .text.hash_update_crc16_ccitt
                0x000000008080e40c       0x14 common/built-in.o
 .text.hash_finish_sha256
                0x000000008080e420       0x22 common/built-in.o
 .text.hash_update_sha256
                0x000000008080e442       0x10 common/built-in.o
 .text.hash_init_sha256
                0x000000008080e452       0x16 common/built-in.o
 .text.hash_finish_sha1
                0x000000008080e468       0x22 common/built-in.o
 .text.hash_update_sha1
                0x000000008080e48a       0x10 common/built-in.o
 .text.hash_init_sha1
                0x000000008080e49a       0x16 common/built-in.o
 .text.hash_lookup_algo
                0x000000008080e4b0       0x38 common/built-in.o
                0x000000008080e4b0                hash_lookup_algo
 .text.hash_command
                0x000000008080e4e8      0x130 common/built-in.o
                0x000000008080e4e8                hash_command
 .text.b_reset  0x000000008080e618        0xe common/built-in.o
 .text.static_get
                0x000000008080e626       0x12 common/built-in.o
 .text.static_peek
                0x000000008080e638        0x6 common/built-in.o
 *fill*         0x000000008080e63e        0x2 
 .text.mapset   0x000000008080e640       0x14 common/built-in.o
 .text.free_pipe_list
                0x000000008080e654       0x90 common/built-in.o
 .text.syntax_err
                0x000000008080e6e4        0xc common/built-in.o
 .text.xmalloc  0x000000008080e6f0       0x18 common/built-in.o
 .text.new_pipe
                0x000000008080e708       0x16 common/built-in.o
 *fill*         0x000000008080e71e        0x2 
 .text.xrealloc
                0x000000008080e720       0x18 common/built-in.o
 .text.done_command
                0x000000008080e738       0x42 common/built-in.o
 .text.done_pipe
                0x000000008080e77a       0x2c common/built-in.o
 *fill*         0x000000008080e7a6        0x2 
 .text.done_word
                0x000000008080e7a8      0x1c0 common/built-in.o
 .text.is_assignment
                0x000000008080e968       0x30 common/built-in.o
 .text.file_get
                0x000000008080e998      0x138 common/built-in.o
 .text.do_showvar
                0x000000008080ead0       0xa0 common/built-in.o
 .text.b_addchr
                0x000000008080eb70       0x42 common/built-in.o
 *fill*         0x000000008080ebb2        0x2 
 .text.b_addqchr
                0x000000008080ebb4       0x30 common/built-in.o
 .text.file_peek
                0x000000008080ebe4        0x6 common/built-in.o
 *fill*         0x000000008080ebea        0x2 
 .text.get_local_var
                0x000000008080ebec       0x58 common/built-in.o
                0x000000008080ebec                get_local_var
 .text.set_local_var
                0x000000008080ec44       0xf0 common/built-in.o
                0x000000008080ec44                set_local_var
 .text.insert_var_value_sub
                0x000000008080ed34      0x1bc common/built-in.o
 .text.parse_string_outer
                0x000000008080eef0       0x90 common/built-in.o
                0x000000008080eef0                parse_string_outer
 .text.run_list_real
                0x000000008080ef80      0x4dc common/built-in.o
 .text.parse_stream_outer
                0x000000008080f45c      0x424 common/built-in.o
 .text.parse_file_outer
                0x000000008080f880       0x2c common/built-in.o
                0x000000008080f880                parse_file_outer
 .text.u_boot_hush_start
                0x000000008080f8ac       0x30 common/built-in.o
                0x000000008080f8ac                u_boot_hush_start
 .text.bootdelay_process
                0x000000008080f8dc       0xfc common/built-in.o
                0x000000008080f8dc                bootdelay_process
 .text.autoboot_command
                0x000000008080f9d8       0xa8 common/built-in.o
                0x000000008080f9d8                autoboot_command
 .text.log_init
                0x000000008080fa80        0x8 common/built-in.o
 .text.display_text_info
                0x000000008080fa88        0x4 common/built-in.o
 .text.setup_mon_len
                0x000000008080fa8c       0x18 common/built-in.o
 .text.reserve_round_4k
                0x000000008080faa4       0x14 common/built-in.o
 .text.reserve_uboot
                0x000000008080fab8       0x30 common/built-in.o
 .text.setup_machine
                0x000000008080fae8        0xe common/built-in.o
 .text.checkcpu
                0x000000008080faf6        0x4 common/built-in.o
                0x000000008080faf6                checkcpu
 .text.init_func_watchdog_reset
                0x000000008080fafa        0xa common/built-in.o
                0x000000008080fafa                init_func_watchdog_reset
 .text.setup_reloc
                0x000000008080fb04       0x26 common/built-in.o
 .text.reloc_fdt
                0x000000008080fb2a       0x30 common/built-in.o
 .text.reserve_board
                0x000000008080fb5a       0x2c common/built-in.o
 *fill*         0x000000008080fb86        0x2 
 .text.announce_dram_init
                0x000000008080fb88       0x10 common/built-in.o
 .text.init_baud_rate
                0x000000008080fb98       0x1c common/built-in.o
 .text.initf_dm
                0x000000008080fbb4        0x6 common/built-in.o
 .text.initf_bootstage
                0x000000008080fbba        0xc common/built-in.o
 .text.clear_bss
                0x000000008080fbc6        0x4 common/built-in.o
                0x000000008080fbc6                clear_bss
 .text.setup_spl_handoff
                0x000000008080fbca        0x4 common/built-in.o
 .text.arch_cpu_init
                0x000000008080fbce        0x4 common/built-in.o
                0x000000008080fbce                arch_cpu_init
 .text.mach_cpu_init
                0x000000008080fbd2        0x4 common/built-in.o
                0x000000008080fbd2                mach_cpu_init
 .text.reserve_video
                0x000000008080fbd6        0x4 common/built-in.o
 .text.reserve_trace
                0x000000008080fbda        0x4 common/built-in.o
 .text.reserve_bootstage
                0x000000008080fbde        0x4 common/built-in.o
 .text.reserve_bloblist
                0x000000008080fbe2        0x4 common/built-in.o
 .text.display_new_sp
                0x000000008080fbe6        0x4 common/built-in.o
 .text.reloc_bootstage
                0x000000008080fbea        0x4 common/built-in.o
 .text.reloc_bloblist
                0x000000008080fbee        0x4 common/built-in.o
 .text.initf_console_record
                0x000000008080fbf2        0x4 common/built-in.o
 .text.reserve_arch
                0x000000008080fbf6        0x4 common/built-in.o
                0x000000008080fbf6                reserve_arch
 .text.init_func_watchdog_init
                0x000000008080fbfa        0xa common/built-in.o
 .text.reserve_malloc
                0x000000008080fc04       0x18 common/built-in.o
 .text.reserve_global_data
                0x000000008080fc1c       0x1a common/built-in.o
 .text.reserve_fdt
                0x000000008080fc36       0x3a common/built-in.o
 .text.coloured_LED_init
                0x000000008080fc70        0x2 common/built-in.o
                0x000000008080fc70                coloured_LED_init
 .text.red_led_on
                0x000000008080fc72        0x2 common/built-in.o
                0x000000008080fc72                red_led_on
 .text.board_add_ram_info
                0x000000008080fc74        0x2 common/built-in.o
                0x000000008080fc74                board_add_ram_info
 *fill*         0x000000008080fc76        0x2 
 .text.show_dram_config
                0x000000008080fc78       0x38 common/built-in.o
 .text.board_get_usable_ram_top
                0x000000008080fcb0       0x10 common/built-in.o
                0x000000008080fcb0                board_get_usable_ram_top
 .text.setup_dest_addr
                0x000000008080fcc0       0x30 common/built-in.o
 .text.reserve_stacks
                0x000000008080fcf0       0x12 common/built-in.o
 .text.arch_setup_bdinfo
                0x000000008080fd02        0x4 common/built-in.o
                0x000000008080fd02                arch_setup_bdinfo
 .text.setup_bdinfo
                0x000000008080fd06        0x8 common/built-in.o
                0x000000008080fd06                setup_bdinfo
 *fill*         0x000000008080fd0e        0x2 
 .text.board_init_f
                0x000000008080fd10       0x48 common/built-in.o
                0x000000008080fd10                board_init_f
 .text.initr_trace
                0x000000008080fd58        0x4 common/built-in.o
 .text.initr_reloc
                0x000000008080fd5c       0x14 common/built-in.o
 .text.run_main_loop
                0x000000008080fd70        0x8 common/built-in.o
 .text.initr_net
                0x000000008080fd78       0x14 common/built-in.o
 .text.initr_ethaddr
                0x000000008080fd8c       0x18 common/built-in.o
 .text.initr_jumptable
                0x000000008080fda4        0xa common/built-in.o
 *fill*         0x000000008080fdae        0x2 
 .text.initr_env
                0x000000008080fdb0       0x48 common/built-in.o
 .text.initr_mmc
                0x000000008080fdf8       0x18 common/built-in.o
 .text.initr_nand
                0x000000008080fe10       0x24 common/built-in.o
 .text.initr_dm
                0x000000008080fe34       0x16 common/built-in.o
 .text.initr_bootstage
                0x000000008080fe4a        0xc common/built-in.o
 *fill*         0x000000008080fe56        0x2 
 .text.initr_malloc
                0x000000008080fe58       0x1c common/built-in.o
 .text.initr_reloc_global_data
                0x000000008080fe74       0x38 common/built-in.o
 .text.initr_caches
                0x000000008080feac        0xa common/built-in.o
 .text.initr_barrier
                0x000000008080feb6        0x4 common/built-in.o
 .text.initr_console_record
                0x000000008080feba        0x4 common/built-in.o
 .text.initr_of_live
                0x000000008080febe        0x4 common/built-in.o
 .text.initr_dm_devices
                0x000000008080fec2        0x4 common/built-in.o
 .text.power_init_board
                0x000000008080fec6        0x4 common/built-in.o
                0x000000008080fec6                power_init_board
 .text.initr_announce
                0x000000008080feca        0x4 common/built-in.o
 .text.initr_binman
                0x000000008080fece        0x4 common/built-in.o
 .text.cpu_secondary_init_r
                0x000000008080fed2        0x2 common/built-in.o
                0x000000008080fed2                cpu_secondary_init_r
 .text.initr_secondary_cpu
                0x000000008080fed4        0xa common/built-in.o
 *fill*         0x000000008080fede        0x2 
 .text.board_init_r
                0x000000008080fee0       0x48 common/built-in.o
                0x000000008080fee0                board_init_r
 .text.bootm_find_images
                0x000000008080ff28       0xf8 common/built-in.o
                0x000000008080ff28                bootm_find_images
 .text.bootm_disable_interrupts
                0x0000000080810020       0x10 common/built-in.o
                0x0000000080810020                bootm_disable_interrupts
 .text.do_bootm_states
                0x0000000080810030      0x6c0 common/built-in.o
                0x0000000080810030                do_bootm_states
 .text.switch_to_non_secure_mode
                0x00000000808106f0        0x2 common/built-in.o
                0x00000000808106f0                switch_to_non_secure_mode
 .text.copy_args
                0x00000000808106f2       0x34 common/built-in.o
 *fill*         0x0000000080810726        0x2 
 .text.do_bootm_rtems
                0x0000000080810728       0x30 common/built-in.o
 .text.do_bootm_vxworks
                0x0000000080810758      0x160 common/built-in.o
                0x0000000080810758                do_bootm_vxworks
 .text.do_bootm_efi
                0x00000000808108b8       0x80 common/built-in.o
 .text.do_bootm_plan9
                0x0000000080810938       0x70 common/built-in.o
 .text.do_bootm_standalone
                0x00000000808109a8       0x40 common/built-in.o
 .text.do_bootm_qnxelf
                0x00000000808109e8       0x50 common/built-in.o
 .text.do_bootm_netbsd
                0x0000000080810a38       0xb0 common/built-in.o
 .text.arch_preboot_os
                0x0000000080810ae8        0x2 common/built-in.o
                0x0000000080810ae8                arch_preboot_os
 .text.board_preboot_os
                0x0000000080810aea        0x2 common/built-in.o
                0x0000000080810aea                board_preboot_os
 .text.boot_selected_os
                0x0000000080810aec       0x3e common/built-in.o
                0x0000000080810aec                boot_selected_os
 *fill*         0x0000000080810b2a        0x2 
 .text.bootm_os_get_boot_func
                0x0000000080810b2c        0xc common/built-in.o
                0x0000000080810b2c                bootm_os_get_boot_func
 .text.of_bus_default_map
                0x0000000080810b38       0x7a common/built-in.o
 .text.fdt_pack_reg
                0x0000000080810bb2       0x92 common/built-in.o
 .text.of_bus_default_translate
                0x0000000080810c44       0x66 common/built-in.o
 *fill*         0x0000000080810caa        0x2 
 .text.fdt_support_default_count_cells
                0x0000000080810cac       0x34 common/built-in.o
                0x0000000080810cac                fdt_support_default_count_cells
 .text.__of_translate_address
                0x0000000080810ce0      0x178 common/built-in.o
 .text.fdt_find_and_setprop
                0x0000000080810e58       0x48 common/built-in.o
                0x0000000080810e58                fdt_find_and_setprop
 .text.fdt_find_or_add_subnode
                0x0000000080810ea0       0x40 common/built-in.o
                0x0000000080810ea0                fdt_find_or_add_subnode
 .text.fdt_root
                0x0000000080810ee0       0x60 common/built-in.o
                0x0000000080810ee0                fdt_root
 .text.fdt_initrd
                0x0000000080810f40      0x114 common/built-in.o
                0x0000000080810f40                fdt_initrd
 .text.fdt_chosen
                0x0000000080811054       0x6c common/built-in.o
                0x0000000080811054                fdt_chosen
 .text.do_fixup_by_path
                0x00000000808110c0       0x34 common/built-in.o
                0x00000000808110c0                do_fixup_by_path
 .text.fdt_fixup_memory_banks
                0x00000000808110f4       0xe8 common/built-in.o
                0x00000000808110f4                fdt_fixup_memory_banks
 .text.fdt_fixup_memory
                0x00000000808111dc       0x16 common/built-in.o
                0x00000000808111dc                fdt_fixup_memory
 *fill*         0x00000000808111f2        0x2 
 .text.fdt_fixup_ethernet
                0x00000000808111f4      0x108 common/built-in.o
                0x00000000808111f4                fdt_fixup_ethernet
 .text.fdt_shrink_to_minimum
                0x00000000808112fc       0x8e common/built-in.o
                0x00000000808112fc                fdt_shrink_to_minimum
 *fill*         0x000000008081138a        0x2 
 .text.fdt_translate_address
                0x000000008081138c        0xc common/built-in.o
                0x000000008081138c                fdt_translate_address
 .text.fdt_overlay_apply_verbose
                0x0000000080811398       0x4c common/built-in.o
                0x0000000080811398                fdt_overlay_apply_verbose
 .text.miiphy_get_dev_by_name
                0x00000000808113e4       0x34 common/built-in.o
                0x00000000808113e4                miiphy_get_dev_by_name
 .text.miiphy_init
                0x0000000080811418       0x18 common/built-in.o
                0x0000000080811418                miiphy_init
 .text.mdio_alloc
                0x0000000080811430       0x1c common/built-in.o
                0x0000000080811430                mdio_alloc
 .text.mdio_free
                0x000000008081144c        0x4 common/built-in.o
                0x000000008081144c                mdio_free
 .text.mdio_register
                0x0000000080811450       0x4c common/built-in.o
                0x0000000080811450                mdio_register
 .text.mdio_list_devices
                0x000000008081149c       0x78 common/built-in.o
                0x000000008081149c                mdio_list_devices
 .text.miiphy_set_current_dev
                0x0000000080811514       0x28 common/built-in.o
                0x0000000080811514                miiphy_set_current_dev
 .text.miiphy_get_active_dev
                0x000000008081153c       0x30 common/built-in.o
 .text.mdio_get_current_dev
                0x000000008081156c        0xc common/built-in.o
                0x000000008081156c                mdio_get_current_dev
 .text.mdio_phydev_for_ethname
                0x0000000080811578       0x50 common/built-in.o
                0x0000000080811578                mdio_phydev_for_ethname
 .text.miiphy_get_current_dev
                0x00000000808115c8       0x10 common/built-in.o
                0x00000000808115c8                miiphy_get_current_dev
 .text.miiphy_read
                0x00000000808115d8       0x28 common/built-in.o
                0x00000000808115d8                miiphy_read
 .text.miiphy_write
                0x0000000080811600       0x24 common/built-in.o
                0x0000000080811600                miiphy_write
 .text.miiphy_listdev
                0x0000000080811624       0x54 common/built-in.o
                0x0000000080811624                miiphy_listdev
 .text.miiphy_info
                0x0000000080811678       0x5c common/built-in.o
                0x0000000080811678                miiphy_info
 .text.miiphy_speed
                0x00000000808116d4       0x80 common/built-in.o
                0x00000000808116d4                miiphy_speed
 .text.miiphy_duplex
                0x0000000080811754       0x7c common/built-in.o
                0x0000000080811754                miiphy_duplex
 .text.miiphy_is_1000base_x
                0x00000000808117d0        0x4 common/built-in.o
                0x00000000808117d0                miiphy_is_1000base_x
 .text.usb_set_maxpacket_ep
                0x00000000808117d4       0x56 common/built-in.o
 .text.usb_int_msg
                0x000000008081182a        0xe common/built-in.o
                0x000000008081182a                usb_int_msg
 .text.usb_control_msg
                0x0000000080811838       0x6c common/built-in.o
                0x0000000080811838                usb_control_msg
 .text.usb_get_descriptor
                0x00000000808118a4       0x36 common/built-in.o
 *fill*         0x00000000808118da        0x2 
 .text.get_descriptor_len
                0x00000000808118dc       0x60 common/built-in.o
 .text.usb_setup_descriptor
                0x000000008081193c       0x84 common/built-in.o
 .text.usb_get_string
                0x00000000808119c0       0x50 common/built-in.o
 .text.usb_string_sub
                0x0000000080811a10       0x90 common/built-in.o
 .text.usb_bulk_msg
                0x0000000080811aa0       0x4a common/built-in.o
                0x0000000080811aa0                usb_bulk_msg
 .text.usb_maxpacket
                0x0000000080811aea       0x14 common/built-in.o
                0x0000000080811aea                usb_maxpacket
 .text.usb_clear_halt
                0x0000000080811afe       0x60 common/built-in.o
                0x0000000080811afe                usb_clear_halt
 *fill*         0x0000000080811b5e        0x2 
 .text.usb_get_configuration_len
                0x0000000080811b60       0x50 common/built-in.o
                0x0000000080811b60                usb_get_configuration_len
 .text.usb_get_configuration_no
                0x0000000080811bb0       0x1c common/built-in.o
                0x0000000080811bb0                usb_get_configuration_no
 .text.usb_set_interface
                0x0000000080811bcc       0x74 common/built-in.o
                0x0000000080811bcc                usb_set_interface
 .text.usb_string
                0x0000000080811c40       0x9c common/built-in.o
                0x0000000080811c40                usb_string
 .text.usb_select_config
                0x0000000080811cdc      0x318 common/built-in.o
                0x0000000080811cdc                usb_select_config
 .text.usb_setup_device
                0x0000000080811ff4       0xa4 common/built-in.o
                0x0000000080811ff4                usb_setup_device
 .text.usb_device_has_child_on_port
                0x0000000080812098        0x4 common/built-in.o
                0x0000000080812098                usb_device_has_child_on_port
 .text.usb_find_usb2_hub_address_port
                0x000000008081209c       0x4c common/built-in.o
                0x000000008081209c                usb_find_usb2_hub_address_port
 .text.usb_set_port_feature
                0x00000000808120e8       0x2e common/built-in.o
 .text.usb_clear_port_feature
                0x0000000080812116       0x2e common/built-in.o
 .text.usb_get_hub_descriptor
                0x0000000080812144       0x42 common/built-in.o
 .text.usb_hub_reset_devices
                0x0000000080812186        0x2 common/built-in.o
                0x0000000080812186                usb_hub_reset_devices
 .text.usb_hub_is_root_hub
                0x0000000080812188       0x10 common/built-in.o
                0x0000000080812188                usb_hub_is_root_hub
 .text.usb_get_port_status
                0x0000000080812198       0x70 common/built-in.o
                0x0000000080812198                usb_get_port_status
 .text.usb_hub_port_connect_change
                0x0000000080812208       0xf8 common/built-in.o
                0x0000000080812208                usb_hub_port_connect_change
 .text.usb_hub_configure
                0x0000000080812300      0x3ec common/built-in.o
 .text.usb_hub_scan
                0x00000000808126ec        0xe common/built-in.o
                0x00000000808126ec                usb_hub_scan
 .text.usb_hub_post_probe
                0x00000000808126fa        0x4 common/built-in.o
 .text.usb_stor_irq
                0x00000000808126fe       0x10 common/built-in.o
 *fill*         0x000000008081270e        0x2 
 .text.usb_stor_BBB_reset
                0x0000000080812710       0x94 common/built-in.o
 .text.usb_stor_CB_reset
                0x00000000808127a4       0x88 common/built-in.o
 .text.usb_stor_BBB_clear_endpt_stall.isra.0
                0x000000008081282c       0x2c common/built-in.o
 .text.usb_stor_BBB_transport
                0x0000000080812858      0x1b0 common/built-in.o
 .text.usb_stor_CB_comdat
                0x0000000080812a08      0x158 common/built-in.o
 .text.usb_stor_CBI_get_status.isra.0
                0x0000000080812b60       0x84 common/built-in.o
 .text.usb_stor_CB_transport
                0x0000000080812be4      0x15c common/built-in.o
 .text.usb_request_sense.constprop.0
                0x0000000080812d40       0x4c common/built-in.o
 .text.usb_stor_read
                0x0000000080812d8c       0xfc common/built-in.o
 .text.usb_stor_write
                0x0000000080812e88       0xfc common/built-in.o
 .text.usb_stor_info
                0x0000000080812f84       0x48 common/built-in.o
                0x0000000080812f84                usb_stor_info
 .text.usb_stor_reset
                0x0000000080812fcc        0xc common/built-in.o
                0x0000000080812fcc                usb_stor_reset
 .text.usb_stor_scan
                0x0000000080812fd8       0x30 common/built-in.o
                0x0000000080812fd8                usb_stor_scan
 .text.usb_storage_probe
                0x0000000080813008      0x178 common/built-in.o
                0x0000000080813008                usb_storage_probe
 .text.usb_stor_get_info
                0x0000000080813180      0x224 common/built-in.o
                0x0000000080813180                usb_stor_get_info
 .text.usb_mass_storage_probe
                0x00000000808133a4      0x100 common/built-in.o
 .text.menu_default_set
                0x00000000808134a4       0x4a common/built-in.o
                0x00000000808134a4                menu_default_set
 *fill*         0x00000000808134ee        0x2 
 .text.menu_get_choice
                0x00000000808134f0      0x124 common/built-in.o
                0x00000000808134f0                menu_get_choice
 .text.menu_item_add
                0x0000000080813614       0x84 common/built-in.o
                0x0000000080813614                menu_item_add
 .text.menu_create
                0x0000000080813698       0x58 common/built-in.o
                0x0000000080813698                menu_create
 .text.menu_destroy
                0x00000000808136f0       0x44 common/built-in.o
                0x00000000808136f0                menu_destroy
 .text.update_tftp
                0x0000000080813734      0x224 common/built-in.o
                0x0000000080813734                update_tftp
 .text.delete_char.part.0
                0x0000000080813958       0x84 common/built-in.o
 .text.cread_add_char
                0x00000000808139dc       0x80 common/built-in.o
 .text.cli_readline_into_buffer
                0x0000000080813a5c      0x664 common/built-in.o
                0x0000000080813a5c                cli_readline_into_buffer
 .text.cli_readline
                0x00000000808140c0       0x10 common/built-in.o
                0x00000000808140c0                cli_readline
 .text.cli_simple_process_macros
                0x00000000808140d0      0x130 common/built-in.o
                0x00000000808140d0                cli_simple_process_macros
 .text.checkboard
                0x0000000080814200        0x4 common/built-in.o
                0x0000000080814200                checkboard
 .text.show_board_info
                0x0000000080814204       0x2c common/built-in.o
                0x0000000080814204                show_board_info
 .text.console_setfile
                0x0000000080814230       0x74 common/built-in.o
 .text.console_puts_select.part.0
                0x00000000808142a4       0x10 common/built-in.o
 .text.fgetc.part.0
                0x00000000808142b4       0x2c common/built-in.o
 .text.getchar  0x00000000808142e0       0x1a common/built-in.o
                0x00000000808142e0                getchar
 *fill*         0x00000000808142fa        0x2 
 .text.putc     0x00000000808142fc       0x28 common/built-in.o
                0x00000000808142fc                putc
 .text.puts     0x0000000080814324       0x22 common/built-in.o
                0x0000000080814324                puts
 *fill*         0x0000000080814346        0x2 
 .text.ftstc    0x0000000080814348       0x18 common/built-in.o
                0x0000000080814348                ftstc
 .text.tstc     0x0000000080814360       0x1a common/built-in.o
                0x0000000080814360                tstc
 .text.fputs    0x000000008081437a        0xa common/built-in.o
                0x000000008081437a                fputs
 .text.ctrlc    0x0000000080814384       0x34 common/built-in.o
                0x0000000080814384                ctrlc
 .text.confirm_yesno
                0x00000000808143b8       0x84 common/built-in.o
                0x00000000808143b8                confirm_yesno
 .text.disable_ctrlc
                0x000000008081443c       0x10 common/built-in.o
                0x000000008081443c                disable_ctrlc
 .text.had_ctrlc
                0x000000008081444c        0xc common/built-in.o
                0x000000008081444c                had_ctrlc
 .text.clear_ctrlc
                0x0000000080814458        0xc common/built-in.o
                0x0000000080814458                clear_ctrlc
 .text.search_device
                0x0000000080814464       0x16 common/built-in.o
                0x0000000080814464                search_device
 .text.console_assign
                0x000000008081447a       0x2a common/built-in.o
                0x000000008081447a                console_assign
 .text.on_console
                0x00000000808144a4       0x6c common/built-in.o
 .text.console_init_f
                0x0000000080814510        0xa common/built-in.o
                0x0000000080814510                console_init_f
 *fill*         0x000000008081451a        0x2 
 .text.console_init_r
                0x000000008081451c       0x8c common/built-in.o
                0x000000008081451c                console_init_r
 .text.sbrk     0x00000000808145a8       0x40 common/built-in.o
                0x00000000808145a8                sbrk
 .text.mem_malloc_init
                0x00000000808145e8       0x28 common/built-in.o
                0x00000000808145e8                mem_malloc_init
 .text.malloc_trim
                0x0000000080814610       0x84 common/built-in.o
                0x0000000080814610                malloc_trim
 .text.free     0x0000000080814694      0x168 common/built-in.o
                0x0000000080814694                free
 .text.malloc   0x00000000808147fc      0x428 common/built-in.o
                0x00000000808147fc                malloc
 .text.calloc   0x0000000080814c24       0x9c common/built-in.o
                0x0000000080814c24                calloc
 .text.realloc  0x0000000080814cc0      0x2d0 common/built-in.o
                0x0000000080814cc0                realloc
 .text.memalign
                0x0000000080814f90      0x116 common/built-in.o
                0x0000000080814f90                memalign
 .text.initf_malloc
                0x00000000808150a6       0x14 common/built-in.o
                0x00000000808150a6                initf_malloc
 *fill*         0x00000000808150ba        0x2 
 .text.alloc_simple
                0x00000000808150bc       0x40 common/built-in.o
 .text.malloc_simple
                0x00000000808150fc        0x6 common/built-in.o
                0x00000000808150fc                malloc_simple
 .text.memalign_simple
                0x0000000080815102        0xa common/built-in.o
                0x0000000080815102                memalign_simple
 .text.on_loadaddr
                0x000000008081510c       0x1c common/built-in.o
 .text.image_check_hcrc
                0x0000000080815128       0x2a common/built-in.o
                0x0000000080815128                image_check_hcrc
 .text.image_check_dcrc
                0x0000000080815152       0x22 common/built-in.o
                0x0000000080815152                image_check_dcrc
 .text.image_multi_count
                0x0000000080815174       0x12 common/built-in.o
                0x0000000080815174                image_multi_count
 .text.image_multi_getimg
                0x0000000080815186       0x4a common/built-in.o
                0x0000000080815186                image_multi_getimg
 .text.env_get_bootm_low
                0x00000000808151d0       0x20 common/built-in.o
                0x00000000808151d0                env_get_bootm_low
 .text.env_get_bootm_size
                0x00000000808151f0       0x50 common/built-in.o
                0x00000000808151f0                env_get_bootm_size
 .text.env_get_bootm_mapsize
                0x0000000080815240       0x20 common/built-in.o
                0x0000000080815240                env_get_bootm_mapsize
 .text.memmove_wd
                0x0000000080815260       0x46 common/built-in.o
                0x0000000080815260                memmove_wd
 *fill*         0x00000000808152a6        0x2 
 .text.genimg_print_size
                0x00000000808152a8       0x24 common/built-in.o
                0x00000000808152a8                genimg_print_size
 .text.genimg_print_time
                0x00000000808152cc       0x30 common/built-in.o
                0x00000000808152cc                genimg_print_time
 .text.get_table_entry
                0x00000000808152fc       0x12 common/built-in.o
                0x00000000808152fc                get_table_entry
 .text.get_table_entry_name
                0x000000008081530e       0x12 common/built-in.o
                0x000000008081530e                get_table_entry_name
 .text.genimg_get_os_name
                0x0000000080815320       0x14 common/built-in.o
                0x0000000080815320                genimg_get_os_name
 .text.genimg_get_arch_name
                0x0000000080815334       0x14 common/built-in.o
                0x0000000080815334                genimg_get_arch_name
 .text.genimg_get_type_name
                0x0000000080815348       0x14 common/built-in.o
                0x0000000080815348                genimg_get_type_name
 .text.image_decomp
                0x000000008081535c       0xc0 common/built-in.o
                0x000000008081535c                image_decomp
 .text.genimg_get_comp_name
                0x000000008081541c       0x14 common/built-in.o
                0x000000008081541c                genimg_get_comp_name
 .text.image_print_contents
                0x0000000080815430      0x128 common/built-in.o
                0x0000000080815430                image_print_contents
 .text.get_table_entry_id
                0x0000000080815558       0x26 common/built-in.o
                0x0000000080815558                get_table_entry_id
 *fill*         0x000000008081557e        0x2 
 .text.genimg_get_os_id
                0x0000000080815580       0x14 common/built-in.o
                0x0000000080815580                genimg_get_os_id
 .text.genimg_get_arch_id
                0x0000000080815594       0x14 common/built-in.o
                0x0000000080815594                genimg_get_arch_id
 .text.genimg_get_type_id
                0x00000000808155a8       0x14 common/built-in.o
                0x00000000808155a8                genimg_get_type_id
 .text.genimg_get_comp_id
                0x00000000808155bc       0x14 common/built-in.o
                0x00000000808155bc                genimg_get_comp_id
 .text.genimg_get_kernel_addr_fit
                0x00000000808155d0       0x3c common/built-in.o
                0x00000000808155d0                genimg_get_kernel_addr_fit
 .text.genimg_get_kernel_addr
                0x000000008081560c       0x16 common/built-in.o
                0x000000008081560c                genimg_get_kernel_addr
 *fill*         0x0000000080815622        0x2 
 .text.genimg_get_format
                0x0000000080815624       0x30 common/built-in.o
                0x0000000080815624                genimg_get_format
 .text.genimg_has_config
                0x0000000080815654        0xa common/built-in.o
                0x0000000080815654                genimg_has_config
 *fill*         0x000000008081565e        0x2 
 .text.boot_get_ramdisk
                0x0000000080815660      0x284 common/built-in.o
                0x0000000080815660                boot_get_ramdisk
 .text.boot_ramdisk_high
                0x00000000808158e4       0xbc common/built-in.o
                0x00000000808158e4                boot_ramdisk_high
 .text.boot_get_setup
                0x00000000808159a0        0x4 common/built-in.o
                0x00000000808159a0                boot_get_setup
 .text.boot_get_loadable
                0x00000000808159a4       0xe4 common/built-in.o
                0x00000000808159a4                boot_get_loadable
 .text.image_setup_linux
                0x0000000080815a88       0x3a common/built-in.o
                0x0000000080815a88                image_setup_linux
 *fill*         0x0000000080815ac2        0x2 
 .text.android_image_get_kernel_addr
                0x0000000080815ac4       0x68 common/built-in.o
 .text.android_image_get_kernel
                0x0000000080815b2c      0x170 common/built-in.o
                0x0000000080815b2c                android_image_get_kernel
 .text.android_image_check_header
                0x0000000080815c9c       0x10 common/built-in.o
                0x0000000080815c9c                android_image_check_header
 .text.android_image_get_dtb_img_addr
                0x0000000080815cac      0x108 common/built-in.o
 .text.android_image_get_end
                0x0000000080815db4       0xe8 common/built-in.o
                0x0000000080815db4                android_image_get_end
 .text.android_image_get_kload
                0x0000000080815e9c        0x4 common/built-in.o
                0x0000000080815e9c                android_image_get_kload
 .text.android_image_get_kcomp
                0x0000000080815ea0       0x40 common/built-in.o
                0x0000000080815ea0                android_image_get_kcomp
 .text.android_image_get_ramdisk
                0x0000000080815ee0       0xc4 common/built-in.o
                0x0000000080815ee0                android_image_get_ramdisk
 .text.android_image_get_second
                0x0000000080815fa4       0xe8 common/built-in.o
                0x0000000080815fa4                android_image_get_second
 .text.android_image_get_dtb_by_index
                0x000000008081608c       0xac common/built-in.o
                0x000000008081608c                android_image_get_dtb_by_index
 .text.android_print_contents
                0x0000000080816138      0x310 common/built-in.o
                0x0000000080816138                android_print_contents
 .text.android_dt_check_header
                0x0000000080816448       0x10 common/built-in.o
                0x0000000080816448                android_dt_check_header
 .text.android_dt_get_fdt_by_index
                0x0000000080816458       0x40 common/built-in.o
                0x0000000080816458                android_dt_get_fdt_by_index
 .text.fdt_error
                0x0000000080816498       0x24 common/built-in.o
 .text.boot_fdt_add_mem_rsv_regions
                0x00000000808164bc       0xfc common/built-in.o
                0x00000000808164bc                boot_fdt_add_mem_rsv_regions
 .text.boot_relocate_fdt
                0x00000000808165b8      0x10c common/built-in.o
                0x00000000808165b8                boot_relocate_fdt
 .text.boot_get_fdt
                0x00000000808166c4      0x2bc common/built-in.o
                0x00000000808166c4                boot_get_fdt
 .text.ft_verify_fdt
                0x0000000080816980        0x4 common/built-in.o
                0x0000000080816980                ft_verify_fdt
 .text.image_setup_libfdt
                0x0000000080816984       0xd8 common/built-in.o
                0x0000000080816984                image_setup_libfdt
 .text.fit_image_get_address
                0x0000000080816a5c       0x48 common/built-in.o
 .text.fit_parse_conf
                0x0000000080816aa4       0x3a common/built-in.o
                0x0000000080816aa4                fit_parse_conf
 .text.fit_parse_subimage
                0x0000000080816ade       0x3a common/built-in.o
                0x0000000080816ade                fit_parse_subimage
 .text.fit_get_desc
                0x0000000080816b18       0x20 common/built-in.o
                0x0000000080816b18                fit_get_desc
 .text.fit_get_timestamp
                0x0000000080816b38       0x30 common/built-in.o
                0x0000000080816b38                fit_get_timestamp
 .text.fit_image_get_node
                0x0000000080816b68       0x24 common/built-in.o
                0x0000000080816b68                fit_image_get_node
 .text.fit_image_get_os
                0x0000000080816b8c       0x28 common/built-in.o
                0x0000000080816b8c                fit_image_get_os
 .text.fit_image_get_arch
                0x0000000080816bb4       0x28 common/built-in.o
                0x0000000080816bb4                fit_image_get_arch
 .text.fit_image_get_type
                0x0000000080816bdc       0x28 common/built-in.o
                0x0000000080816bdc                fit_image_get_type
 .text.fit_image_get_comp
                0x0000000080816c04       0x28 common/built-in.o
                0x0000000080816c04                fit_image_get_comp
 .text.fit_image_get_load
                0x0000000080816c2c        0xc common/built-in.o
                0x0000000080816c2c                fit_image_get_load
 .text.fit_image_get_entry
                0x0000000080816c38        0xc common/built-in.o
                0x0000000080816c38                fit_image_get_entry
 .text.fit_image_get_data
                0x0000000080816c44       0x28 common/built-in.o
                0x0000000080816c44                fit_image_get_data
 .text.fit_image_get_data_offset
                0x0000000080816c6c       0x24 common/built-in.o
                0x0000000080816c6c                fit_image_get_data_offset
 .text.fit_image_get_data_position
                0x0000000080816c90       0x24 common/built-in.o
                0x0000000080816c90                fit_image_get_data_position
 .text.fit_image_get_data_size
                0x0000000080816cb4       0x24 common/built-in.o
                0x0000000080816cb4                fit_image_get_data_size
 .text.fit_image_get_data_and_size
                0x0000000080816cd8       0x56 common/built-in.o
                0x0000000080816cd8                fit_image_get_data_and_size
 *fill*         0x0000000080816d2e        0x2 
 .text.fit_image_hash_get_algo
                0x0000000080816d30       0x20 common/built-in.o
                0x0000000080816d30                fit_image_hash_get_algo
 .text.fit_image_hash_get_value
                0x0000000080816d50       0x28 common/built-in.o
                0x0000000080816d50                fit_image_hash_get_value
 .text.fit_image_print_data
                0x0000000080816d78      0x128 common/built-in.o
 .text.fit_image_print_verification_data
                0x0000000080816ea0       0x60 common/built-in.o
 .text.fit_image_print
                0x0000000080816f00      0x228 common/built-in.o
                0x0000000080816f00                fit_image_print
 .text.fit_print_contents
                0x0000000080817128      0x2d8 common/built-in.o
                0x0000000080817128                fit_print_contents
 .text.fit_get_end
                0x0000000080817400        0x8 common/built-in.o
                0x0000000080817400                fit_get_end
 .text.calculate_hash
                0x0000000080817408       0xa8 common/built-in.o
                0x0000000080817408                calculate_hash
 .text.fit_image_verify_with_data
                0x00000000808174b0      0x13c common/built-in.o
                0x00000000808174b0                fit_image_verify_with_data
 .text.fit_image_verify
                0x00000000808175ec       0x50 common/built-in.o
                0x00000000808175ec                fit_image_verify
 .text.fit_all_image_verify
                0x000000008081763c       0xa0 common/built-in.o
                0x000000008081763c                fit_all_image_verify
 .text.fit_image_check_os
                0x00000000808176dc       0x20 common/built-in.o
                0x00000000808176dc                fit_image_check_os
 .text.fit_image_check_type
                0x00000000808176fc       0x20 common/built-in.o
                0x00000000808176fc                fit_image_check_type
 .text.fit_image_check_comp
                0x000000008081771c       0x20 common/built-in.o
                0x000000008081771c                fit_image_check_comp
 .text.fit_check_format
                0x000000008081773c       0x40 common/built-in.o
                0x000000008081773c                fit_check_format
 .text.fit_conf_get_node
                0x000000008081777c       0x7c common/built-in.o
                0x000000008081777c                fit_conf_get_node
 .text.fit_conf_get_prop_node_index
                0x00000000808177f8       0x20 common/built-in.o
                0x00000000808177f8                fit_conf_get_prop_node_index
 .text.fit_conf_get_prop_node
                0x0000000080817818        0x6 common/built-in.o
                0x0000000080817818                fit_conf_get_prop_node
 .text.fit_get_node_from_config
                0x000000008081781e       0x2a common/built-in.o
                0x000000008081781e                fit_get_node_from_config
 .text.fit_image_load
                0x0000000080817848      0x454 common/built-in.o
                0x0000000080817848                fit_image_load
 .text.boot_get_setup_fit
                0x0000000080817c9c       0x40 common/built-in.o
                0x0000000080817c9c                boot_get_setup_fit
 .text.boot_get_fdt_fit
                0x0000000080817cdc      0x1dc common/built-in.o
                0x0000000080817cdc                boot_get_fdt_fit
 .text.get_ram_size
                0x0000000080817eb8       0x9e common/built-in.o
                0x0000000080817eb8                get_ram_size
 .text.get_effective_memsize
                0x0000000080817f56        0x6 common/built-in.o
                0x0000000080817f56                get_effective_memsize
 .text.stdio_serial_tstc
                0x0000000080817f5c        0x4 common/built-in.o
 .text.stdio_serial_getc
                0x0000000080817f60        0x4 common/built-in.o
 .text.stdio_serial_puts
                0x0000000080817f64        0x6 common/built-in.o
 .text.stdio_serial_putc
                0x0000000080817f6a        0x6 common/built-in.o
 .text.stdio_get_list
                0x0000000080817f70        0x8 common/built-in.o
                0x0000000080817f70                stdio_get_list
 .text.stdio_get_by_name
                0x0000000080817f78       0x30 common/built-in.o
                0x0000000080817f78                stdio_get_by_name
 .text.stdio_clone
                0x0000000080817fa8       0x22 common/built-in.o
                0x0000000080817fa8                stdio_clone
 *fill*         0x0000000080817fca        0x2 
 .text.stdio_register_dev
                0x0000000080817fcc       0x34 common/built-in.o
                0x0000000080817fcc                stdio_register_dev
 .text.stdio_register
                0x0000000080818000        0x6 common/built-in.o
                0x0000000080818000                stdio_register
 *fill*         0x0000000080818006        0x2 
 .text.stdio_init_tables
                0x0000000080818008       0x14 common/built-in.o
                0x0000000080818008                stdio_init_tables
 .text.stdio_add_devices
                0x000000008081801c       0x50 common/built-in.o
                0x000000008081801c                stdio_add_devices
 .text.run_command
                0x000000008081806c        0xe common/built-in.o
                0x000000008081806c                run_command
 .text.run_command_list
                0x000000008081807a       0x46 common/built-in.o
                0x000000008081807a                run_command_list
 .text.do_run   0x00000000808180c0       0x4c common/built-in.o
                0x00000000808180c0                do_run
 .text.cli_process_fdt
                0x000000008081810c       0x30 common/built-in.o
                0x000000008081810c                cli_process_fdt
 .text.cli_secure_boot_cmd
                0x000000008081813c       0x4c common/built-in.o
                0x000000008081813c                cli_secure_boot_cmd
 .text.cli_loop
                0x0000000080818188        0xe common/built-in.o
                0x0000000080818188                cli_loop
 .text.cli_init
                0x0000000080818196        0x4 common/built-in.o
                0x0000000080818196                cli_init
 *fill*         0x000000008081819a        0x2 
 .text.run_usb_dnl_gadget
                0x000000008081819c       0xa0 common/built-in.o
                0x000000008081819c                run_usb_dnl_gadget
 .text.find_cmd_tbl
                0x000000008081823c       0x64 common/built-in.o
                0x000000008081823c                find_cmd_tbl
 .text.find_cmd
                0x00000000808182a0       0x1c common/built-in.o
                0x00000000808182a0                find_cmd
 .text.cmd_usage
                0x00000000808182bc       0x3c common/built-in.o
                0x00000000808182bc                cmd_usage
 .text._do_help
                0x00000000808182f8      0x108 common/built-in.o
                0x00000000808182f8                _do_help
 .text.var_complete
                0x0000000080818400       0x50 common/built-in.o
                0x0000000080818400                var_complete
 .text.complete_subcmdv
                0x0000000080818450      0x10c common/built-in.o
                0x0000000080818450                complete_subcmdv
 .text.cmd_auto_complete
                0x000000008081855c      0x278 common/built-in.o
                0x000000008081855c                cmd_auto_complete
 .text.cmd_get_data_size
                0x00000000808187d4       0x34 common/built-in.o
                0x00000000808187d4                cmd_get_data_size
 .text.cmd_always_repeatable
                0x0000000080818808       0x10 common/built-in.o
                0x0000000080818808                cmd_always_repeatable
 .text.cmd_never_repeatable
                0x0000000080818818       0x10 common/built-in.o
                0x0000000080818818                cmd_never_repeatable
 .text.cmd_process
                0x0000000080818828       0xd8 common/built-in.o
                0x0000000080818828                cmd_process
 .text.cmd_process_error
                0x0000000080818900       0x1c common/built-in.o
                0x0000000080818900                cmd_process_error
 .text.hex1_bin
                0x000000008081891c       0x2c common/built-in.o
 .text.hex2_bin
                0x0000000080818948       0x24 common/built-in.o
 .text.srec_decode
                0x000000008081896c      0x190 common/built-in.o
                0x000000008081896c                srec_decode
 .text.CYGACC_COMM_IF_GETC_TIMEOUT.isra.0
                0x0000000080818afc       0x32 common/built-in.o
 .text.xyzModem_flush
                0x0000000080818b2e       0x14 common/built-in.o
 *fill*         0x0000000080818b42        0x2 
 .text.xyzModem_get_hdr
                0x0000000080818b44      0x168 common/built-in.o
 .text.xyzModem_stream_open
                0x0000000080818cac      0x16c common/built-in.o
                0x0000000080818cac                xyzModem_stream_open
 .text.xyzModem_stream_read
                0x0000000080818e18      0x1a8 common/built-in.o
                0x0000000080818e18                xyzModem_stream_read
 .text.xyzModem_stream_close
                0x0000000080818fc0       0x40 common/built-in.o
                0x0000000080818fc0                xyzModem_stream_close
 .text.xyzModem_stream_terminate
                0x0000000080819000       0x68 common/built-in.o
                0x0000000080819000                xyzModem_stream_terminate
 .text.xyzModem_error
                0x0000000080819068       0x18 common/built-in.o
                0x0000000080819068                xyzModem_error
 .text.part_driver_lookup_type
                0x0000000080819080       0x44 disk/built-in.o
 .text.blk_get_dev
                0x00000000808190c4       0x18 disk/built-in.o
                0x00000000808190c4                blk_get_dev
 .text.dev_print
                0x00000000808190dc      0x184 disk/built-in.o
                0x00000000808190dc                dev_print
 .text.part_init
                0x0000000080819260       0x38 disk/built-in.o
                0x0000000080819260                part_init
 .text.part_print
                0x0000000080819298       0xc0 disk/built-in.o
                0x0000000080819298                part_print
 .text.part_get_info
                0x0000000080819358       0x36 disk/built-in.o
                0x0000000080819358                part_get_info
 *fill*         0x000000008081938e        0x2 
 .text.part_get_info_whole_disk
                0x0000000080819390       0x38 disk/built-in.o
                0x0000000080819390                part_get_info_whole_disk
 .text.blk_get_device_by_str
                0x00000000808193c8       0xbc disk/built-in.o
                0x00000000808193c8                blk_get_device_by_str
 .text.blk_get_device_part_str
                0x0000000080819484      0x23c disk/built-in.o
                0x0000000080819484                blk_get_device_part_str
 .text.part_get_info_by_name_type
                0x00000000808196c0       0x48 disk/built-in.o
                0x00000000808196c0                part_get_info_by_name_type
 .text.part_get_info_by_name
                0x0000000080819708        0x8 disk/built-in.o
                0x0000000080819708                part_get_info_by_name
 .text.part_set_generic_name
                0x0000000080819710       0x38 disk/built-in.o
                0x0000000080819710                part_set_generic_name
 .text.test_block_type
                0x0000000080819748       0x78 disk/built-in.o
 .text.part_test_dos
                0x00000000808197c0       0x58 disk/built-in.o
 .text.part_get_info_extended
                0x0000000080819818      0x1d8 disk/built-in.o
 .text.part_get_info_dos
                0x00000000808199f0       0x1a disk/built-in.o
                0x00000000808199f0                part_get_info_dos
 *fill*         0x0000000080819a0a        0x2 
 .text.print_partition_extended
                0x0000000080819a0c      0x1b4 disk/built-in.o
 .text.part_print_dos
                0x0000000080819bc0       0x20 disk/built-in.o
                0x0000000080819bc0                part_print_dos
 .text.is_valid_dos_buf
                0x0000000080819be0       0x10 disk/built-in.o
                0x0000000080819be0                is_valid_dos_buf
 .text.write_mbr_partition
                0x0000000080819bf0       0x44 disk/built-in.o
                0x0000000080819bf0                write_mbr_partition
 .text.iso_dread
                0x0000000080819c34       0x22 disk/built-in.o
                0x0000000080819c34                iso_dread
 *fill*         0x0000000080819c56        0x2 
 .text.part_get_info_iso_verb
                0x0000000080819c58      0x258 disk/built-in.o
                0x0000000080819c58                part_get_info_iso_verb
 .text.part_test_iso
                0x0000000080819eb0       0x14 disk/built-in.o
 .text.part_print_iso
                0x0000000080819ec4       0x60 disk/built-in.o
 .text.part_get_info_iso
                0x0000000080819f24        0x6 disk/built-in.o
 *fill*         0x0000000080819f2a        0x2 
 .text.print_efiname
                0x0000000080819f2c       0x3c disk/built-in.o
 .text.part_test_efi
                0x0000000080819f68       0x78 disk/built-in.o
 .text.validate_gpt_entries
                0x0000000080819fe0       0x80 disk/built-in.o
 .text.validate_gpt_header
                0x000000008081a060      0x1a0 disk/built-in.o
 .text.is_gpt_valid
                0x000000008081a200      0x218 disk/built-in.o
 .text.is_pte_valid
                0x000000008081a418       0x38 disk/built-in.o
 .text.find_valid_gpt
                0x000000008081a450       0x70 disk/built-in.o
 .text.part_print_efi
                0x000000008081a4c0      0x1b0 disk/built-in.o
                0x000000008081a4c0                part_print_efi
 .text.part_get_info_efi
                0x000000008081a670      0x138 disk/built-in.o
                0x000000008081a670                part_get_info_efi
 .text.get_disk_guid
                0x000000008081a7a8       0x62 disk/built-in.o
                0x000000008081a7a8                get_disk_guid
 *fill*         0x000000008081a80a        0x2 
 .text.write_gpt_table
                0x000000008081a80c      0x368 disk/built-in.o
                0x000000008081a80c                write_gpt_table
 .text.gpt_fill_pte
                0x000000008081ab74      0x260 disk/built-in.o
                0x000000008081ab74                gpt_fill_pte
 .text.gpt_fill_header
                0x000000008081add4      0x1a8 disk/built-in.o
                0x000000008081add4                gpt_fill_header
 .text.gpt_restore
                0x000000008081af7c       0xc8 disk/built-in.o
                0x000000008081af7c                gpt_restore
 .text.gpt_verify_headers
                0x000000008081b044       0x58 disk/built-in.o
                0x000000008081b044                gpt_verify_headers
 .text.gpt_verify_partitions
                0x000000008081b09c      0x148 disk/built-in.o
                0x000000008081b09c                gpt_verify_partitions
 .text.is_valid_gpt_buf
                0x000000008081b1e4       0x4e disk/built-in.o
                0x000000008081b1e4                is_valid_gpt_buf
 *fill*         0x000000008081b232        0x2 
 .text.write_mbr_and_gpt_partitions
                0x000000008081b234      0x2f4 disk/built-in.o
                0x000000008081b234                write_mbr_and_gpt_partitions
 .text.clk_clean_rate_cache
                0x000000008081b528       0x30 drivers/built-in.o
 .text.clk_request
                0x000000008081b558       0x16 drivers/built-in.o
                0x000000008081b558                clk_request
 .text.clk_get_by_index_tail.isra.0.part.0
                0x000000008081b56e       0x4c drivers/built-in.o
 *fill*         0x000000008081b5ba        0x2 
 .text.clk_get_by_index
                0x000000008081b5bc       0x34 drivers/built-in.o
                0x000000008081b5bc                clk_get_by_index
 .text.clk_get_by_indexed_prop.isra.0
                0x000000008081b5f0       0x2c drivers/built-in.o
 .text.clk_get_rate
                0x000000008081b61c       0x1c drivers/built-in.o
                0x000000008081b61c                clk_get_rate
 .text.clk_set_rate
                0x000000008081b638       0x2e drivers/built-in.o
                0x000000008081b638                clk_set_rate
 .text.clk_set_parent
                0x000000008081b666       0x1c drivers/built-in.o
                0x000000008081b666                clk_set_parent
 *fill*         0x000000008081b682        0x2 
 .text.clk_set_defaults
                0x000000008081b684      0x16c drivers/built-in.o
                0x000000008081b684                clk_set_defaults
 .text.clk_uclass_post_probe
                0x000000008081b7f0        0xc drivers/built-in.o
                0x000000008081b7f0                clk_uclass_post_probe
 .text.dummy_enable
                0x000000008081b7fc        0x4 drivers/built-in.o
 .text.clk_fixed_rate_raw_get_rate
                0x000000008081b800        0x4 drivers/built-in.o
 .text.clk_fixed_rate_get_rate
                0x000000008081b804        0xc drivers/built-in.o
 .text.clk_fixed_rate_ofdata_to_platdata
                0x000000008081b810       0x2c drivers/built-in.o
 .text.clk_fixed_factor_get_rate
                0x000000008081b83c       0x24 drivers/built-in.o
 .text.clk_fixed_factor_ofdata_to_platdata
                0x000000008081b860       0x3c drivers/built-in.o
 .text.cdce9xx_clk_of_xlate
                0x000000008081b89c       0x28 drivers/built-in.o
 .text.cdce9xx_reg_read
                0x000000008081b8c4       0x1c drivers/built-in.o
 .text.cdce9xx_reg_write
                0x000000008081b8e0       0x20 drivers/built-in.o
 .text.cdce9xx_clk_probe
                0x000000008081b900       0x64 drivers/built-in.o
 .text.cdce9xx_clk_set_rate
                0x000000008081b964       0xbc drivers/built-in.o
 .text.cdce9xx_clk_get_rate
                0x000000008081ba20       0x74 drivers/built-in.o
 .text.device_bind_common.isra.0
                0x000000008081ba94      0x204 drivers/built-in.o
 .text.alloc_priv
                0x000000008081bc98       0x38 drivers/built-in.o
 .text.device_bind_with_driver_data
                0x000000008081bcd0       0x16 drivers/built-in.o
                0x000000008081bcd0                device_bind_with_driver_data
 .text.device_bind_ofnode
                0x000000008081bce6       0x16 drivers/built-in.o
                0x000000008081bce6                device_bind_ofnode
 .text.device_bind_by_name
                0x000000008081bcfc       0x44 drivers/built-in.o
                0x000000008081bcfc                device_bind_by_name
 .text.device_ofdata_to_platdata
                0x000000008081bd40       0xb8 drivers/built-in.o
                0x000000008081bd40                device_ofdata_to_platdata
 .text.device_probe
                0x000000008081bdf8       0xd8 drivers/built-in.o
                0x000000008081bdf8                device_probe
 .text.dev_get_platdata
                0x000000008081bed0       0x20 drivers/built-in.o
                0x000000008081bed0                dev_get_platdata
 .text.dev_get_parent_platdata
                0x000000008081bef0       0x20 drivers/built-in.o
                0x000000008081bef0                dev_get_parent_platdata
 .text.dev_get_uclass_platdata
                0x000000008081bf10       0x20 drivers/built-in.o
                0x000000008081bf10                dev_get_uclass_platdata
 .text.dev_get_priv
                0x000000008081bf30       0x20 drivers/built-in.o
                0x000000008081bf30                dev_get_priv
 .text.dev_get_uclass_priv
                0x000000008081bf50       0x20 drivers/built-in.o
                0x000000008081bf50                dev_get_uclass_priv
 .text.dev_get_parent_priv
                0x000000008081bf70       0x20 drivers/built-in.o
                0x000000008081bf70                dev_get_parent_priv
 .text.device_find_first_child
                0x000000008081bf90       0x12 drivers/built-in.o
                0x000000008081bf90                device_find_first_child
 .text.device_find_next_child
                0x000000008081bfa2       0x16 drivers/built-in.o
                0x000000008081bfa2                device_find_next_child
 .text.dev_get_parent
                0x000000008081bfb8        0x4 drivers/built-in.o
                0x000000008081bfb8                dev_get_parent
 .text.dev_get_driver_data
                0x000000008081bfbc        0x4 drivers/built-in.o
                0x000000008081bfbc                dev_get_driver_data
 .text.device_get_uclass_id
                0x000000008081bfc0        0x8 drivers/built-in.o
                0x000000008081bfc0                device_get_uclass_id
 .text.device_has_active_children
                0x000000008081bfc8       0x24 drivers/built-in.o
                0x000000008081bfc8                device_has_active_children
 .text.device_is_last_sibling
                0x000000008081bfec       0x12 drivers/built-in.o
                0x000000008081bfec                device_is_last_sibling
 .text.device_set_name_alloced
                0x000000008081bffe        0xa drivers/built-in.o
                0x000000008081bffe                device_set_name_alloced
 .text.device_is_compatible
                0x000000008081c008       0x10 drivers/built-in.o
                0x000000008081c008                device_is_compatible
 .text.of_machine_is_compatible
                0x000000008081c018       0x16 drivers/built-in.o
                0x000000008081c018                of_machine_is_compatible
 *fill*         0x000000008081c02e        0x2 
 .text.devfdt_get_addr_index
                0x000000008081c030       0x74 drivers/built-in.o
                0x000000008081c030                devfdt_get_addr_index
 .text.devfdt_get_addr
                0x000000008081c0a4        0x6 drivers/built-in.o
                0x000000008081c0a4                devfdt_get_addr
 .text.devfdt_get_addr_ptr
                0x000000008081c0aa       0x12 drivers/built-in.o
                0x000000008081c0aa                devfdt_get_addr_ptr
 .text.devfdt_get_addr_pci
                0x000000008081c0bc        0x4 drivers/built-in.o
                0x000000008081c0bc                devfdt_get_addr_pci
 .text.lists_driver_lookup_name
                0x000000008081c0c0       0x2c drivers/built-in.o
                0x000000008081c0c0                lists_driver_lookup_name
 .text.lists_uclass_lookup
                0x000000008081c0ec       0x20 drivers/built-in.o
                0x000000008081c0ec                lists_uclass_lookup
 .text.lists_bind_drivers
                0x000000008081c10c       0x80 drivers/built-in.o
                0x000000008081c10c                lists_bind_drivers
 .text.device_bind_driver_to_node
                0x000000008081c18c       0x2c drivers/built-in.o
                0x000000008081c18c                device_bind_driver_to_node
 .text.device_bind_driver
                0x000000008081c1b8       0x12 drivers/built-in.o
                0x000000008081c1b8                device_bind_driver
 *fill*         0x000000008081c1ca        0x2 
 .text.lists_bind_fdt
                0x000000008081c1cc       0xfc drivers/built-in.o
                0x000000008081c1cc                lists_bind_fdt
 .text.dm_scan_fdt_node
                0x000000008081c2c8       0x60 drivers/built-in.o
 .text.dm_root  0x000000008081c328       0x1c drivers/built-in.o
                0x000000008081c328                dm_root
 .text.dm_init  0x000000008081c344       0x4c drivers/built-in.o
                0x000000008081c344                dm_init
 .text.dm_remove_devices_flags
                0x000000008081c390       0x12 drivers/built-in.o
                0x000000008081c390                dm_remove_devices_flags
 *fill*         0x000000008081c3a2        0x2 
 .text.dm_scan_platdata
                0x000000008081c3a4       0x20 drivers/built-in.o
                0x000000008081c3a4                dm_scan_platdata
 .text.dm_scan_fdt_dev
                0x000000008081c3c4       0x1c drivers/built-in.o
                0x000000008081c3c4                dm_scan_fdt_dev
 .text.dm_scan_fdt
                0x000000008081c3e0       0x14 drivers/built-in.o
                0x000000008081c3e0                dm_scan_fdt
 .text.dm_extended_scan_fdt
                0x000000008081c3f4       0x54 drivers/built-in.o
                0x000000008081c3f4                dm_extended_scan_fdt
 .text.dm_scan_other
                0x000000008081c448        0x4 drivers/built-in.o
                0x000000008081c448                dm_scan_other
 .text.dm_init_and_scan
                0x000000008081c44c       0x2c drivers/built-in.o
                0x000000008081c44c                dm_init_and_scan
 .text.uclass_find
                0x000000008081c478       0x2e drivers/built-in.o
                0x000000008081c478                uclass_find
 .text.uclass_get
                0x000000008081c4a6       0xaa drivers/built-in.o
                0x000000008081c4a6                uclass_get
 .text.dev_get_uclass_index
                0x000000008081c550       0x36 drivers/built-in.o
                0x000000008081c550                dev_get_uclass_index
 .text.uclass_find_device
                0x000000008081c586       0x42 drivers/built-in.o
                0x000000008081c586                uclass_find_device
 .text.uclass_find_first_device
                0x000000008081c5c8       0x22 drivers/built-in.o
                0x000000008081c5c8                uclass_find_first_device
 .text.uclass_find_next_device
                0x000000008081c5ea       0x18 drivers/built-in.o
                0x000000008081c5ea                uclass_find_next_device
 .text.uclass_find_device_by_seq
                0x000000008081c602       0x4c drivers/built-in.o
                0x000000008081c602                uclass_find_device_by_seq
 .text.uclass_find_device_by_of_offset
                0x000000008081c64e       0x40 drivers/built-in.o
                0x000000008081c64e                uclass_find_device_by_of_offset
 .text.uclass_find_device_by_ofnode
                0x000000008081c68e       0x40 drivers/built-in.o
                0x000000008081c68e                uclass_find_device_by_ofnode
 .text.uclass_get_device_tail
                0x000000008081c6ce       0x16 drivers/built-in.o
                0x000000008081c6ce                uclass_get_device_tail
 .text.uclass_get_device
                0x000000008081c6e4       0x1c drivers/built-in.o
                0x000000008081c6e4                uclass_get_device
 .text.uclass_get_device_by_seq
                0x000000008081c700       0x34 drivers/built-in.o
                0x000000008081c700                uclass_get_device_by_seq
 .text.uclass_get_device_by_of_offset
                0x000000008081c734       0x1c drivers/built-in.o
                0x000000008081c734                uclass_get_device_by_of_offset
 .text.uclass_get_device_by_ofnode
                0x000000008081c750       0x1c drivers/built-in.o
                0x000000008081c750                uclass_get_device_by_ofnode
 .text.uclass_first_device
                0x000000008081c76c       0x1e drivers/built-in.o
                0x000000008081c76c                uclass_first_device
 .text.uclass_first_device_err
                0x000000008081c78a       0x16 drivers/built-in.o
                0x000000008081c78a                uclass_first_device_err
 .text.uclass_next_device
                0x000000008081c7a0       0x22 drivers/built-in.o
                0x000000008081c7a0                uclass_next_device
 .text.uclass_first_device_check
                0x000000008081c7c2       0x1e drivers/built-in.o
                0x000000008081c7c2                uclass_first_device_check
 .text.uclass_next_device_check
                0x000000008081c7e0       0x1a drivers/built-in.o
                0x000000008081c7e0                uclass_next_device_check
 .text.uclass_bind_device
                0x000000008081c7fa       0x3a drivers/built-in.o
                0x000000008081c7fa                uclass_bind_device
 .text.uclass_unbind_device
                0x000000008081c834       0x24 drivers/built-in.o
                0x000000008081c834                uclass_unbind_device
 .text.uclass_resolve_seq
                0x000000008081c858       0x74 drivers/built-in.o
                0x000000008081c858                uclass_resolve_seq
 .text.uclass_pre_probe_device
                0x000000008081c8cc       0x2e drivers/built-in.o
                0x000000008081c8cc                uclass_pre_probe_device
 .text.uclass_post_probe_device
                0x000000008081c8fa       0x2e drivers/built-in.o
                0x000000008081c8fa                uclass_post_probe_device
 .text.uclass_pre_remove_device
                0x000000008081c928        0xe drivers/built-in.o
                0x000000008081c928                uclass_pre_remove_device
 .text.dm_warn  0x000000008081c936       0x1a drivers/built-in.o
                0x000000008081c936                dm_warn
 .text.device_unbind
                0x000000008081c950       0x96 drivers/built-in.o
                0x000000008081c950                device_unbind
 *fill*         0x000000008081c9e6        0x2 
 .text.device_chld_unbind
                0x000000008081c9e8       0x58 drivers/built-in.o
                0x000000008081c9e8                device_chld_unbind
 .text.device_free
                0x000000008081ca40       0x4c drivers/built-in.o
                0x000000008081ca40                device_free
 .text.device_remove
                0x000000008081ca8c       0xdc drivers/built-in.o
                0x000000008081ca8c                device_remove
 .text.device_chld_remove
                0x000000008081cb68       0x3c drivers/built-in.o
                0x000000008081cb68                device_chld_remove
 .text.simple_bus_post_bind
                0x000000008081cba4       0x34 drivers/built-in.o
 .text.show_devices
                0x000000008081cbd8       0xb8 drivers/built-in.o
 .text.dm_dump_all
                0x000000008081cc90       0x30 drivers/built-in.o
                0x000000008081cc90                dm_dump_all
 .text.dm_dump_uclass
                0x000000008081ccc0       0xa0 drivers/built-in.o
                0x000000008081ccc0                dm_dump_uclass
 .text.dm_dump_driver_compat
                0x000000008081cd60       0x88 drivers/built-in.o
                0x000000008081cd60                dm_dump_driver_compat
 .text.dm_dump_drivers
                0x000000008081cde8       0xc4 drivers/built-in.o
                0x000000008081cde8                dm_dump_drivers
 .text.dm_dump_static_driver_info
                0x000000008081ceac       0x40 drivers/built-in.o
                0x000000008081ceac                dm_dump_static_driver_info
 .text.ofnode_read_u32_index
                0x000000008081ceec       0x42 drivers/built-in.o
                0x000000008081ceec                ofnode_read_u32_index
 .text.ofnode_read_u32
                0x000000008081cf2e        0x8 drivers/built-in.o
                0x000000008081cf2e                ofnode_read_u32
 .text.ofnode_read_u32_default
                0x000000008081cf36       0x14 drivers/built-in.o
                0x000000008081cf36                ofnode_read_u32_default
 .text.ofnode_read_s32_default
                0x000000008081cf4a       0x12 drivers/built-in.o
                0x000000008081cf4a                ofnode_read_s32_default
 .text.ofnode_read_prop
                0x000000008081cf5c       0x2a drivers/built-in.o
                0x000000008081cf5c                ofnode_read_prop
 .text.ofnode_read_string
                0x000000008081cf86       0x20 drivers/built-in.o
                0x000000008081cf86                ofnode_read_string
 .text.ofnode_read_size
                0x000000008081cfa6       0x18 drivers/built-in.o
                0x000000008081cfa6                ofnode_read_size
 .text.ofnode_find_subnode
                0x000000008081cfbe       0x16 drivers/built-in.o
                0x000000008081cfbe                ofnode_find_subnode
 .text.ofnode_read_u32_array
                0x000000008081cfd4       0x18 drivers/built-in.o
                0x000000008081cfd4                ofnode_read_u32_array
 .text.ofnode_first_subnode
                0x000000008081cfec       0x12 drivers/built-in.o
                0x000000008081cfec                ofnode_first_subnode
 .text.ofnode_next_subnode
                0x000000008081cffe       0x12 drivers/built-in.o
                0x000000008081cffe                ofnode_next_subnode
 .text.ofnode_get_parent
                0x000000008081d010        0xe drivers/built-in.o
                0x000000008081d010                ofnode_get_parent
 .text.ofnode_get_name
                0x000000008081d01e       0x12 drivers/built-in.o
                0x000000008081d01e                ofnode_get_name
 .text.ofnode_parse_phandle_with_args
                0x000000008081d030       0x42 drivers/built-in.o
                0x000000008081d030                ofnode_parse_phandle_with_args
 .text.ofnode_count_phandle_with_args
                0x000000008081d072       0x24 drivers/built-in.o
                0x000000008081d072                ofnode_count_phandle_with_args
 .text.ofnode_path
                0x000000008081d096       0x12 drivers/built-in.o
                0x000000008081d096                ofnode_path
 .text.ofnode_read_chosen_prop
                0x000000008081d0a8       0x1c drivers/built-in.o
                0x000000008081d0a8                ofnode_read_chosen_prop
 .text.ofnode_get_chosen_node
                0x000000008081d0c4       0x18 drivers/built-in.o
                0x000000008081d0c4                ofnode_get_chosen_node
 .text.ofnode_get_property
                0x000000008081d0dc       0x14 drivers/built-in.o
                0x000000008081d0dc                ofnode_get_property
 .text.ofnode_read_bool
                0x000000008081d0f0       0x10 drivers/built-in.o
                0x000000008081d0f0                ofnode_read_bool
 .text.ofnode_read_u8_array_ptr
                0x000000008081d100       0x14 drivers/built-in.o
                0x000000008081d100                ofnode_read_u8_array_ptr
 .text.ofnode_read_simple_addr_cells
                0x000000008081d114        0xa drivers/built-in.o
                0x000000008081d114                ofnode_read_simple_addr_cells
 .text.ofnode_read_simple_size_cells
                0x000000008081d11e        0xa drivers/built-in.o
                0x000000008081d11e                ofnode_read_simple_size_cells
 .text.ofnode_get_addr_size_index
                0x000000008081d128       0x40 drivers/built-in.o
                0x000000008081d128                ofnode_get_addr_size_index
 .text.ofnode_get_addr_index
                0x000000008081d168        0xe drivers/built-in.o
                0x000000008081d168                ofnode_get_addr_index
 .text.ofnode_get_addr
                0x000000008081d176        0x6 drivers/built-in.o
                0x000000008081d176                ofnode_get_addr
 .text.ofnode_pre_reloc
                0x000000008081d17c       0x40 drivers/built-in.o
                0x000000008081d17c                ofnode_pre_reloc
 .text.ofnode_device_is_compatible
                0x000000008081d1bc       0x18 drivers/built-in.o
                0x000000008081d1bc                ofnode_device_is_compatible
 .text.dfu_write_buffer_drain
                0x000000008081d1d4       0x68 drivers/built-in.o
 .text.dfu_flush_callback
                0x000000008081d23c        0x2 drivers/built-in.o
                0x000000008081d23c                dfu_flush_callback
 .text.dfu_initiated_callback
                0x000000008081d23e        0x2 drivers/built-in.o
                0x000000008081d23e                dfu_initiated_callback
 .text.dfu_usb_get_reset
                0x000000008081d240        0x4 drivers/built-in.o
                0x000000008081d240                dfu_usb_get_reset
 .text.dfu_free_buf
                0x000000008081d244       0x14 drivers/built-in.o
                0x000000008081d244                dfu_free_buf
 .text.dfu_get_buf_size
                0x000000008081d258        0xc drivers/built-in.o
                0x000000008081d258                dfu_get_buf_size
 .text.dfu_get_buf
                0x000000008081d264       0x84 drivers/built-in.o
                0x000000008081d264                dfu_get_buf
 .text.dfu_transaction_cleanup
                0x000000008081d2e8       0x36 drivers/built-in.o
                0x000000008081d2e8                dfu_transaction_cleanup
 *fill*         0x000000008081d31e        0x2 
 .text.dfu_transaction_initiate
                0x000000008081d320       0x54 drivers/built-in.o
                0x000000008081d320                dfu_transaction_initiate
 .text.dfu_flush
                0x000000008081d374       0x40 drivers/built-in.o
                0x000000008081d374                dfu_flush
 .text.dfu_write
                0x000000008081d3b4       0xa8 drivers/built-in.o
                0x000000008081d3b4                dfu_write
 .text.dfu_read
                0x000000008081d45c      0x14c drivers/built-in.o
                0x000000008081d45c                dfu_read
 .text.dfu_free_entities
                0x000000008081d5a8       0x58 drivers/built-in.o
                0x000000008081d5a8                dfu_free_entities
 .text.dfu_alt_init
                0x000000008081d600       0x4c drivers/built-in.o
                0x000000008081d600                dfu_alt_init
 .text.dfu_alt_add
                0x000000008081d64c      0x11c drivers/built-in.o
                0x000000008081d64c                dfu_alt_add
 .text.dfu_config_interfaces
                0x000000008081d768       0xa8 drivers/built-in.o
                0x000000008081d768                dfu_config_interfaces
 .text.dfu_config_entities
                0x000000008081d810       0x70 drivers/built-in.o
                0x000000008081d810                dfu_config_entities
 .text.dfu_init_env_entities
                0x000000008081d880       0x40 drivers/built-in.o
                0x000000008081d880                dfu_init_env_entities
 .text.dfu_get_dev_type
                0x000000008081d8c0       0x28 drivers/built-in.o
                0x000000008081d8c0                dfu_get_dev_type
 .text.dfu_get_layout
                0x000000008081d8e8       0x28 drivers/built-in.o
                0x000000008081d8e8                dfu_get_layout
 .text.dfu_show_entities
                0x000000008081d910       0x4c drivers/built-in.o
                0x000000008081d910                dfu_show_entities
 .text.dfu_get_alt_number
                0x000000008081d95c        0xc drivers/built-in.o
                0x000000008081d95c                dfu_get_alt_number
 .text.dfu_get_entity
                0x000000008081d968       0x2c drivers/built-in.o
                0x000000008081d968                dfu_get_entity
 .text.dfu_get_alt
                0x000000008081d994       0x64 drivers/built-in.o
                0x000000008081d994                dfu_get_alt
 .text.dfu_write_from_mem_addr
                0x000000008081d9f8       0x50 drivers/built-in.o
                0x000000008081d9f8                dfu_write_from_mem_addr
 .text.mmc_block_op
                0x000000008081da48      0x10c drivers/built-in.o
 .text.mmc_file_op
                0x000000008081db54       0xf0 drivers/built-in.o
 .text.dfu_flush_medium_mmc
                0x000000008081dc44       0x40 drivers/built-in.o
                0x000000008081dc44                dfu_flush_medium_mmc
 .text.dfu_free_entity_mmc
                0x000000008081dc84       0x18 drivers/built-in.o
                0x000000008081dc84                dfu_free_entity_mmc
 .text.dfu_write_medium_mmc
                0x000000008081dc9c       0xec drivers/built-in.o
                0x000000008081dc9c                dfu_write_medium_mmc
 .text.dfu_get_medium_size_mmc
                0x000000008081dd88       0x58 drivers/built-in.o
                0x000000008081dd88                dfu_get_medium_size_mmc
 .text.dfu_read_medium_mmc
                0x000000008081dde0       0xfc drivers/built-in.o
                0x000000008081dde0                dfu_read_medium_mmc
 .text.dfu_fill_entity_mmc
                0x000000008081dedc      0x1ac drivers/built-in.o
                0x000000008081dedc                dfu_fill_entity_mmc
 .text.dfu_get_medium_size_nand
                0x000000008081e088        0xc drivers/built-in.o
                0x000000008081e088                dfu_get_medium_size_nand
 .text.dfu_polltimeout_nand
                0x000000008081e094        0x4 drivers/built-in.o
                0x000000008081e094                dfu_polltimeout_nand
 .text.dfu_flush_medium_nand
                0x000000008081e098       0xc8 drivers/built-in.o
 .text.nand_block_op.part.0
                0x000000008081e160      0x11c drivers/built-in.o
 .text.dfu_write_medium_nand
                0x000000008081e27c       0x40 drivers/built-in.o
 .text.dfu_read_medium_nand
                0x000000008081e2bc       0x3c drivers/built-in.o
 .text.dfu_fill_entity_nand
                0x000000008081e2f8      0x13c drivers/built-in.o
                0x000000008081e2f8                dfu_fill_entity_nand
 .text.dfu_get_medium_size_ram
                0x000000008081e434        0xa drivers/built-in.o
                0x000000008081e434                dfu_get_medium_size_ram
 .text.dfu_read_medium_ram
                0x000000008081e43e       0x30 drivers/built-in.o
 .text.dfu_write_medium_ram
                0x000000008081e46e       0x30 drivers/built-in.o
 *fill*         0x000000008081e49e        0x2 
 .text.dfu_fill_entity_ram
                0x000000008081e4a0       0x88 drivers/built-in.o
                0x000000008081e4a0                dfu_fill_entity_ram
 .text.dfu_write_by_name
                0x000000008081e528       0x68 drivers/built-in.o
                0x000000008081e528                dfu_write_by_name
 .text.mtd_check_oob_ops
                0x000000008081e590       0xf4 drivers/built-in.o
 .text.idr_get_next
                0x000000008081e684       0x24 drivers/built-in.o
                0x000000008081e684                idr_get_next
 .text.__mtd_next_device
                0x000000008081e6a8       0x18 drivers/built-in.o
                0x000000008081e6a8                __mtd_next_device
 .text.__get_mtd_device
                0x000000008081e6c0       0x20 drivers/built-in.o
                0x000000008081e6c0                __get_mtd_device
 .text.get_mtd_device_nm
                0x000000008081e6e0       0x34 drivers/built-in.o
                0x000000008081e6e0                get_mtd_device_nm
 .text.__put_mtd_device
                0x000000008081e714       0x44 drivers/built-in.o
                0x000000008081e714                __put_mtd_device
 .text.put_mtd_device
                0x000000008081e758        0x4 drivers/built-in.o
                0x000000008081e758                put_mtd_device
 .text.mtd_erase
                0x000000008081e75c       0x6c drivers/built-in.o
                0x000000008081e75c                mtd_erase
 .text.mtd_read
                0x000000008081e7c8       0xb4 drivers/built-in.o
                0x000000008081e7c8                mtd_read
 .text.mtd_write
                0x000000008081e87c       0x9a drivers/built-in.o
                0x000000008081e87c                mtd_write
 .text.mtd_read_oob
                0x000000008081e916       0x6e drivers/built-in.o
                0x000000008081e916                mtd_read_oob
 .text.mtd_write_oob
                0x000000008081e984       0x62 drivers/built-in.o
                0x000000008081e984                mtd_write_oob
 .text.mtd_unlock
                0x000000008081e9e6       0x5c drivers/built-in.o
                0x000000008081e9e6                mtd_unlock
 *fill*         0x000000008081ea42        0x2 
 .text.add_mtd_device
                0x000000008081ea44      0x148 drivers/built-in.o
                0x000000008081ea44                add_mtd_device
 .text.mtd_block_isbad
                0x000000008081eb8c       0x2c drivers/built-in.o
                0x000000008081eb8c                mtd_block_isbad
 .text.mtd_block_markbad
                0x000000008081ebb8       0x42 drivers/built-in.o
                0x000000008081ebb8                mtd_block_markbad
 *fill*         0x000000008081ebfa        0x2 
 .text.get_nand_dev_by_index
                0x000000008081ebfc       0x1c drivers/built-in.o
                0x000000008081ebfc                get_nand_dev_by_index
 .text.nand_register
                0x000000008081ec18       0x60 drivers/built-in.o
                0x000000008081ec18                nand_register
 .text.nand_size
                0x000000008081ec78        0xc drivers/built-in.o
                0x000000008081ec78                nand_size
 .text.nand_init
                0x000000008081ec84       0x3c drivers/built-in.o
                0x000000008081ec84                nand_init
 .text.verify_bbt_descr
                0x000000008081ecc0       0xe4 drivers/built-in.o
 .text.create_bbt
                0x000000008081eda4      0x1a8 drivers/built-in.o
 .text.scan_read
                0x000000008081ef4c       0x9e drivers/built-in.o
 .text.read_bbt
                0x000000008081efea      0x158 drivers/built-in.o
 .text.write_bbt
                0x000000008081f142      0x3f6 drivers/built-in.o
 .text.nand_update_bbt
                0x000000008081f538       0xda drivers/built-in.o
 .text.mark_bbt_region
                0x000000008081f612      0x162 drivers/built-in.o
 .text.search_bbt
                0x000000008081f774      0x152 drivers/built-in.o
 .text.read_abs_bbt
                0x000000008081f8c6       0xc0 drivers/built-in.o
 *fill*         0x000000008081f986        0x2 
 .text.nand_default_bbt
                0x000000008081f988      0x3ec drivers/built-in.o
                0x000000008081f988                nand_default_bbt
 .text.nand_isreserved_bbt
                0x000000008081fd74       0x40 drivers/built-in.o
                0x000000008081fd74                nand_isreserved_bbt
 .text.nand_isbad_bbt
                0x000000008081fdb4       0x48 drivers/built-in.o
                0x000000008081fdb4                nand_isbad_bbt
 .text.nand_markbad_bbt
                0x000000008081fdfc       0x50 drivers/built-in.o
                0x000000008081fdfc                nand_markbad_bbt
 .text.check_skip_len
                0x000000008081fe4c       0x76 drivers/built-in.o
 *fill*         0x000000008081fec2        0x2 
 .text.nand_erase_opts
                0x000000008081fec4      0x21c drivers/built-in.o
                0x000000008081fec4                nand_erase_opts
 .text.nand_verify_page_oob
                0x00000000808200e0       0x7a drivers/built-in.o
                0x00000000808200e0                nand_verify_page_oob
 .text.nand_verify
                0x000000008082015a       0xa0 drivers/built-in.o
                0x000000008082015a                nand_verify
 *fill*         0x00000000808201fa        0x2 
 .text.nand_write_skip_bad
                0x00000000808201fc      0x1c8 drivers/built-in.o
                0x00000000808201fc                nand_write_skip_bad
 .text.nand_read_skip_bad
                0x00000000808203c4      0x170 drivers/built-in.o
                0x00000000808203c4                nand_read_skip_bad
 .text.nand_calculate_ecc
                0x0000000080820534       0xc0 drivers/built-in.o
                0x0000000080820534                nand_calculate_ecc
 .text.nand_correct_data
                0x00000000808205f4       0xc0 drivers/built-in.o
                0x00000000808205f4                nand_correct_data
 .text.nand_release_device
                0x00000000808206b4        0xa drivers/built-in.o
 .text.nand_read_byte
                0x00000000808206be        0xe drivers/built-in.o
                0x00000000808206be                nand_read_byte
 .text.nand_read_byte16
                0x00000000808206cc       0x10 drivers/built-in.o
 .text.nand_read_word
                0x00000000808206dc        0xe drivers/built-in.o
 .text.nand_write_byte
                0x00000000808206ea       0x18 drivers/built-in.o
 .text.nand_write_byte16
                0x0000000080820702       0x18 drivers/built-in.o
 .text.nand_write_buf
                0x000000008082071a       0x1a drivers/built-in.o
                0x000000008082071a                nand_write_buf
 .text.nand_write_buf16
                0x0000000080820734       0x1e drivers/built-in.o
                0x0000000080820734                nand_write_buf16
 .text.nand_setup_data_interface
                0x0000000080820752       0x52 drivers/built-in.o
 .text.nand_read_page_swecc
                0x00000000808207a4       0xd0 drivers/built-in.o
 .text.nand_write_page_swecc
                0x0000000080820874       0x78 drivers/built-in.o
 .text.nand_sync
                0x00000000808208ec        0xa drivers/built-in.o
 *fill*         0x00000000808208f6        0x2 
 .text.nand_onfi_set_features
                0x00000000808208f8       0x58 drivers/built-in.o
 .text.nand_onfi_get_features
                0x0000000080820950       0x40 drivers/built-in.o
 .text.nand_set_defaults
                0x0000000080820990      0x144 drivers/built-in.o
 .text.nand_setup_read_retry_micron
                0x0000000080820ad4       0x24 drivers/built-in.o
 .text.nand_check_erased_buf
                0x0000000080820af8       0xc8 drivers/built-in.o
 .text.nand_block_bad
                0x0000000080820bc0      0x102 drivers/built-in.o
 .text.sanitize_string
                0x0000000080820cc2       0x22 drivers/built-in.o
 .text.nand_block_isreserved
                0x0000000080820ce4        0xe drivers/built-in.o
 .text.nand_read_buf16
                0x0000000080820cf2       0x34 drivers/built-in.o
                0x0000000080820cf2                nand_read_buf16
 *fill*         0x0000000080820d26        0x2 
 .text.nand_block_checkbad
                0x0000000080820d28       0x50 drivers/built-in.o
 .text.nand_block_isbad
                0x0000000080820d78       0x5e drivers/built-in.o
 *fill*         0x0000000080820dd6        0x2 
 .text.nand_fill_oob
                0x0000000080820dd8       0xb8 drivers/built-in.o
 .text.nand_select_chip
                0x0000000080820e90       0x38 drivers/built-in.o
 .text.nand_transfer_oob
                0x0000000080820ec8       0xa8 drivers/built-in.o
 .text.onfi_crc16.constprop.0
                0x0000000080820f70       0x3c drivers/built-in.o
 .text.nand_read_buf
                0x0000000080820fac       0x1c drivers/built-in.o
                0x0000000080820fac                nand_read_buf
 .text.nand_wait_ready
                0x0000000080820fc8       0x34 drivers/built-in.o
                0x0000000080820fc8                nand_wait_ready
 .text.nand_read_page_op
                0x0000000080820ffc       0x42 drivers/built-in.o
                0x0000000080820ffc                nand_read_page_op
 *fill*         0x000000008082103e        0x2 
 .text.nand_read_oob
                0x0000000080821040      0x560 drivers/built-in.o
 .text.nand_change_read_column_op
                0x00000000808215a0       0x46 drivers/built-in.o
                0x00000000808215a0                nand_change_read_column_op
 .text.nand_read_oob_op
                0x00000000808215e6       0x3e drivers/built-in.o
                0x00000000808215e6                nand_read_oob_op
 .text.nand_read_oob_std
                0x0000000080821624       0x1c drivers/built-in.o
 .text.nand_prog_page_begin_op
                0x0000000080821640       0x40 drivers/built-in.o
                0x0000000080821640                nand_prog_page_begin_op
 .text.nand_prog_page_end_op
                0x0000000080821680       0x28 drivers/built-in.o
                0x0000000080821680                nand_prog_page_end_op
 .text.nand_write_page
                0x00000000808216a8       0xba drivers/built-in.o
 .text.nand_prog_page_op
                0x0000000080821762       0x60 drivers/built-in.o
                0x0000000080821762                nand_prog_page_op
 .text.nand_write_oob_std
                0x00000000808217c2       0x1a drivers/built-in.o
 .text.nand_change_write_column_op
                0x00000000808217dc       0x44 drivers/built-in.o
                0x00000000808217dc                nand_change_write_column_op
 .text.nand_readid_op
                0x0000000080821820       0x3a drivers/built-in.o
                0x0000000080821820                nand_readid_op
 .text.nand_status_op
                0x000000008082185a       0x24 drivers/built-in.o
                0x000000008082185a                nand_status_op
 .text.nand_check_wp
                0x000000008082187e       0x26 drivers/built-in.o
 .text.nand_do_write_ops
                0x00000000808218a4      0x27c drivers/built-in.o
 .text.nand_erase_op
                0x0000000080821b20       0x48 drivers/built-in.o
                0x0000000080821b20                nand_erase_op
 .text.single_erase
                0x0000000080821b68       0x10 drivers/built-in.o
 .text.nand_reset_op
                0x0000000080821b78       0x14 drivers/built-in.o
                0x0000000080821b78                nand_reset_op
 .text.nand_read_data_op
                0x0000000080821b8c       0x3e drivers/built-in.o
                0x0000000080821b8c                nand_read_data_op
 *fill*         0x0000000080821bca        0x2 
 .text.nand_wait
                0x0000000080821bcc       0x98 drivers/built-in.o
 .text.nand_read_oob_syndrome
                0x0000000080821c64       0xc4 drivers/built-in.o
 .text.nand_read_page_raw_syndrome
                0x0000000080821d28       0x96 drivers/built-in.o
 .text.nand_read_page_raw
                0x0000000080821dbe       0x2c drivers/built-in.o
 .text.panic_nand_write
                0x0000000080821dea       0x7a drivers/built-in.o
 .text.nand_wait_status_ready.constprop.0
                0x0000000080821e64       0x3a drivers/built-in.o
 .text.nand_command
                0x0000000080821e9e      0x12a drivers/built-in.o
 .text.nand_command_lp
                0x0000000080821fc8      0x188 drivers/built-in.o
 .text.nand_write_data_op
                0x0000000080822150       0x34 drivers/built-in.o
                0x0000000080822150                nand_write_data_op
 .text.nand_write_oob_syndrome
                0x0000000080822184      0x102 drivers/built-in.o
 .text.nand_write_page_raw_syndrome
                0x0000000080822286       0x96 drivers/built-in.o
 .text.nand_write_page_syndrome
                0x000000008082231c       0xa8 drivers/built-in.o
 .text.nand_write_subpage_hwecc
                0x00000000808223c4      0x100 drivers/built-in.o
 .text.nand_write_page_raw
                0x00000000808224c4       0x2c drivers/built-in.o
 .text.nand_write_page_hwecc
                0x00000000808224f0       0x86 drivers/built-in.o
 .text.nand_reset
                0x0000000080822576       0x6a drivers/built-in.o
                0x0000000080822576                nand_reset
 .text.nand_do_write_oob
                0x00000000808225e0      0x17c drivers/built-in.o
 .text.nand_default_block_markbad
                0x000000008082275c       0x94 drivers/built-in.o
 .text.nand_write_oob
                0x00000000808227f0       0x70 drivers/built-in.o
 .text.nand_check_erased_ecc_chunk
                0x0000000080822860       0x74 drivers/built-in.o
                0x0000000080822860                nand_check_erased_ecc_chunk
 .text.nand_read_page_syndrome
                0x00000000808228d4      0x138 drivers/built-in.o
 .text.nand_read_subpage
                0x0000000080822a0c      0x1ea drivers/built-in.o
 *fill*         0x0000000080822bf6        0x2 
 .text.nand_read_page_hwecc
                0x0000000080822bf8      0x114 drivers/built-in.o
 .text.nand_read_page_hwecc_oob_first
                0x0000000080822d0c      0x11c drivers/built-in.o
 .text.nand_erase_nand
                0x0000000080822e28      0x214 drivers/built-in.o
                0x0000000080822e28                nand_erase_nand
 .text.nand_block_markbad
                0x000000008082303c       0x9c drivers/built-in.o
 .text.nand_erase
                0x00000000808230d8        0x6 drivers/built-in.o
 *fill*         0x00000000808230de        0x2 
 .text.nand_get_flash_type
                0x00000000808230e0      0xb1c drivers/built-in.o
                0x00000000808230e0                nand_get_flash_type
 .text.nand_scan_ident
                0x0000000080823bfc      0x2bc drivers/built-in.o
                0x0000000080823bfc                nand_scan_ident
 .text.nand_scan_tail
                0x0000000080823eb8      0x4a8 drivers/built-in.o
                0x0000000080823eb8                nand_scan_tail
 .text.nand_scan
                0x0000000080824360       0x18 drivers/built-in.o
                0x0000000080824360                nand_scan
 .text.onfi_init_data_interface
                0x0000000080824378       0x88 drivers/built-in.o
                0x0000000080824378                onfi_init_data_interface
 .text.nand_get_default_data_interface
                0x0000000080824400        0x8 drivers/built-in.o
                0x0000000080824400                nand_get_default_data_interface
 .text.omap_nand_hwcontrol
                0x0000000080824408       0x58 drivers/built-in.o
 .text.omap_dev_ready
                0x0000000080824460       0x1c drivers/built-in.o
 .text.omap_enable_hwecc_bch
                0x000000008082447c       0xbc drivers/built-in.o
 .text.omap_reverse_list
                0x0000000080824538       0x1c drivers/built-in.o
 .text.omap_correct_data_bch
                0x0000000080824554      0x124 drivers/built-in.o
 .text._omap_calculate_ecc_bch.isra.0
                0x0000000080824678       0xfc drivers/built-in.o
 .text.omap_calculate_ecc_bch
                0x0000000080824774        0x8 drivers/built-in.o
 .text.omap_read_page_bch
                0x000000008082477c      0x130 drivers/built-in.o
 .text.omap_nand_read_prefetch
                0x00000000808248ac      0x22c drivers/built-in.o
 .text.gpmc_nand_init
                0x0000000080824ad8      0x1b0 drivers/built-in.o
                0x0000000080824ad8                gpmc_nand_init
 .text.board_nand_init
                0x0000000080824c88       0x18 drivers/built-in.o
                0x0000000080824c88                board_nand_init
 .text.elm_check_error
                0x0000000080824ca0      0x174 drivers/built-in.o
                0x0000000080824ca0                elm_check_error
 .text.elm_config
                0x0000000080824e14       0x48 drivers/built-in.o
                0x0000000080824e14                elm_config
 .text.elm_reset
                0x0000000080824e5c       0x28 drivers/built-in.o
                0x0000000080824e5c                elm_reset
 .text.elm_init
                0x0000000080824e84       0x14 drivers/built-in.o
                0x0000000080824e84                elm_init
 .text.spi_flash_post_bind
                0x0000000080824e98        0x4 drivers/built-in.o
 .text.spi_flash_read_dm
                0x0000000080824e9c        0xe drivers/built-in.o
                0x0000000080824e9c                spi_flash_read_dm
 .text.spi_flash_write_dm
                0x0000000080824eaa        0xe drivers/built-in.o
                0x0000000080824eaa                spi_flash_write_dm
 .text.spi_flash_erase_dm
                0x0000000080824eb8        0x8 drivers/built-in.o
                0x0000000080824eb8                spi_flash_erase_dm
 .text.spi_flash_probe_bus_cs
                0x0000000080824ec0       0x50 drivers/built-in.o
                0x0000000080824ec0                spi_flash_probe_bus_cs
 .text.spi_flash_std_write
                0x0000000080824f10       0x22 drivers/built-in.o
 .text.spi_flash_std_read
                0x0000000080824f32       0x22 drivers/built-in.o
 .text.spi_flash_std_probe
                0x0000000080824f54       0x48 drivers/built-in.o
                0x0000000080824f54                spi_flash_std_probe
 .text.spi_flash_std_erase
                0x0000000080824f9c       0x48 drivers/built-in.o
 .text.spi_flash_std_remove
                0x0000000080824fe4        0xe drivers/built-in.o
 .text.read_cr  0x0000000080824ff2       0x1c drivers/built-in.o
 .text.write_enable
                0x000000008082500e       0x12 drivers/built-in.o
 .text.write_disable
                0x0000000080825020       0x12 drivers/built-in.o
 .text.spi_nor_read
                0x0000000080825032       0x50 drivers/built-in.o
 .text.spi_nor_hwcaps2cmd
                0x0000000080825082       0x1a drivers/built-in.o
 .text.spi_nor_setup_op
                0x000000008082509c       0x6a drivers/built-in.o
 .text.spi_nor_read_op
                0x0000000080825106       0x8c drivers/built-in.o
 .text.spi_nor_read_data
                0x0000000080825192       0x5c drivers/built-in.o
 .text.spi_nor_write_data
                0x00000000808251ee       0x8a drivers/built-in.o
 .text.read_sr  0x0000000080825278       0x8c drivers/built-in.o
 .text.spi_nor_check_op
                0x0000000080825304       0x44 drivers/built-in.o
 .text.spi_nor_default_setup
                0x0000000080825348      0x208 drivers/built-in.o
 .text.spi_nor_read_reg
                0x0000000080825550       0x48 drivers/built-in.o
 .text.spi_nor_write_reg
                0x0000000080825598       0x4a drivers/built-in.o
 *fill*         0x00000000808255e2        0x2 
 .text.spi_nor_wait_till_ready_with_timeout.constprop.0
                0x00000000808255e4      0x10c drivers/built-in.o
 .text.spansion_read_cr_quad_enable
                0x00000000808256f0       0x62 drivers/built-in.o
 .text.spi_nor_write
                0x0000000080825752      0x16a drivers/built-in.o
 .text.spi_nor_erase
                0x00000000808258bc       0xce drivers/built-in.o
 .text.spi_nor_remove
                0x000000008082598a        0x4 drivers/built-in.o
                0x000000008082598a                spi_nor_remove
 *fill*         0x000000008082598e        0x2 
 .text.spi_nor_scan
                0x0000000080825990      0x544 drivers/built-in.o
                0x0000000080825990                spi_nor_scan
 .text.timer_post_probe
                0x0000000080825ed4       0x14 drivers/built-in.o
 .text.timer_pre_probe
                0x0000000080825ee8       0x4c drivers/built-in.o
 .text.timer_get_count
                0x0000000080825f34       0x1c drivers/built-in.o
                0x0000000080825f34                timer_get_count
 .text.timer_get_rate
                0x0000000080825f50        0x6 drivers/built-in.o
                0x0000000080825f50                timer_get_rate
 .text.timer_conv_64
                0x0000000080825f56       0x20 drivers/built-in.o
                0x0000000080825f56                timer_conv_64
 *fill*         0x0000000080825f76        0x2 
 .text.dm_timer_init
                0x0000000080825f78       0x74 drivers/built-in.o
                0x0000000080825f78                dm_timer_init
 .text.omap_timer_get_count
                0x0000000080825fec       0x16 drivers/built-in.o
 .text.omap_timer_ofdata_to_platdata
                0x0000000080826002       0x16 drivers/built-in.o
 .text.omap_timer_probe
                0x0000000080826018       0x44 drivers/built-in.o
 .text.get_desc
                0x000000008082605c       0x6a drivers/built-in.o
 .text.blk_post_probe
                0x00000000808260c6        0xe drivers/built-in.o
 .text.blk_get_if_type_name
                0x00000000808260d4        0xc drivers/built-in.o
                0x00000000808260d4                blk_get_if_type_name
 .text.blk_get_devnum_by_typename
                0x00000000808260e0       0x84 drivers/built-in.o
                0x00000000808260e0                blk_get_devnum_by_typename
 .text.blk_list_part
                0x0000000080826164       0x3e drivers/built-in.o
                0x0000000080826164                blk_list_part
 .text.blk_print_part_devnum
                0x00000000808261a2       0x24 drivers/built-in.o
                0x00000000808261a2                blk_print_part_devnum
 *fill*         0x00000000808261c6        0x2 
 .text.blk_list_devices
                0x00000000808261c8       0x3c drivers/built-in.o
                0x00000000808261c8                blk_list_devices
 .text.blk_print_device_num
                0x0000000080826204       0x28 drivers/built-in.o
                0x0000000080826204                blk_print_device_num
 .text.blk_show_device
                0x000000008082622c       0x54 drivers/built-in.o
                0x000000008082622c                blk_show_device
 .text.blk_select_hwpart
                0x0000000080826280       0x16 drivers/built-in.o
                0x0000000080826280                blk_select_hwpart
 .text.blk_dselect_hwpart
                0x0000000080826296        0x6 drivers/built-in.o
                0x0000000080826296                blk_dselect_hwpart
 .text.blk_first_device
                0x000000008082629c       0x36 drivers/built-in.o
                0x000000008082629c                blk_first_device
 .text.blk_next_device
                0x00000000808262d2       0x2e drivers/built-in.o
                0x00000000808262d2                blk_next_device
 .text.blk_find_device
                0x0000000080826300       0x50 drivers/built-in.o
                0x0000000080826300                blk_find_device
 .text.blk_get_device
                0x0000000080826350       0x16 drivers/built-in.o
                0x0000000080826350                blk_get_device
 .text.blk_get_devnum_by_type
                0x0000000080826366       0x1a drivers/built-in.o
                0x0000000080826366                blk_get_devnum_by_type
 .text.blk_select_hwpart_devnum
                0x0000000080826380       0x18 drivers/built-in.o
                0x0000000080826380                blk_select_hwpart_devnum
 .text.blk_dread
                0x0000000080826398       0x6a drivers/built-in.o
                0x0000000080826398                blk_dread
 .text.blk_read_devnum
                0x0000000080826402       0x1e drivers/built-in.o
                0x0000000080826402                blk_read_devnum
 .text.blk_dwrite
                0x0000000080826420       0x3c drivers/built-in.o
                0x0000000080826420                blk_dwrite
 .text.blk_write_devnum
                0x000000008082645c       0x1e drivers/built-in.o
                0x000000008082645c                blk_write_devnum
 .text.blk_derase
                0x000000008082647a       0x30 drivers/built-in.o
                0x000000008082647a                blk_derase
 .text.blk_find_max_devnum
                0x00000000808264aa       0x46 drivers/built-in.o
                0x00000000808264aa                blk_find_max_devnum
 .text.blk_next_free_devnum
                0x00000000808264f0       0x18 drivers/built-in.o
                0x00000000808264f0                blk_next_free_devnum
 .text.blk_create_device
                0x0000000080826508       0xe4 drivers/built-in.o
                0x0000000080826508                blk_create_device
 .text.blk_create_devicef
                0x00000000808265ec       0x6c drivers/built-in.o
                0x00000000808265ec                blk_create_devicef
 .text.blkcache_read
                0x0000000080826658       0x94 drivers/built-in.o
                0x0000000080826658                blkcache_read
 .text.blkcache_fill
                0x00000000808266ec       0xc0 drivers/built-in.o
                0x00000000808266ec                blkcache_fill
 .text.blkcache_invalidate
                0x00000000808267ac       0x60 drivers/built-in.o
                0x00000000808267ac                blkcache_invalidate
 .text.blkcache_configure
                0x000000008082680c       0x5c drivers/built-in.o
                0x000000008082680c                blkcache_configure
 .text.blkcache_stats
                0x0000000080826868       0x18 drivers/built-in.o
                0x0000000080826868                blkcache_stats
 .text.bootcount_store
                0x0000000080826880       0x3c drivers/built-in.o
                0x0000000080826880                bootcount_store
 .text.bootcount_load
                0x00000000808268bc       0x20 drivers/built-in.o
                0x00000000808268bc                bootcount_load
 .text.mod_exp_sw
                0x00000000808268dc        0xc drivers/built-in.o
 .text.fastboot_response
                0x00000000808268e8       0x3e drivers/built-in.o
                0x00000000808268e8                fastboot_response
 *fill*         0x0000000080826926        0x2 
 .text.fastboot_fail
                0x0000000080826928       0x14 drivers/built-in.o
                0x0000000080826928                fastboot_fail
 .text.fastboot_okay
                0x000000008082693c       0x1c drivers/built-in.o
                0x000000008082693c                fastboot_okay
 .text.fastboot_set_reboot_flag
                0x0000000080826958        0x6 drivers/built-in.o
                0x0000000080826958                fastboot_set_reboot_flag
 *fill*         0x000000008082695e        0x2 
 .text.fastboot_boot
                0x0000000080826960       0x60 drivers/built-in.o
                0x0000000080826960                fastboot_boot
 .text.fastboot_init
                0x00000000808269c0       0x2c drivers/built-in.o
                0x00000000808269c0                fastboot_init
 .text.getvar_downloadsize
                0x00000000808269ec       0x18 drivers/built-in.o
 .text.getvar_is_userspace
                0x0000000080826a04        0xc drivers/built-in.o
 .text.getvar_current_slot
                0x0000000080826a10        0xc drivers/built-in.o
 .text.getvar_platform
                0x0000000080826a1c       0x28 drivers/built-in.o
 .text.getvar_product
                0x0000000080826a44       0x28 drivers/built-in.o
 .text.getvar_version_baseband
                0x0000000080826a6c        0xc drivers/built-in.o
 .text.getvar_serialno
                0x0000000080826a78       0x28 drivers/built-in.o
 .text.getvar_version_bootloader
                0x0000000080826aa0        0xc drivers/built-in.o
 .text.getvar_version
                0x0000000080826aac        0xc drivers/built-in.o
 .text.getvar_partition_type
                0x0000000080826ab8       0x3c drivers/built-in.o
 .text.getvar_partition_size
                0x0000000080826af4       0x30 drivers/built-in.o
 .text.getvar_has_slot
                0x0000000080826b24       0x70 drivers/built-in.o
 .text.fastboot_getvar
                0x0000000080826b94       0x88 drivers/built-in.o
                0x0000000080826b94                fastboot_getvar
 .text.oem_format
                0x0000000080826c1c       0x4c drivers/built-in.o
 .text.okay     0x0000000080826c68        0x6 drivers/built-in.o
 *fill*         0x0000000080826c6e        0x2 
 .text.reboot_recovery
                0x0000000080826c70       0x24 drivers/built-in.o
 .text.reboot_fastbootd
                0x0000000080826c94       0x24 drivers/built-in.o
 .text.reboot_bootloader
                0x0000000080826cb8       0x24 drivers/built-in.o
 .text.erase    0x0000000080826cdc        0x4 drivers/built-in.o
 .text.flash    0x0000000080826ce0       0x18 drivers/built-in.o
 .text.download
                0x0000000080826cf8       0x70 drivers/built-in.o
 .text.getvar   0x0000000080826d68        0x4 drivers/built-in.o
 .text.fastboot_handle_command
                0x0000000080826d6c       0x54 drivers/built-in.o
                0x0000000080826d6c                fastboot_handle_command
 .text.fastboot_data_remaining
                0x0000000080826dc0       0x14 drivers/built-in.o
                0x0000000080826dc0                fastboot_data_remaining
 .text.fastboot_data_download
                0x0000000080826dd4       0x70 drivers/built-in.o
                0x0000000080826dd4                fastboot_data_download
 .text.fastboot_data_complete
                0x0000000080826e44       0x40 drivers/built-in.o
                0x0000000080826e44                fastboot_data_complete
 .text.fb_mmc_sparse_reserve
                0x0000000080826e84        0x4 drivers/built-in.o
 .text.part_get_info_by_name_or_alias
                0x0000000080826e88       0x44 drivers/built-in.o
 .text.fb_mmc_blk_write
                0x0000000080826ecc       0x70 drivers/built-in.o
 .text.fb_mmc_sparse_write
                0x0000000080826f3c        0x8 drivers/built-in.o
 .text.raw_part_get_info_by_name.isra.0
                0x0000000080826f44       0xb8 drivers/built-in.o
 .text.fastboot_mmc_get_part_info
                0x0000000080826ffc       0x80 drivers/built-in.o
                0x0000000080826ffc                fastboot_mmc_get_part_info
 .text.fastboot_mmc_flash_write
                0x000000008082707c      0x43c drivers/built-in.o
                0x000000008082707c                fastboot_mmc_flash_write
 .text.fastboot_mmc_erase
                0x00000000808274b8       0xe8 drivers/built-in.o
                0x00000000808274b8                fastboot_mmc_erase
 .text.mmc_send_cmd_retry
                0x00000000808275a0       0x1c drivers/built-in.o
 .text.mmc_send_op_cond_iter
                0x00000000808275bc       0x44 drivers/built-in.o
 .text.mmc_go_idle
                0x0000000080827600       0x32 drivers/built-in.o
 .text.mmc_set_capacity
                0x0000000080827632       0x6c drivers/built-in.o
 .text.mmc_send_cmd_quirks.constprop.0
                0x000000008082769e       0x14 drivers/built-in.o
 *fill*         0x00000000808276b2        0x2 
 .text.mmc_mode_name
                0x00000000808276b4       0x18 drivers/built-in.o
                0x00000000808276b4                mmc_mode_name
 .text.mmc_send_status
                0x00000000808276cc       0x2e drivers/built-in.o
                0x00000000808276cc                mmc_send_status
 .text.__mmc_switch.constprop.0
                0x00000000808276fa       0xb2 drivers/built-in.o
 .text.mmc_poll_for_busy
                0x00000000808277ac       0x64 drivers/built-in.o
                0x00000000808277ac                mmc_poll_for_busy
 .text.mmc_set_blocklen
                0x0000000080827810       0x28 drivers/built-in.o
                0x0000000080827810                mmc_set_blocklen
 .text.mmc_bread
                0x0000000080827838       0xd2 drivers/built-in.o
                0x0000000080827838                mmc_bread
 .text.mmc_send_ext_csd
                0x000000008082790a       0x2e drivers/built-in.o
                0x000000008082790a                mmc_send_ext_csd
 .text.mmc_read_and_compare_ext_csd
                0x0000000080827938       0x78 drivers/built-in.o
 .text.mmc_set_card_speed.constprop.0
                0x00000000808279b0       0x68 drivers/built-in.o
 .text.mmc_switch
                0x0000000080827a18        0x4 drivers/built-in.o
                0x0000000080827a18                mmc_switch
 .text.mmc_startup_v4
                0x0000000080827a1c      0x298 drivers/built-in.o
 .text.mmc_boot_wp
                0x0000000080827cb4        0xa drivers/built-in.o
                0x0000000080827cb4                mmc_boot_wp
 .text.mmc_switch_part
                0x0000000080827cbe       0x56 drivers/built-in.o
                0x0000000080827cbe                mmc_switch_part
 .text.mmc_set_clock
                0x0000000080827d14       0x20 drivers/built-in.o
                0x0000000080827d14                mmc_set_clock
 .text.mmc_startup
                0x0000000080827d34      0x860 drivers/built-in.o
 .text.mmc_dump_capabilities
                0x0000000080828594        0x2 drivers/built-in.o
                0x0000000080828594                mmc_dump_capabilities
 *fill*         0x0000000080828596        0x2 
 .text.mmc_get_op_cond
                0x0000000080828598      0x1a4 drivers/built-in.o
                0x0000000080828598                mmc_get_op_cond
 .text.mmc_start_init
                0x000000008082873c       0x38 drivers/built-in.o
                0x000000008082873c                mmc_start_init
 .text.mmc_init
                0x0000000080828774       0xa6 drivers/built-in.o
                0x0000000080828774                mmc_init
 .text.mmc_set_dsr
                0x000000008082881a        0x6 drivers/built-in.o
                0x000000008082881a                mmc_set_dsr
 .text.mmc_initialize
                0x0000000080828820       0x64 drivers/built-in.o
                0x0000000080828820                mmc_initialize
 .text.mmc_get_env_dev
                0x0000000080828884        0x4 drivers/built-in.o
                0x0000000080828884                mmc_get_env_dev
 .text.mmc_blk_probe
                0x0000000080828888       0x14 drivers/built-in.o
 .text.dm_mmc_set_ios
                0x000000008082889c       0x10 drivers/built-in.o
                0x000000008082889c                dm_mmc_set_ios
 .text.mmc_set_ios
                0x00000000808288ac        0x8 drivers/built-in.o
                0x00000000808288ac                mmc_set_ios
 .text.dm_mmc_wait_dat0
                0x00000000808288b4       0x10 drivers/built-in.o
                0x00000000808288b4                dm_mmc_wait_dat0
 .text.mmc_wait_dat0
                0x00000000808288c4        0x8 drivers/built-in.o
                0x00000000808288c4                mmc_wait_dat0
 .text.dm_mmc_get_wp
                0x00000000808288cc       0x10 drivers/built-in.o
                0x00000000808288cc                dm_mmc_get_wp
 .text.mmc_getwp
                0x00000000808288dc        0x8 drivers/built-in.o
                0x00000000808288dc                mmc_getwp
 .text.dm_mmc_get_cd
                0x00000000808288e4       0x10 drivers/built-in.o
                0x00000000808288e4                dm_mmc_get_cd
 .text.mmc_getcd
                0x00000000808288f4        0x8 drivers/built-in.o
                0x00000000808288f4                mmc_getcd
 .text.dm_mmc_host_power_cycle
                0x00000000808288fc        0xe drivers/built-in.o
                0x00000000808288fc                dm_mmc_host_power_cycle
 .text.mmc_host_power_cycle
                0x000000008082890a        0x8 drivers/built-in.o
                0x000000008082890a                mmc_host_power_cycle
 .text.dm_mmc_deferred_probe
                0x0000000080828912        0xe drivers/built-in.o
                0x0000000080828912                dm_mmc_deferred_probe
 .text.mmc_deferred_probe
                0x0000000080828920        0x8 drivers/built-in.o
                0x0000000080828920                mmc_deferred_probe
 .text.dm_mmc_reinit
                0x0000000080828928        0xe drivers/built-in.o
                0x0000000080828928                dm_mmc_reinit
 .text.mmc_reinit
                0x0000000080828936        0x8 drivers/built-in.o
                0x0000000080828936                mmc_reinit
 *fill*         0x000000008082893e        0x2 
 .text.mmc_of_parse
                0x0000000080828940      0x1e4 drivers/built-in.o
                0x0000000080828940                mmc_of_parse
 .text.mmc_get_mmc_dev
                0x0000000080828b24       0x16 drivers/built-in.o
                0x0000000080828b24                mmc_get_mmc_dev
 .text.dm_mmc_get_b_max
                0x0000000080828b3a       0x2a drivers/built-in.o
                0x0000000080828b3a                dm_mmc_get_b_max
 .text.mmc_get_b_max
                0x0000000080828b64        0x8 drivers/built-in.o
                0x0000000080828b64                mmc_get_b_max
 .text.dm_mmc_send_cmd
                0x0000000080828b6c       0x26 drivers/built-in.o
                0x0000000080828b6c                dm_mmc_send_cmd
 .text.mmc_send_cmd
                0x0000000080828b92        0x8 drivers/built-in.o
                0x0000000080828b92                mmc_send_cmd
 .text.mmc_select_hwpart
                0x0000000080828b9a       0x48 drivers/built-in.o
 *fill*         0x0000000080828be2        0x2 
 .text.find_mmc_device
                0x0000000080828be4       0x30 drivers/built-in.o
                0x0000000080828be4                find_mmc_device
 .text.get_mmc_num
                0x0000000080828c14       0x10 drivers/built-in.o
                0x0000000080828c14                get_mmc_num
 .text.mmc_get_blk_desc
                0x0000000080828c24       0x1a drivers/built-in.o
                0x0000000080828c24                mmc_get_blk_desc
 .text.mmc_do_preinit
                0x0000000080828c3e       0x40 drivers/built-in.o
                0x0000000080828c3e                mmc_do_preinit
 *fill*         0x0000000080828c7e        0x2 
 .text.print_mmc_devices
                0x0000000080828c80       0x98 drivers/built-in.o
                0x0000000080828c80                print_mmc_devices
 .text.mmc_bind
                0x0000000080828d18       0x68 drivers/built-in.o
                0x0000000080828d18                mmc_bind
 .text.mmc_berase
                0x0000000080828d80      0x11c drivers/built-in.o
                0x0000000080828d80                mmc_berase
 .text.mmc_bwrite
                0x0000000080828e9c      0x10c drivers/built-in.o
                0x0000000080828e9c                mmc_bwrite
 .text.mmc_reset_controller_fsm
                0x0000000080828fa8       0x7c drivers/built-in.o
 .text.omap_hsmmc_wait_dat0
                0x0000000080829024       0x68 drivers/built-in.o
 .text.omap_hsmmc_getwp
                0x000000008082908c       0x12 drivers/built-in.o
 .text.omap_hsmmc_getcd
                0x000000008082909e       0x14 drivers/built-in.o
 *fill*         0x00000000808290b2        0x2 
 .text.omap_hsmmc_ofdata_to_platdata
                0x00000000808290b4       0xa0 drivers/built-in.o
 .text.omap_hsmmc_bind
                0x0000000080829154       0x24 drivers/built-in.o
 .text.omap_hsmmc_send_cmd
                0x0000000080829178      0x388 drivers/built-in.o
 .text.omap_hsmmc_set_ios
                0x0000000080829500      0x24c drivers/built-in.o
 .text.omap_hsmmc_probe
                0x000000008082974c      0x260 drivers/built-in.o
 .text.rtc_month_days
                0x00000000808299ac       0x38 drivers/built-in.o
                0x00000000808299ac                rtc_month_days
 .text.rtc_to_tm
                0x00000000808299e4      0x13c drivers/built-in.o
                0x00000000808299e4                rtc_to_tm
 .text.wdt_post_bind
                0x0000000080829b20        0x4 drivers/built-in.o
 .text.wdt_start
                0x0000000080829b24       0x10 drivers/built-in.o
                0x0000000080829b24                wdt_start
 .text.initr_watchdog
                0x0000000080829b34       0x98 drivers/built-in.o
                0x0000000080829b34                initr_watchdog
 .text.wdt_reset
                0x0000000080829bcc       0x10 drivers/built-in.o
                0x0000000080829bcc                wdt_reset
 .text.watchdog_reset
                0x0000000080829bdc       0x40 drivers/built-in.o
                0x0000000080829bdc                watchdog_reset
 .text.omap3_wdt_reset
                0x0000000080829c1c       0x24 drivers/built-in.o
 .text.omap3_wdt_stop
                0x0000000080829c40       0x3a drivers/built-in.o
 .text.omap3_wdt_start
                0x0000000080829c7a       0xc2 drivers/built-in.o
 .text.omap3_wdt_probe
                0x0000000080829d3c       0x24 drivers/built-in.o
 .text._gpio_get_value
                0x0000000080829d60       0x1e drivers/gpio/built-in.o
 .text.gpio_post_bind
                0x0000000080829d7e        0x4 drivers/gpio/built-in.o
 .text._dm_gpio_set_dir_flags
                0x0000000080829d82       0x74 drivers/gpio/built-in.o
 .text.get_function
                0x0000000080829df6       0x5e drivers/gpio/built-in.o
 .text.gpio_to_device
                0x0000000080829e54       0x48 drivers/gpio/built-in.o
 .text.check_reserved
                0x0000000080829e9c       0x4c drivers/gpio/built-in.o
 .text.gpio_renumber
                0x0000000080829ee8       0x46 drivers/gpio/built-in.o
 .text.gpio_pre_remove
                0x0000000080829f2e       0x30 drivers/gpio/built-in.o
 .text.gpio_post_probe
                0x0000000080829f5e       0x24 drivers/gpio/built-in.o
 *fill*         0x0000000080829f82        0x2 
 .text.dm_gpio_lookup_name
                0x0000000080829f84       0xa0 drivers/gpio/built-in.o
                0x0000000080829f84                dm_gpio_lookup_name
 .text.gpio_lookup_name
                0x000000008082a024       0x3c drivers/gpio/built-in.o
                0x000000008082a024                gpio_lookup_name
 .text.gpio_xlate_offs_flags
                0x000000008082a060       0x5c drivers/gpio/built-in.o
                0x000000008082a060                gpio_xlate_offs_flags
 .text.dm_gpio_request
                0x000000008082a0bc       0x62 drivers/gpio/built-in.o
                0x000000008082a0bc                dm_gpio_request
 .text.dm_gpio_requestf
                0x000000008082a11e       0x2a drivers/gpio/built-in.o
 .text.gpio_request
                0x000000008082a148       0x18 drivers/gpio/built-in.o
                0x000000008082a148                gpio_request
 .text._dm_gpio_free
                0x000000008082a160       0x42 drivers/gpio/built-in.o
                0x000000008082a160                _dm_gpio_free
 .text.gpio_free
                0x000000008082a1a2       0x18 drivers/gpio/built-in.o
                0x000000008082a1a2                gpio_free
 *fill*         0x000000008082a1ba        0x2 
 .text.gpio_direction_input
                0x000000008082a1bc       0x2c drivers/gpio/built-in.o
                0x000000008082a1bc                gpio_direction_input
 .text.gpio_direction_output
                0x000000008082a1e8       0x2c drivers/gpio/built-in.o
                0x000000008082a1e8                gpio_direction_output
 .text.dm_gpio_get_value
                0x000000008082a214       0x1c drivers/gpio/built-in.o
                0x000000008082a214                dm_gpio_get_value
 .text.dm_gpio_set_value
                0x000000008082a230       0x60 drivers/gpio/built-in.o
                0x000000008082a230                dm_gpio_set_value
 .text.dm_gpio_set_dir_flags
                0x000000008082a290       0x24 drivers/gpio/built-in.o
                0x000000008082a290                dm_gpio_set_dir_flags
 .text.gpio_request_tail
                0x000000008082a2b4       0x8c drivers/gpio/built-in.o
 .text._gpio_request_by_name_nodev
                0x000000008082a340       0x50 drivers/gpio/built-in.o
 .text.gpio_get_value
                0x000000008082a390       0x16 drivers/gpio/built-in.o
                0x000000008082a390                gpio_get_value
 .text.gpio_set_value
                0x000000008082a3a6       0x18 drivers/gpio/built-in.o
                0x000000008082a3a6                gpio_set_value
 .text.gpio_get_bank_info
                0x000000008082a3be       0x10 drivers/gpio/built-in.o
                0x000000008082a3be                gpio_get_bank_info
 .text.gpio_get_function
                0x000000008082a3ce        0x8 drivers/gpio/built-in.o
                0x000000008082a3ce                gpio_get_function
 .text.gpio_get_raw_function
                0x000000008082a3d6        0x8 drivers/gpio/built-in.o
                0x000000008082a3d6                gpio_get_raw_function
 *fill*         0x000000008082a3de        0x2 
 .text.gpio_get_status
                0x000000008082a3e0       0xbc drivers/gpio/built-in.o
                0x000000008082a3e0                gpio_get_status
 .text.gpio_request_by_name
                0x000000008082a49c       0x54 drivers/gpio/built-in.o
                0x000000008082a49c                gpio_request_by_name
 .text.gpio_get_list_count
                0x000000008082a4f0       0x28 drivers/gpio/built-in.o
                0x000000008082a4f0                gpio_get_list_count
 .text.dm_gpio_free
                0x000000008082a518        0xa drivers/gpio/built-in.o
                0x000000008082a518                dm_gpio_free
 .text.gpio_free_list
                0x000000008082a522       0x28 drivers/gpio/built-in.o
                0x000000008082a522                gpio_free_list
 .text.gpio_free_list_nodev
                0x000000008082a54a        0xa drivers/gpio/built-in.o
                0x000000008082a54a                gpio_free_list_nodev
 .text.gpio_request_list_by_name_nodev
                0x000000008082a554       0x50 drivers/gpio/built-in.o
                0x000000008082a554                gpio_request_list_by_name_nodev
 .text.gpio_request_list_by_name
                0x000000008082a5a4        0x6 drivers/gpio/built-in.o
                0x000000008082a5a4                gpio_request_list_by_name
 .text.omap_gpio_direction_input
                0x000000008082a5aa       0x1e drivers/gpio/built-in.o
 .text.omap_gpio_ofdata_to_platdata
                0x000000008082a5c8       0x1e drivers/gpio/built-in.o
 *fill*         0x000000008082a5e6        0x2 
 .text.omap_gpio_probe
                0x000000008082a5e8       0x48 drivers/gpio/built-in.o
 .text.omap_gpio_direction_output
                0x000000008082a630       0x32 drivers/gpio/built-in.o
 .text.omap_gpio_get_value
                0x000000008082a662       0x2c drivers/gpio/built-in.o
 .text.omap_gpio_get_function
                0x000000008082a68e       0x1e drivers/gpio/built-in.o
 .text.omap_gpio_set_value
                0x000000008082a6ac       0x22 drivers/gpio/built-in.o
 .text.i2c_setup_offset
                0x000000008082a6ce       0x42 drivers/i2c/built-in.o
 .text.i2c_probe_chip
                0x000000008082a710       0x44 drivers/i2c/built-in.o
 .text.i2c_uclass_init
                0x000000008082a754       0x20 drivers/i2c/built-in.o
                0x000000008082a754                i2c_uclass_init
 .text.i2c_pre_probe
                0x000000008082a774       0x48 drivers/i2c/built-in.o
 .text.i2c_post_bind
                0x000000008082a7bc       0x1e drivers/i2c/built-in.o
 .text.dm_i2c_read
                0x000000008082a7da       0xe2 drivers/i2c/built-in.o
                0x000000008082a7da                dm_i2c_read
 .text.dm_i2c_write
                0x000000008082a8bc      0x136 drivers/i2c/built-in.o
                0x000000008082a8bc                dm_i2c_write
 .text.dm_i2c_reg_read
                0x000000008082a9f2       0x1a drivers/i2c/built-in.o
                0x000000008082a9f2                dm_i2c_reg_read
 .text.dm_i2c_reg_write
                0x000000008082aa0c       0x16 drivers/i2c/built-in.o
                0x000000008082aa0c                dm_i2c_reg_write
 *fill*         0x000000008082aa22        0x2 
 .text.i2c_get_chip
                0x000000008082aa24       0xa0 drivers/i2c/built-in.o
                0x000000008082aa24                i2c_get_chip
 .text.i2c_get_chip_for_busnum
                0x000000008082aac4       0x30 drivers/i2c/built-in.o
                0x000000008082aac4                i2c_get_chip_for_busnum
 .text.dm_i2c_probe
                0x000000008082aaf4       0x24 drivers/i2c/built-in.o
                0x000000008082aaf4                dm_i2c_probe
 .text.dm_i2c_set_bus_speed
                0x000000008082ab18       0x26 drivers/i2c/built-in.o
                0x000000008082ab18                dm_i2c_set_bus_speed
 *fill*         0x000000008082ab3e        0x2 
 .text.i2c_post_probe
                0x000000008082ab40       0x2c drivers/i2c/built-in.o
 .text.dm_i2c_get_bus_speed
                0x000000008082ab6c       0x1c drivers/i2c/built-in.o
                0x000000008082ab6c                dm_i2c_get_bus_speed
 .text.i2c_set_chip_flags
                0x000000008082ab88       0x28 drivers/i2c/built-in.o
                0x000000008082ab88                i2c_set_chip_flags
 .text.i2c_get_chip_flags
                0x000000008082abb0       0x10 drivers/i2c/built-in.o
                0x000000008082abb0                i2c_get_chip_flags
 .text.i2c_set_chip_offset_len
                0x000000008082abc0       0x16 drivers/i2c/built-in.o
                0x000000008082abc0                i2c_set_chip_offset_len
 .text.i2c_get_chip_offset_len
                0x000000008082abd6        0xa drivers/i2c/built-in.o
                0x000000008082abd6                i2c_get_chip_offset_len
 .text.i2c_deblock
                0x000000008082abe0       0x50 drivers/i2c/built-in.o
                0x000000008082abe0                i2c_deblock
 .text.i2c_chip_ofdata_to_platdata
                0x000000008082ac30       0x38 drivers/i2c/built-in.o
                0x000000008082ac30                i2c_chip_ofdata_to_platdata
 .text.i2c_child_post_bind
                0x000000008082ac68       0x1e drivers/i2c/built-in.o
 *fill*         0x000000008082ac86        0x2 
 .text.__omap24_i2c_setspeed
                0x000000008082ac88      0x12c drivers/i2c/built-in.o
 .text.omap_i2c_set_bus_speed
                0x000000008082adb4       0x1c drivers/i2c/built-in.o
 .text.wait_for_bb
                0x000000008082add0       0x84 drivers/i2c/built-in.o
 .text.wait_for_event
                0x000000008082ae54       0x78 drivers/i2c/built-in.o
 .text.flush_fifo
                0x000000008082aecc       0x40 drivers/i2c/built-in.o
 .text.omap_i2c_probe_chip
                0x000000008082af0c       0xcc drivers/i2c/built-in.o
 .text.omap_i2c_ofdata_to_platdata
                0x000000008082afd8       0x34 drivers/i2c/built-in.o
 .text.omap_i2c_xfer
                0x000000008082b00c      0x24c drivers/i2c/built-in.o
 .text.omap_i2c_probe
                0x000000008082b258      0x278 drivers/i2c/built-in.o
 .text.cpsw_ale_read.isra.0
                0x000000008082b4d0       0x1c drivers/net/built-in.o
 .text.cpsw_ale_match_free
                0x000000008082b4ec       0x32 drivers/net/built-in.o
 .text.cpsw_ale_find_ageable
                0x000000008082b51e       0x38 drivers/net/built-in.o
 .text.cpsw_ale_match_addr
                0x000000008082b556       0x6e drivers/net/built-in.o
 .text.cpdma_submit
                0x000000008082b5c4       0x4e drivers/net/built-in.o
 .text.cpsw_eth_free_pkt
                0x000000008082b612       0x1a drivers/net/built-in.o
 .text.cpsw_eth_recv
                0x000000008082b62c       0x52 drivers/net/built-in.o
 *fill*         0x000000008082b67e        0x2 
 .text.cpsw_gmii_sel_am3352.isra.0
                0x000000008082b680       0x84 drivers/net/built-in.o
 .text.cpsw_eth_ofdata_to_platdata
                0x000000008082b704      0x2b8 drivers/net/built-in.o
 .text.cpsw_ale_add_mcast.constprop.0
                0x000000008082b9bc       0xcc drivers/net/built-in.o
 .text.cpsw_reap_completed_packets
                0x000000008082ba88       0x34 drivers/net/built-in.o
 .text.cpsw_eth_stop
                0x000000008082babc       0x38 drivers/net/built-in.o
 .text.cpsw_eth_send
                0x000000008082baf4       0x48 drivers/net/built-in.o
 .text.cpsw_eth_start
                0x000000008082bb3c      0x3c4 drivers/net/built-in.o
 .text._cpsw_register
                0x000000008082bf00      0x180 drivers/net/built-in.o
                0x000000008082bf00                _cpsw_register
 .text.cpsw_eth_probe
                0x000000008082c080       0xac drivers/net/built-in.o
 .text.cpsw_get_slave_phy_addr
                0x000000008082c12c       0x16 drivers/net/built-in.o
                0x000000008082c12c                cpsw_get_slave_phy_addr
 *fill*         0x000000008082c142        0x2 
 .text.ti_cm_get_macid
                0x000000008082c144       0x6c drivers/net/built-in.o
                0x000000008082c144                ti_cm_get_macid
 .text.ti_cm_get_macid_addr
                0x000000008082c1b0       0xcc drivers/net/built-in.o
                0x000000008082c1b0                ti_cm_get_macid_addr
 .text.cpsw_mdio_wait_for_user_access.isra.0
                0x000000008082c27c       0x38 drivers/net/built-in.o
 .text.cpsw_mdio_read
                0x000000008082c2b4       0x52 drivers/net/built-in.o
 .text.cpsw_mdio_write
                0x000000008082c306       0x42 drivers/net/built-in.o
 .text.cpsw_mdio_get_alive
                0x000000008082c348        0xe drivers/net/built-in.o
                0x000000008082c348                cpsw_mdio_get_alive
 *fill*         0x000000008082c356        0x2 
 .text.cpsw_mdio_init
                0x000000008082c358       0xdc drivers/net/built-in.o
                0x000000008082c358                cpsw_mdio_init
 .text.genphy_shutdown
                0x000000008082c434        0x4 drivers/net/phy/built-in.o
                0x000000008082c434                genphy_shutdown
 .text.genphy_restart_aneg
                0x000000008082c438       0x48 drivers/net/phy/built-in.o
                0x000000008082c438                genphy_restart_aneg
 .text.genphy_config_aneg
                0x000000008082c480      0x19c drivers/net/phy/built-in.o
                0x000000008082c480                genphy_config_aneg
 .text.genphy_config
                0x000000008082c61c       0xa4 drivers/net/phy/built-in.o
                0x000000008082c61c                genphy_config
 .text.genphy_update_link
                0x000000008082c6c0       0xf4 drivers/net/phy/built-in.o
                0x000000008082c6c0                genphy_update_link
 .text.genphy_parse_link
                0x000000008082c7b4      0x14a drivers/net/phy/built-in.o
                0x000000008082c7b4                genphy_parse_link
 .text.genphy_startup
                0x000000008082c8fe       0x16 drivers/net/phy/built-in.o
                0x000000008082c8fe                genphy_startup
 .text.phy_register
                0x000000008082c914       0x18 drivers/net/phy/built-in.o
                0x000000008082c914                phy_register
 .text.genphy_init
                0x000000008082c92c        0xc drivers/net/phy/built-in.o
                0x000000008082c92c                genphy_init
 .text.phy_init
                0x000000008082c938       0x12 drivers/net/phy/built-in.o
                0x000000008082c938                phy_init
 *fill*         0x000000008082c94a        0x2 
 .text.phy_set_supported
                0x000000008082c94c       0x38 drivers/net/phy/built-in.o
                0x000000008082c94c                phy_set_supported
 .text.get_phy_id
                0x000000008082c984       0x3e drivers/net/phy/built-in.o
                0x000000008082c984                get_phy_id
 *fill*         0x000000008082c9c2        0x2 
 .text.get_phy_device_by_mask
                0x000000008082c9c4      0x230 drivers/net/phy/built-in.o
 .text.phy_reset
                0x000000008082cbf4       0x8c drivers/net/phy/built-in.o
                0x000000008082cbf4                phy_reset
 .text.phy_find_by_mask
                0x000000008082cc80       0x24 drivers/net/phy/built-in.o
                0x000000008082cc80                phy_find_by_mask
 .text.phy_connect_dev
                0x000000008082cca4       0x30 drivers/net/phy/built-in.o
                0x000000008082cca4                phy_connect_dev
 .text.phy_connect
                0x000000008082ccd4       0x3c drivers/net/phy/built-in.o
                0x000000008082ccd4                phy_connect
 .text.phy_startup
                0x000000008082cd10        0xc drivers/net/phy/built-in.o
                0x000000008082cd10                phy_startup
 .text.board_phy_config
                0x000000008082cd1c        0xc drivers/net/phy/built-in.o
                0x000000008082cd1c                board_phy_config
 .text.phy_config
                0x000000008082cd28        0x4 drivers/net/phy/built-in.o
                0x000000008082cd28                phy_config
 .text.phy_get_interface_by_name
                0x000000008082cd2c       0x28 drivers/net/phy/built-in.o
                0x000000008082cd2c                phy_get_interface_by_name
 .text.ar803x_debug_reg_mask
                0x000000008082cd54       0x66 drivers/net/phy/built-in.o
 .text.ar8021_config
                0x000000008082cdba       0x36 drivers/net/phy/built-in.o
 .text.ar803x_config
                0x000000008082cdf0      0x324 drivers/net/phy/built-in.o
 .text.phy_atheros_init
                0x000000008082d114       0x24 drivers/net/phy/built-in.o
                0x000000008082d114                phy_atheros_init
 .text.smsc_startup
                0x000000008082d138       0x42 drivers/net/phy/built-in.o
 *fill*         0x000000008082d17a        0x2 
 .text.phy_smsc_init
                0x000000008082d17c       0x44 drivers/net/phy/built-in.o
                0x000000008082d17c                phy_smsc_init
 .text._serial_putc
                0x000000008082d1c0       0x22 drivers/serial/built-in.o
 .text.__serial_tstc
                0x000000008082d1e2       0x10 drivers/serial/built-in.o
 .text.serial_stub_putc
                0x000000008082d1f2        0x6 drivers/serial/built-in.o
 .text.serial_stub_tstc
                0x000000008082d1f8        0x6 drivers/serial/built-in.o
 .text.serial_pre_remove
                0x000000008082d1fe        0x4 drivers/serial/built-in.o
 .text.__serial_getc
                0x000000008082d202       0x20 drivers/serial/built-in.o
 .text.serial_stub_getc
                0x000000008082d222        0x6 drivers/serial/built-in.o
 .text.serial_post_probe
                0x000000008082d228       0x74 drivers/serial/built-in.o
 .text.serial_stub_puts
                0x000000008082d29c       0x16 drivers/serial/built-in.o
 .text.serial_putc
                0x000000008082d2b2       0x12 drivers/serial/built-in.o
                0x000000008082d2b2                serial_putc
 .text.serial_puts
                0x000000008082d2c4       0x1e drivers/serial/built-in.o
                0x000000008082d2c4                serial_puts
 .text.serial_getc
                0x000000008082d2e2       0x10 drivers/serial/built-in.o
                0x000000008082d2e2                serial_getc
 .text.serial_tstc
                0x000000008082d2f2       0x10 drivers/serial/built-in.o
                0x000000008082d2f2                serial_tstc
 .text.serial_setbrg
                0x000000008082d302       0x1e drivers/serial/built-in.o
                0x000000008082d302                serial_setbrg
 .text.serial_init
                0x000000008082d320       0xe4 drivers/serial/built-in.o
                0x000000008082d320                serial_init
 .text.serial_initialize
                0x000000008082d404        0x4 drivers/serial/built-in.o
                0x000000008082d404                serial_initialize
 .text.on_baudrate
                0x000000008082d408       0x9c drivers/serial/built-in.o
 .text.serial_stdio_init
                0x000000008082d4a4        0x2 drivers/serial/built-in.o
                0x000000008082d4a4                serial_stdio_init
 .text.ns16550_serial_getinfo
                0x000000008082d4a6       0x26 drivers/serial/built-in.o
 .text.ns16550_serial_ofdata_to_platdata
                0x000000008082d4cc       0xbc drivers/serial/built-in.o
                0x000000008082d4cc                ns16550_serial_ofdata_to_platdata
 .text.ns16550_writeb.isra.0
                0x000000008082d588       0x16 drivers/serial/built-in.o
 *fill*         0x000000008082d59e        0x2 
 .text.ns16550_serial_setconfig
                0x000000008082d5a0       0x3c drivers/serial/built-in.o
 .text.ns16550_readb.isra.0
                0x000000008082d5dc       0x14 drivers/serial/built-in.o
 .text.NS16550_setbrg
                0x000000008082d5f0       0x42 drivers/serial/built-in.o
 .text.ns16550_serial_setbrg
                0x000000008082d632       0x24 drivers/serial/built-in.o
 .text.ns16550_serial_pending
                0x000000008082d656       0x28 drivers/serial/built-in.o
 .text.ns16550_serial_putc
                0x000000008082d67e       0x32 drivers/serial/built-in.o
 .text.ns16550_serial_getc
                0x000000008082d6b0       0x26 drivers/serial/built-in.o
 .text.NS16550_init
                0x000000008082d6d6       0x5e drivers/serial/built-in.o
                0x000000008082d6d6                NS16550_init
 .text.ns16550_serial_probe
                0x000000008082d734       0x40 drivers/serial/built-in.o
                0x000000008082d734                ns16550_serial_probe
 .text.omap_serial_ofdata_to_platdata
                0x000000008082d774       0x80 drivers/serial/built-in.o
 .text.spi_child_pre_probe
                0x000000008082d7f4       0x22 drivers/spi/built-in.o
 *fill*         0x000000008082d816        0x2 
 .text.spi_post_probe
                0x000000008082d818       0x20 drivers/spi/built-in.o
 .text.dm_spi_claim_bus
                0x000000008082d838       0x8c drivers/spi/built-in.o
                0x000000008082d838                dm_spi_claim_bus
 .text.dm_spi_release_bus
                0x000000008082d8c4        0xe drivers/spi/built-in.o
                0x000000008082d8c4                dm_spi_release_bus
 .text.dm_spi_xfer
                0x000000008082d8d2       0x2a drivers/spi/built-in.o
                0x000000008082d8d2                dm_spi_xfer
 .text.spi_claim_bus
                0x000000008082d8fc        0x6 drivers/spi/built-in.o
                0x000000008082d8fc                spi_claim_bus
 .text.spi_release_bus
                0x000000008082d902        0x6 drivers/spi/built-in.o
                0x000000008082d902                spi_release_bus
 .text.spi_xfer
                0x000000008082d908        0x6 drivers/spi/built-in.o
                0x000000008082d908                spi_xfer
 .text.spi_find_chip_select
                0x000000008082d90e       0x48 drivers/spi/built-in.o
                0x000000008082d90e                spi_find_chip_select
 .text.spi_find_bus_and_cs
                0x000000008082d956       0x2e drivers/spi/built-in.o
                0x000000008082d956                spi_find_bus_and_cs
 .text.spi_get_bus_and_cs
                0x000000008082d984       0xd4 drivers/spi/built-in.o
                0x000000008082d984                spi_get_bus_and_cs
 .text.spi_slave_ofdata_to_platdata
                0x000000008082da58      0x10c drivers/spi/built-in.o
                0x000000008082da58                spi_slave_ofdata_to_platdata
 .text.spi_child_post_bind
                0x000000008082db64       0x1e drivers/spi/built-in.o
 *fill*         0x000000008082db82        0x2 
 .text.spi_check_buswidth_req.isra.0
                0x000000008082db84       0x50 drivers/spi/built-in.o
 .text.spi_mem_check_buswidth
                0x000000008082dbd4       0x54 drivers/spi/built-in.o
 .text.spi_mem_default_supports_op
                0x000000008082dc28       0x26 drivers/spi/built-in.o
                0x000000008082dc28                spi_mem_default_supports_op
 .text.spi_mem_supports_op
                0x000000008082dc4e       0x26 drivers/spi/built-in.o
                0x000000008082dc4e                spi_mem_supports_op
 .text.spi_mem_exec_op
                0x000000008082dc74      0x134 drivers/spi/built-in.o
                0x000000008082dc74                spi_mem_exec_op
 .text.spi_mem_adjust_op_size
                0x000000008082dda8       0x60 drivers/spi/built-in.o
                0x000000008082dda8                spi_mem_adjust_op_size
 .text.spi_mem_do_calibration
                0x000000008082de08       0x20 drivers/spi/built-in.o
                0x000000008082de08                spi_mem_do_calibration
 .text.omap3_spi_write_chconf
                0x000000008082de28       0x22 drivers/spi/built-in.o
 .text.omap3_spi_set_enable
                0x000000008082de4a       0x22 drivers/spi/built-in.o
 .text._omap3_spi_set_speed
                0x000000008082de6c       0x40 drivers/spi/built-in.o
 .text._omap3_spi_set_mode
                0x000000008082deac       0x52 drivers/spi/built-in.o
 .text.omap3_spi_set_mode
                0x000000008082defe       0x16 drivers/spi/built-in.o
 .text.omap3_spi_set_speed
                0x000000008082df14       0x16 drivers/spi/built-in.o
 .text.omap3_spi_release_bus
                0x000000008082df2a       0x1a drivers/spi/built-in.o
 .text.omap3_spi_xfer
                0x000000008082df44      0x310 drivers/spi/built-in.o
 .text.omap3_spi_set_wordlen
                0x000000008082e254       0x3e drivers/spi/built-in.o
 .text.omap3_spi_claim_bus
                0x000000008082e292       0x48 drivers/spi/built-in.o
 .text.omap3_spi_probe
                0x000000008082e2da       0x48 drivers/spi/built-in.o
 *fill*         0x000000008082e322        0x2 
 .text.omap3_spi_ofdata_to_platdata
                0x000000008082e324       0x38 drivers/spi/built-in.o
 .text.usb_get_dr_mode
                0x000000008082e35c       0x34 drivers/usb/common/built-in.o
                0x000000008082e35c                usb_get_dr_mode
 .text.usb_ep_autoconfig
                0x000000008082e390      0x120 drivers/usb/gadget/built-in.o
                0x000000008082e390                usb_ep_autoconfig
 .text.usb_ep_autoconfig_reset
                0x000000008082e4b0       0x28 drivers/usb/gadget/built-in.o
                0x000000008082e4b0                usb_ep_autoconfig_reset
 .text.usb_descriptor_fillbuf
                0x000000008082e4d8       0x38 drivers/usb/gadget/built-in.o
                0x000000008082e4d8                usb_descriptor_fillbuf
 .text.usb_gadget_config_buf
                0x000000008082e510       0x54 drivers/usb/gadget/built-in.o
                0x000000008082e510                usb_gadget_config_buf
 .text.usb_gadget_get_string
                0x000000008082e564       0xe2 drivers/usb/gadget/built-in.o
                0x000000008082e564                usb_gadget_get_string
 .text.count_configs
                0x000000008082e646       0x48 drivers/usb/gadget/built-in.o
 .text.collect_langs
                0x000000008082e68e       0x32 drivers/usb/gadget/built-in.o
 .text.composite_setup_complete
                0x000000008082e6c0        0x2 drivers/usb/gadget/built-in.o
 *fill*         0x000000008082e6c2        0x2 
 .text.composite_suspend
                0x000000008082e6c4       0x40 drivers/usb/gadget/built-in.o
 .text.composite_resume
                0x000000008082e704       0x40 drivers/usb/gadget/built-in.o
 .text.g_dnl_unbind
                0x000000008082e744       0x12 drivers/usb/gadget/built-in.o
 .text.lookup_string
                0x000000008082e756       0x2a drivers/usb/gadget/built-in.o
 .text.composite_unbind
                0x000000008082e780       0xb0 drivers/usb/gadget/built-in.o
 .text.composite_bind
                0x000000008082e830       0xac drivers/usb/gadget/built-in.o
 .text.g_dnl_do_config
                0x000000008082e8dc       0x28 drivers/usb/gadget/built-in.o
 .text.reset_config.isra.0
                0x000000008082e904       0x2e drivers/usb/gadget/built-in.o
 *fill*         0x000000008082e932        0x2 
 .text.composite_disconnect
                0x000000008082e934       0x28 drivers/usb/gadget/built-in.o
 .text.composite_setup
                0x000000008082e95c      0x5f8 drivers/usb/gadget/built-in.o
 .text.usb_add_function
                0x000000008082ef54       0x74 drivers/usb/gadget/built-in.o
                0x000000008082ef54                usb_add_function
 .text.usb_interface_id
                0x000000008082efc8       0x1e drivers/usb/gadget/built-in.o
                0x000000008082efc8                usb_interface_id
 .text.usb_add_config
                0x000000008082efe6       0x7c drivers/usb/gadget/built-in.o
                0x000000008082efe6                usb_add_config
 .text.usb_string_id
                0x000000008082f062       0x18 drivers/usb/gadget/built-in.o
                0x000000008082f062                usb_string_id
 *fill*         0x000000008082f07a        0x2 
 .text.usb_composite_register
                0x000000008082f07c       0x3c drivers/usb/gadget/built-in.o
                0x000000008082f07c                usb_composite_register
 .text.usb_composite_unregister
                0x000000008082f0b8       0x20 drivers/usb/gadget/built-in.o
                0x000000008082f0b8                usb_composite_unregister
 .text.g_dnl_set_serialnumber
                0x000000008082f0d8       0x24 drivers/usb/gadget/built-in.o
                0x000000008082f0d8                g_dnl_set_serialnumber
 .text.on_serialno
                0x000000008082f0fc        0xc drivers/usb/gadget/built-in.o
 .text.g_dnl_bind_fixup
                0x000000008082f108        0x4 drivers/usb/gadget/built-in.o
                0x000000008082f108                g_dnl_bind_fixup
 .text.g_dnl_get_board_bcd_device_number
                0x000000008082f10c        0x2 drivers/usb/gadget/built-in.o
                0x000000008082f10c                g_dnl_get_board_bcd_device_number
 *fill*         0x000000008082f10e        0x2 
 .text.g_dnl_bind
                0x000000008082f110       0xf0 drivers/usb/gadget/built-in.o
 .text.g_dnl_board_usb_cable_connected
                0x000000008082f200        0x6 drivers/usb/gadget/built-in.o
                0x000000008082f200                g_dnl_board_usb_cable_connected
 *fill*         0x000000008082f206        0x2 
 .text.g_dnl_detach
                0x000000008082f208        0xc drivers/usb/gadget/built-in.o
                0x000000008082f208                g_dnl_detach
 .text.g_dnl_trigger_detach
                0x000000008082f214        0xc drivers/usb/gadget/built-in.o
                0x000000008082f214                g_dnl_trigger_detach
 .text.g_dnl_clear_detach
                0x000000008082f220        0xc drivers/usb/gadget/built-in.o
                0x000000008082f220                g_dnl_clear_detach
 .text.g_dnl_register
                0x000000008082f22c       0x2c drivers/usb/gadget/built-in.o
                0x000000008082f22c                g_dnl_register
 .text.g_dnl_unregister
                0x000000008082f258        0xc drivers/usb/gadget/built-in.o
                0x000000008082f258                g_dnl_unregister
 .text.dfu_set_alt
                0x000000008082f264       0x10 drivers/usb/gadget/built-in.o
 .text.__dfu_get_alt
                0x000000008082f274        0x6 drivers/usb/gadget/built-in.o
 .text.dfu_disable
                0x000000008082f27a        0xe drivers/usb/gadget/built-in.o
 .text.dfu_add  0x000000008082f288       0x98 drivers/usb/gadget/built-in.o
                0x000000008082f288                dfu_add
 .text.dfu_handle
                0x000000008082f320       0x80 drivers/usb/gadget/built-in.o
 .text.dnload_request_flush
                0x000000008082f3a0       0x18 drivers/usb/gadget/built-in.o
 .text.dnload_request_complete
                0x000000008082f3b8       0x24 drivers/usb/gadget/built-in.o
 .text.dfu_unbind
                0x000000008082f3dc       0x54 drivers/usb/gadget/built-in.o
 .text.dfu_bind
                0x000000008082f430      0x15c drivers/usb/gadget/built-in.o
 .text.handle_upload.isra.0
                0x000000008082f58c       0x1c drivers/usb/gadget/built-in.o
 .text.handle_getstatus
                0x000000008082f5a8       0x9e drivers/usb/gadget/built-in.o
 .text.state_dfu_error
                0x000000008082f646       0x36 drivers/usb/gadget/built-in.o
 .text.state_dfu_manifest_sync
                0x000000008082f67c       0x40 drivers/usb/gadget/built-in.o
 .text.state_dfu_dnload_idle
                0x000000008082f6bc       0x6c drivers/usb/gadget/built-in.o
 .text.state_dfu_dnbusy
                0x000000008082f728       0x18 drivers/usb/gadget/built-in.o
 .text.state_dfu_dnload_sync
                0x000000008082f740       0x28 drivers/usb/gadget/built-in.o
 .text.state_app_detach
                0x000000008082f768       0x28 drivers/usb/gadget/built-in.o
 .text.state_app_idle
                0x000000008082f790       0x44 drivers/usb/gadget/built-in.o
 .text.state_dfu_upload_idle
                0x000000008082f7d4       0x5e drivers/usb/gadget/built-in.o
 *fill*         0x000000008082f832        0x2 
 .text.state_dfu_manifest
                0x000000008082f834       0x44 drivers/usb/gadget/built-in.o
 .text.state_dfu_idle
                0x000000008082f878       0x84 drivers/usb/gadget/built-in.o
 .text.fastboot_start_ep
                0x000000008082f8fc       0x3c drivers/usb/gadget/built-in.o
 .text.fastboot_unbind
                0x000000008082f938       0x10 drivers/usb/gadget/built-in.o
 .text.fastboot_add
                0x000000008082f948       0x74 drivers/usb/gadget/built-in.o
 .text.fastboot_disable
                0x000000008082f9bc       0x46 drivers/usb/gadget/built-in.o
 *fill*         0x000000008082fa02        0x2 
 .text.fastboot_set_alt
                0x000000008082fa04       0xbc drivers/usb/gadget/built-in.o
 .text.fastboot_complete
                0x000000008082fac0       0x18 drivers/usb/gadget/built-in.o
 .text.compl_do_reset
                0x000000008082fad8        0xc drivers/usb/gadget/built-in.o
 .text.do_exit_on_complete
                0x000000008082fae4        0x4 drivers/usb/gadget/built-in.o
 .text.do_bootm_on_complete
                0x000000008082fae8        0xe drivers/usb/gadget/built-in.o
 .text.rx_bytes_expected
                0x000000008082faf6       0x2e drivers/usb/gadget/built-in.o
 .text.fastboot_tx_write_str
                0x000000008082fb24       0x4c drivers/usb/gadget/built-in.o
 .text.rx_handler_command
                0x000000008082fb70       0xd0 drivers/usb/gadget/built-in.o
 .text.rx_handler_dl_image
                0x000000008082fc40       0x7c drivers/usb/gadget/built-in.o
 .text.fastboot_bind
                0x000000008082fcbc       0xa8 drivers/usb/gadget/built-in.o
 .text.eth_setup_complete
                0x000000008082fd64        0x2 drivers/usb/gadget/built-in.o
 *fill*         0x000000008082fd66        0x2 
 .text.tx_complete
                0x000000008082fd68       0x34 drivers/usb/gadget/built-in.o
 .text.eth_suspend
                0x000000008082fd9c        0x2 drivers/usb/gadget/built-in.o
 *fill*         0x000000008082fd9e        0x2 
 .text.usb_eth_recv
                0x000000008082fda0       0x3c drivers/usb/gadget/built-in.o
 .text.rx_complete
                0x000000008082fddc       0x8c drivers/usb/gadget/built-in.o
 .text.usb_eth_send
                0x000000008082fe68       0xd4 drivers/usb/gadget/built-in.o
 .text.rndis_command_complete
                0x000000008082ff3c        0xc drivers/usb/gadget/built-in.o
 .text.eth_unbind
                0x000000008082ff48       0x5a drivers/usb/gadget/built-in.o
 *fill*         0x000000008082ffa2        0x2 
 .text.rndis_control_ack_complete
                0x000000008082ffa4       0x4c drivers/usb/gadget/built-in.o
 .text.rndis_control_ack
                0x000000008082fff0       0x68 drivers/usb/gadget/built-in.o
 .text.nibble   0x0000000080830058       0x28 drivers/usb/gadget/built-in.o
 .text._usb_eth_halt
                0x0000000080830080       0x72 drivers/usb/gadget/built-in.o
 .text.usb_eth_stop
                0x00000000808300f2        0xe drivers/usb/gadget/built-in.o
 .text.eth_reset_config
                0x0000000080830100       0x6c drivers/usb/gadget/built-in.o
 .text.eth_disconnect
                0x000000008083016c        0x6 drivers/usb/gadget/built-in.o
 *fill*         0x0000000080830172        0x2 
 .text.set_ether_config.isra.0
                0x0000000080830174      0x12c drivers/usb/gadget/built-in.o
 .text.get_ether_addr
                0x00000000808302a0       0x68 drivers/usb/gadget/built-in.o
 .text.eth_bind
                0x0000000080830308      0x2e8 drivers/usb/gadget/built-in.o
 .text.usb_eth_probe
                0x00000000808305f0       0x3c drivers/usb/gadget/built-in.o
 .text.is_eth_addr_valid.part.0
                0x000000008083062c       0x6c drivers/usb/gadget/built-in.o
 .text.rx_submit.constprop.0
                0x0000000080830698       0x54 drivers/usb/gadget/built-in.o
 .text.usb_eth_free_pkt
                0x00000000808306ec       0x1c drivers/usb/gadget/built-in.o
 .text.eth_setup
                0x0000000080830708      0x2e0 drivers/usb/gadget/built-in.o
 .text.rndis_response_complete
                0x00000000808309e8        0x2 drivers/usb/gadget/built-in.o
 .text.eth_resume
                0x00000000808309ea        0x2 drivers/usb/gadget/built-in.o
 .text.usb_eth_start
                0x00000000808309ec      0x178 drivers/usb/gadget/built-in.o
 .text.usb_ether_init
                0x0000000080830b64       0x24 drivers/usb/gadget/built-in.o
                0x0000000080830b64                usb_ether_init
 .text.rndis_add_response
                0x0000000080830b88       0x3c drivers/usb/gadget/built-in.o
 .text.rndis_signal_connect
                0x0000000080830bc4       0x54 drivers/usb/gadget/built-in.o
                0x0000000080830bc4                rndis_signal_connect
 .text.rndis_signal_disconnect
                0x0000000080830c18       0x14 drivers/usb/gadget/built-in.o
                0x0000000080830c18                rndis_signal_disconnect
 .text.rndis_set_host_mac
                0x0000000080830c2c       0x10 drivers/usb/gadget/built-in.o
                0x0000000080830c2c                rndis_set_host_mac
 .text.rndis_get_state
                0x0000000080830c3c       0x14 drivers/usb/gadget/built-in.o
                0x0000000080830c3c                rndis_get_state
 .text.rndis_msg_parser
                0x0000000080830c50      0x460 drivers/usb/gadget/built-in.o
                0x0000000080830c50                rndis_msg_parser
 .text.rndis_register
                0x00000000808310b0       0x1c drivers/usb/gadget/built-in.o
                0x00000000808310b0                rndis_register
 .text.rndis_deregister
                0x00000000808310cc       0x18 drivers/usb/gadget/built-in.o
                0x00000000808310cc                rndis_deregister
 .text.rndis_set_param_dev
                0x00000000808310e4       0x20 drivers/usb/gadget/built-in.o
                0x00000000808310e4                rndis_set_param_dev
 .text.rndis_set_param_vendor
                0x0000000080831104       0x18 drivers/usb/gadget/built-in.o
                0x0000000080831104                rndis_set_param_vendor
 .text.rndis_set_param_medium
                0x000000008083111c       0x14 drivers/usb/gadget/built-in.o
                0x000000008083111c                rndis_set_param_medium
 .text.rndis_add_hdr
                0x0000000080831130       0x4e drivers/usb/gadget/built-in.o
                0x0000000080831130                rndis_add_hdr
 *fill*         0x000000008083117e        0x2 
 .text.rndis_free_response
                0x0000000080831180       0x40 drivers/usb/gadget/built-in.o
                0x0000000080831180                rndis_free_response
 .text.rndis_get_next_response
                0x00000000808311c0       0x3c drivers/usb/gadget/built-in.o
                0x00000000808311c0                rndis_get_next_response
 .text.rndis_uninit
                0x00000000808311fc       0x30 drivers/usb/gadget/built-in.o
                0x00000000808311fc                rndis_uninit
 .text.rndis_rm_hdr
                0x000000008083122c       0x5e drivers/usb/gadget/built-in.o
                0x000000008083122c                rndis_rm_hdr
 *fill*         0x000000008083128a        0x2 
 .text.rndis_init
                0x000000008083128c       0x1c drivers/usb/gadget/built-in.o
                0x000000008083128c                rndis_init
 .text.rndis_exit
                0x00000000808312a8        0x2 drivers/usb/gadget/built-in.o
                0x00000000808312a8                rndis_exit
 .text.usb_gadget_remove_driver
                0x00000000808312aa       0x2e drivers/usb/gadget/udc/built-in.o
 .text.usb_udc_release
                0x00000000808312d8        0x6 drivers/usb/gadget/udc/built-in.o
 *fill*         0x00000000808312de        0x2 
 .text.usb_add_gadget_udc_release
                0x00000000808312e0       0x44 drivers/usb/gadget/udc/built-in.o
                0x00000000808312e0                usb_add_gadget_udc_release
 .text.usb_add_gadget_udc
                0x0000000080831324        0x6 drivers/usb/gadget/udc/built-in.o
                0x0000000080831324                usb_add_gadget_udc
 *fill*         0x000000008083132a        0x2 
 .text.usb_del_gadget_udc
                0x000000008083132c       0x40 drivers/usb/gadget/udc/built-in.o
                0x000000008083132c                usb_del_gadget_udc
 .text.usb_gadget_probe_driver
                0x000000008083136c       0x94 drivers/usb/gadget/udc/built-in.o
                0x000000008083136c                usb_gadget_probe_driver
 .text.usb_gadget_register_driver
                0x0000000080831400        0x4 drivers/usb/gadget/udc/built-in.o
                0x0000000080831400                usb_gadget_register_driver
 .text.usb_gadget_unregister_driver
                0x0000000080831404       0x44 drivers/usb/gadget/udc/built-in.o
                0x0000000080831404                usb_gadget_unregister_driver
 .text.usb_gadget_initialize
                0x0000000080831448       0x54 drivers/usb/gadget/udc/built-in.o
                0x0000000080831448                usb_gadget_initialize
 .text.usb_gadget_release
                0x000000008083149c       0x28 drivers/usb/gadget/udc/built-in.o
                0x000000008083149c                usb_gadget_release
 .text.usb_gadget_handle_interrupts
                0x00000000808314c4       0x18 drivers/usb/gadget/udc/built-in.o
                0x00000000808314c4                usb_gadget_handle_interrupts
 .text.usb_match_device
                0x00000000808314dc       0x7c drivers/usb/host/built-in.o
 .text.usb_child_post_bind
                0x0000000080831558       0x50 drivers/usb/host/built-in.o
 .text.usb_match_one_id_intf.isra.0
                0x00000000808315a8       0x50 drivers/usb/host/built-in.o
 .text.remove_inactive_children.isra.0
                0x00000000808315f8       0x46 drivers/usb/host/built-in.o
 .text.usb_lock_async
                0x000000008083163e       0x14 drivers/usb/host/built-in.o
                0x000000008083163e                usb_lock_async
 *fill*         0x0000000080831652        0x2 
 .text.usb_disable_asynch
                0x0000000080831654       0x14 drivers/usb/host/built-in.o
                0x0000000080831654                usb_disable_asynch
 .text.submit_int_msg
                0x0000000080831668       0x2e drivers/usb/host/built-in.o
                0x0000000080831668                submit_int_msg
 .text.submit_control_msg
                0x0000000080831696       0x4e drivers/usb/host/built-in.o
                0x0000000080831696                submit_control_msg
 .text.submit_bulk_msg
                0x00000000808316e4       0x24 drivers/usb/host/built-in.o
                0x00000000808316e4                submit_bulk_msg
 .text.usb_alloc_device
                0x0000000080831708       0x14 drivers/usb/host/built-in.o
                0x0000000080831708                usb_alloc_device
 .text.usb_reset_root_port
                0x000000008083171c       0x16 drivers/usb/host/built-in.o
                0x000000008083171c                usb_reset_root_port
 .text.usb_update_hub_device
                0x0000000080831732       0x16 drivers/usb/host/built-in.o
                0x0000000080831732                usb_update_hub_device
 .text.usb_get_max_xfer_size
                0x0000000080831748       0x14 drivers/usb/host/built-in.o
                0x0000000080831748                usb_get_max_xfer_size
 .text.usb_stop
                0x000000008083175c       0x64 drivers/usb/host/built-in.o
                0x000000008083175c                usb_stop
 .text.usb_get_bus
                0x00000000808317c0       0x18 drivers/usb/host/built-in.o
                0x00000000808317c0                usb_get_bus
 .text.usb_scan_device
                0x00000000808317d8      0x218 drivers/usb/host/built-in.o
                0x00000000808317d8                usb_scan_device
 .text.usb_scan_bus.isra.0
                0x00000000808319f0       0x4c drivers/usb/host/built-in.o
 .text.usb_init
                0x0000000080831a3c      0x10c drivers/usb/host/built-in.o
                0x0000000080831a3c                usb_init
 .text.usb_child_pre_probe
                0x0000000080831b48       0x46 drivers/usb/host/built-in.o
                0x0000000080831b48                usb_child_pre_probe
 .text.musb_gadget_enable
                0x0000000080831b8e      0x1a6 drivers/usb/musb-new/built-in.o
 .text.musb_gadget_fifo_status
                0x0000000080831d34       0x2c drivers/usb/musb-new/built-in.o
 .text.musb_gadget_fifo_flush
                0x0000000080831d60       0x58 drivers/usb/musb-new/built-in.o
 .text.musb_gadget_get_frame
                0x0000000080831db8        0xe drivers/usb/musb-new/built-in.o
 .text.musb_gadget_wakeup
                0x0000000080831dc6        0x4 drivers/usb/musb-new/built-in.o
 .text.musb_gadget_set_self_powered
                0x0000000080831dca       0x16 drivers/usb/musb-new/built-in.o
 .text.musb_gadget_vbus_draw
                0x0000000080831de0        0x4 drivers/usb/musb-new/built-in.o
 .text.txstate  0x0000000080831de4       0x6a drivers/usb/musb-new/built-in.o
 .text.musb_alloc_request
                0x0000000080831e4e       0x28 drivers/usb/musb-new/built-in.o
                0x0000000080831e4e                musb_alloc_request
 .text.musb_free_request
                0x0000000080831e76        0xc drivers/usb/musb-new/built-in.o
                0x0000000080831e76                musb_free_request
 .text.musb_gadget_stop
                0x0000000080831e82        0xe drivers/usb/musb-new/built-in.o
 .text.init_peripheral_ep
                0x0000000080831e90       0xb0 drivers/usb/musb-new/built-in.o
 .text.musb_gadget_start
                0x0000000080831f40       0x2a drivers/usb/musb-new/built-in.o
                0x0000000080831f40                musb_gadget_start
 .text.musb_gadget_pullup
                0x0000000080831f6a       0x38 drivers/usb/musb-new/built-in.o
 .text.musb_g_giveback
                0x0000000080831fa2       0x38 drivers/usb/musb-new/built-in.o
                0x0000000080831fa2                musb_g_giveback
 .text.rxstate  0x0000000080831fda       0x9a drivers/usb/musb-new/built-in.o
 .text.musb_gadget_dequeue
                0x0000000080832074       0x50 drivers/usb/musb-new/built-in.o
 .text.musb_gadget_disable
                0x00000000808320c4       0x70 drivers/usb/musb-new/built-in.o
 .text.musb_g_tx
                0x0000000080832134       0xdc drivers/usb/musb-new/built-in.o
                0x0000000080832134                musb_g_tx
 .text.musb_g_rx
                0x0000000080832210       0x6e drivers/usb/musb-new/built-in.o
                0x0000000080832210                musb_g_rx
 .text.musb_ep_restart
                0x000000008083227e       0x1e drivers/usb/musb-new/built-in.o
                0x000000008083227e                musb_ep_restart
 .text.musb_gadget_set_halt
                0x000000008083229c       0xba drivers/usb/musb-new/built-in.o
 .text.musb_gadget_queue
                0x0000000080832356       0x7e drivers/usb/musb-new/built-in.o
 .text.musb_gadget_setup
                0x00000000808323d4       0x90 drivers/usb/musb-new/built-in.o
                0x00000000808323d4                musb_gadget_setup
 .text.musb_g_ep0_enable
                0x0000000080832464        0x6 drivers/usb/musb-new/built-in.o
 .text.musb_g_ep0_disable
                0x000000008083246a        0x6 drivers/usb/musb-new/built-in.o
 .text.musb_g_ep0_halt
                0x0000000080832470       0x60 drivers/usb/musb-new/built-in.o
 .text.musb_g_ep0_dequeue
                0x00000000808324d0        0x6 drivers/usb/musb-new/built-in.o
 .text.ep0_txstate
                0x00000000808324d6       0x9a drivers/usb/musb-new/built-in.o
 .text.musb_g_ep0_queue
                0x0000000080832570       0xc2 drivers/usb/musb-new/built-in.o
 *fill*         0x0000000080832632        0x2 
 .text.musb_g_ep0_irq
                0x0000000080832634      0x5ec drivers/usb/musb-new/built-in.o
                0x0000000080832634                musb_g_ep0_irq
 .text.fifo_setup
                0x0000000080832c20       0xfe drivers/usb/musb-new/built-in.o
 .text.musb_write_fifo
                0x0000000080832d1e       0x72 drivers/usb/musb-new/built-in.o
                0x0000000080832d1e                musb_write_fifo
 .text.musb_read_fifo
                0x0000000080832d90       0x72 drivers/usb/musb-new/built-in.o
                0x0000000080832d90                musb_read_fifo
 *fill*         0x0000000080832e02        0x2 
 .text.musb_load_testpacket
                0x0000000080832e04       0x24 drivers/usb/musb-new/built-in.o
                0x0000000080832e04                musb_load_testpacket
 .text.musb_start
                0x0000000080832e28       0x84 drivers/usb/musb-new/built-in.o
                0x0000000080832e28                musb_start
 .text.musb_stop
                0x0000000080832eac       0x3c drivers/usb/musb-new/built-in.o
                0x0000000080832eac                musb_stop
 .text.musb_interrupt
                0x0000000080832ee8       0xd2 drivers/usb/musb-new/built-in.o
                0x0000000080832ee8                musb_interrupt
 *fill*         0x0000000080832fba        0x2 
 .text.musb_init_controller
                0x0000000080832fbc      0x3fc drivers/usb/musb-new/built-in.o
                0x0000000080832fbc                musb_init_controller
 .text.musb_host_complete_urb
                0x00000000808333b8       0x18 drivers/usb/musb-new/built-in.o
 .text.construct_urb
                0x00000000808333d0       0x94 drivers/usb/musb-new/built-in.o
 .text.musb_create_int_queue
                0x0000000080833464       0xa8 drivers/usb/musb-new/built-in.o
 .text.submit_urb
                0x000000008083350c       0x7c drivers/usb/musb-new/built-in.o
 .text.musb_submit_bulk_msg
                0x0000000080833588       0x40 drivers/usb/musb-new/built-in.o
 .text.musb_poll_int_queue
                0x00000000808335c8       0x26 drivers/usb/musb-new/built-in.o
 .text._musb_reset_root_port.isra.0
                0x00000000808335ee       0x72 drivers/usb/musb-new/built-in.o
 .text.musb_reset_root_port
                0x0000000080833660        0xe drivers/usb/musb-new/built-in.o
 .text.musb_destroy_int_queue
                0x000000008083366e       0x48 drivers/usb/musb-new/built-in.o
 .text.musb_submit_int_msg
                0x00000000808336b6       0x46 drivers/usb/musb-new/built-in.o
 .text.musb_lowlevel_init
                0x00000000808336fc       0x74 drivers/usb/musb-new/built-in.o
                0x00000000808336fc                musb_lowlevel_init
 .text.usb_dev_get_parent
                0x0000000080833770       0x38 drivers/usb/musb-new/built-in.o
                0x0000000080833770                usb_dev_get_parent
 .text.musb_submit_control_msg
                0x00000000808337a8       0x4c drivers/usb/musb-new/built-in.o
 .text.musb_h_tx_flush_fifo
                0x00000000808337f4       0x40 drivers/usb/musb-new/built-in.o
 .text.musb_h_ep0_flush_fifo
                0x0000000080833834       0x3c drivers/usb/musb-new/built-in.o
 .text.musb_h_flush_rxfifo.isra.0
                0x0000000080833870       0x1c drivers/usb/musb-new/built-in.o
 .text.musb_start_urb
                0x000000008083388c      0x360 drivers/usb/musb-new/built-in.o
 .text.musb_advance_schedule
                0x0000000080833bec      0x13a drivers/usb/musb-new/built-in.o
 *fill*         0x0000000080833d26        0x2 
 .text.musb_h_ep0_irq
                0x0000000080833d28      0x1c4 drivers/usb/musb-new/built-in.o
                0x0000000080833d28                musb_h_ep0_irq
 .text.musb_host_tx
                0x0000000080833eec      0x120 drivers/usb/musb-new/built-in.o
                0x0000000080833eec                musb_host_tx
 .text.musb_host_rx
                0x000000008083400c      0x278 drivers/usb/musb-new/built-in.o
                0x000000008083400c                musb_host_rx
 .text.musb_urb_enqueue
                0x0000000080834284      0x330 drivers/usb/musb-new/built-in.o
                0x0000000080834284                musb_urb_enqueue
 .text.musb_urb_dequeue
                0x00000000808345b4       0xd4 drivers/usb/musb-new/built-in.o
                0x00000000808345b4                musb_urb_dequeue
 .text.dsps_musb_enable
                0x0000000080834688       0x1c drivers/usb/musb-new/built-in.o
 .text.dsps_musb_disable
                0x00000000808346a4        0x2 drivers/usb/musb-new/built-in.o
 *fill*         0x00000000808346a6        0x2 
 .text.dsps_musb_init
                0x00000000808346a8       0x50 drivers/usb/musb-new/built-in.o
 .text.dsps_musb_exit
                0x00000000808346f8       0x16 drivers/usb/musb-new/built-in.o
 .text.dsps_interrupt
                0x000000008083470e       0x4e drivers/usb/musb-new/built-in.o
 .text.ti_musb_set_phy_power
                0x000000008083475c       0x26 drivers/usb/musb-new/built-in.o
 *fill*         0x0000000080834782        0x2 
 .text.ti_musb_ofdata_to_platdata
                0x0000000080834784      0x114 drivers/usb/musb-new/built-in.o
 .text.ti_musb_host_ofdata_to_platdata
                0x0000000080834898       0x1c drivers/usb/musb-new/built-in.o
 .text.ti_musb_peripheral_ofdata_to_platdata
                0x00000000808348b4       0x1c drivers/usb/musb-new/built-in.o
 .text.ti_musb_host_remove
                0x00000000808348d0       0x1a drivers/usb/musb-new/built-in.o
 .text.ti_musb_host_probe
                0x00000000808348ea       0x44 drivers/usb/musb-new/built-in.o
 .text.ti_musb_peripheral_remove
                0x000000008083492e       0x1e drivers/usb/musb-new/built-in.o
 .text.ti_musb_peripheral_probe
                0x000000008083494c       0x42 drivers/usb/musb-new/built-in.o
 *fill*         0x000000008083498e        0x2 
 .text.ti_musb_wrapper_bind
                0x0000000080834990       0x70 drivers/usb/musb-new/built-in.o
 .text.dm_usb_gadget_handle_interrupts
                0x0000000080834a00       0x14 drivers/usb/musb-new/built-in.o
                0x0000000080834a00                dm_usb_gadget_handle_interrupts
 .text.env_get_yesno
                0x0000000080834a14       0x2a env/built-in.o
                0x0000000080834a14                env_get_yesno
 .text.env_get_default
                0x0000000080834a3e       0x2a env/built-in.o
                0x0000000080834a3e                env_get_default
 .text.env_set_default
                0x0000000080834a68       0x5c env/built-in.o
                0x0000000080834a68                env_set_default
 .text.env_set_default_vars
                0x0000000080834ac4       0x30 env/built-in.o
                0x0000000080834ac4                env_set_default_vars
 .text.env_import
                0x0000000080834af4       0x7c env/built-in.o
                0x0000000080834af4                env_import
 .text.env_export
                0x0000000080834b70       0x44 env/built-in.o
                0x0000000080834b70                env_export
 .text.env_relocate
                0x0000000080834bb4       0x28 env/built-in.o
                0x0000000080834bb4                env_relocate
 .text.env_complete
                0x0000000080834bdc      0x110 env/built-in.o
                0x0000000080834bdc                env_complete
 .text.env_get_location
                0x0000000080834cec        0xa env/built-in.o
                0x0000000080834cec                env_get_location
 *fill*         0x0000000080834cf6        0x2 
 .text.env_driver_lookup
                0x0000000080834cf8       0x30 env/built-in.o
 .text.env_get_char_spec
                0x0000000080834d28        0x8 env/built-in.o
                0x0000000080834d28                env_get_char_spec
 .text.env_get_char
                0x0000000080834d30       0x14 env/built-in.o
                0x0000000080834d30                env_get_char
 .text.env_load
                0x0000000080834d44       0x68 env/built-in.o
                0x0000000080834d44                env_load
 .text.env_save
                0x0000000080834dac       0x68 env/built-in.o
                0x0000000080834dac                env_save
 .text.env_init
                0x0000000080834e14       0x6c env/built-in.o
                0x0000000080834e14                env_init
 .text.regex_callback
                0x0000000080834e80       0xd8 env/built-in.o
 .text.env_attr_walk
                0x0000000080834f58       0xb2 env/built-in.o
                0x0000000080834f58                env_attr_walk
 *fill*         0x000000008083500a        0x2 
 .text.env_attr_lookup
                0x000000008083500c       0x4c env/built-in.o
                0x000000008083500c                env_attr_lookup
 .text.skip_num
                0x0000000080835058       0x3c env/built-in.o
 .text.clear_flags
                0x0000000080835094        0x8 env/built-in.o
 .text.on_flags
                0x000000008083509c       0x38 env/built-in.o
 .text.env_flags_parse_vartype
                0x00000000808350d4       0x30 env/built-in.o
                0x00000000808350d4                env_flags_parse_vartype
 .text.env_flags_parse_varaccess
                0x0000000080835104       0x30 env/built-in.o
                0x0000000080835104                env_flags_parse_varaccess
 .text.set_flags
                0x0000000080835134       0x64 env/built-in.o
 .text.eth_validate_ethaddr_str
                0x0000000080835198       0x52 env/built-in.o
                0x0000000080835198                eth_validate_ethaddr_str
 *fill*         0x00000000808351ea        0x2 
 .text.env_flags_init
                0x00000000808351ec       0x90 env/built-in.o
                0x00000000808351ec                env_flags_init
 .text.env_flags_validate
                0x000000008083527c      0x188 env/built-in.o
                0x000000008083527c                env_flags_validate
 .text.clear_callback
                0x0000000080835404        0x8 env/built-in.o
 .text.find_env_callback
                0x000000008083540c       0x38 env/built-in.o
 .text.on_callbacks
                0x0000000080835444       0x38 env/built-in.o
 .text.set_callback
                0x000000008083547c       0x54 env/built-in.o
 .text.env_callback_init
                0x00000000808354d0       0x7c env/built-in.o
                0x00000000808354d0                env_callback_init
 .text.env_fat_device_and_part
                0x000000008083554c       0x44 env/built-in.o
 .text.env_fat_save
                0x0000000080835590       0xa0 env/built-in.o
 .text.env_fat_load
                0x0000000080835630       0xa4 env/built-in.o
 .text.fs_probe_unsupported
                0x00000000808356d4       0x14 fs/built-in.o
 .text.fs_ls_unsupported
                0x00000000808356e8        0x6 fs/built-in.o
 .text.fs_exists_unsupported
                0x00000000808356ee        0x4 fs/built-in.o
 .text.fs_size_unsupported
                0x00000000808356f2        0x6 fs/built-in.o
 .text.fs_read_unsupported
                0x00000000808356f8        0x6 fs/built-in.o
 .text.fs_close_unsupported
                0x00000000808356fe        0x2 fs/built-in.o
 .text.fs_opendir_unsupported
                0x0000000080835700        0x6 fs/built-in.o
 *fill*         0x0000000080835706        0x2 
 .text.fs_get_info
                0x0000000080835708       0x24 fs/built-in.o
 .text.fs_write_unsupported
                0x000000008083572c        0x6 fs/built-in.o
 .text.fs_mkdir_unsupported
                0x0000000080835732        0x6 fs/built-in.o
 .text.fs_ln_unsupported
                0x0000000080835738        0x6 fs/built-in.o
 .text.fs_uuid_unsupported
                0x000000008083573e        0x6 fs/built-in.o
 .text.fs_unlink_unsupported
                0x0000000080835744        0x6 fs/built-in.o
 *fill*         0x000000008083574a        0x2 
 .text.fs_get_type
                0x000000008083574c        0xc fs/built-in.o
                0x000000008083574c                fs_get_type
 .text.fs_get_type_name
                0x0000000080835758       0x14 fs/built-in.o
                0x0000000080835758                fs_get_type_name
 .text.fs_set_blk_dev
                0x000000008083576c       0x70 fs/built-in.o
                0x000000008083576c                fs_set_blk_dev
 .text.fs_set_blk_dev_with_part
                0x00000000808357dc       0x68 fs/built-in.o
                0x00000000808357dc                fs_set_blk_dev_with_part
 .text.fs_close
                0x0000000080835844       0x18 fs/built-in.o
                0x0000000080835844                fs_close
 .text.fs_ls    0x000000008083585c       0x20 fs/built-in.o
                0x000000008083585c                fs_ls
 .text.fs_exists
                0x000000008083587c       0x20 fs/built-in.o
                0x000000008083587c                fs_exists
 .text.fs_size  0x000000008083589c       0x24 fs/built-in.o
                0x000000008083589c                fs_size
 .text.fs_read  0x00000000808358c0       0x40 fs/built-in.o
                0x00000000808358c0                fs_read
 .text.fs_write
                0x0000000080835900       0x60 fs/built-in.o
                0x0000000080835900                fs_write
 .text.fs_opendir
                0x0000000080835960       0x50 fs/built-in.o
                0x0000000080835960                fs_opendir
 .text.fs_readdir
                0x00000000808359b0       0x3c fs/built-in.o
                0x00000000808359b0                fs_readdir
 .text.fs_closedir
                0x00000000808359ec       0x2c fs/built-in.o
                0x00000000808359ec                fs_closedir
 .text.fs_ls_generic
                0x0000000080835a18       0x8c fs/built-in.o
 .text.fs_unlink
                0x0000000080835aa4       0x20 fs/built-in.o
                0x0000000080835aa4                fs_unlink
 .text.fs_mkdir
                0x0000000080835ac4       0x20 fs/built-in.o
                0x0000000080835ac4                fs_mkdir
 .text.fs_ln    0x0000000080835ae4       0x38 fs/built-in.o
                0x0000000080835ae4                fs_ln
 .text.do_size  0x0000000080835b1c       0x40 fs/built-in.o
                0x0000000080835b1c                do_size
 .text.do_load  0x0000000080835b5c      0x24c fs/built-in.o
                0x0000000080835b5c                do_load
 .text.do_ls    0x0000000080835da8       0x40 fs/built-in.o
                0x0000000080835da8                do_ls
 .text.file_exists
                0x0000000080835de8       0x1a fs/built-in.o
                0x0000000080835de8                file_exists
 *fill*         0x0000000080835e02        0x2 
 .text.do_save  0x0000000080835e04       0xfc fs/built-in.o
                0x0000000080835e04                do_save
 .text.do_fs_type
                0x0000000080835f00       0x50 fs/built-in.o
                0x0000000080835f00                do_fs_type
 .text.do_rm    0x0000000080835f50       0x2c fs/built-in.o
                0x0000000080835f50                do_rm
 .text.do_mkdir
                0x0000000080835f7c       0x34 fs/built-in.o
                0x0000000080835f7c                do_mkdir
 .text.do_ln    0x0000000080835fb0       0x2e fs/built-in.o
                0x0000000080835fb0                do_ln
 *fill*         0x0000000080835fde        0x2 
 .text.do_fs_types
                0x0000000080835fe0       0x54 fs/built-in.o
                0x0000000080835fe0                do_fs_types
 .text.get_fs   0x0000000080836034        0x8 fs/built-in.o
                0x0000000080836034                get_fs
 .text.ext4fs_free_node
                0x000000008083603c       0x1c fs/built-in.o
                0x000000008083603c                ext4fs_free_node
 .text.ext4fs_ls
                0x0000000080836058       0x5c fs/built-in.o
                0x0000000080836058                ext4fs_ls
 .text.ext4fs_exists
                0x00000000808360b4       0x14 fs/built-in.o
                0x00000000808360b4                ext4fs_exists
 .text.ext4fs_size
                0x00000000808360c8        0x4 fs/built-in.o
                0x00000000808360c8                ext4fs_size
 .text.ext4fs_probe
                0x00000000808360cc       0x1e fs/built-in.o
                0x00000000808360cc                ext4fs_probe
 *fill*         0x00000000808360ea        0x2 
 .text.ext4fs_uuid
                0x00000000808360ec       0x20 fs/built-in.o
                0x00000000808360ec                ext4fs_uuid
 .text.ext_cache_init
                0x000000008083610c        0x8 fs/built-in.o
                0x000000008083610c                ext_cache_init
 .text.ext_cache_fini
                0x0000000080836114       0x14 fs/built-in.o
                0x0000000080836114                ext_cache_fini
 .text.ext4fs_read_file
                0x0000000080836128      0x26c fs/built-in.o
                0x0000000080836128                ext4fs_read_file
 .text.ext4fs_read
                0x0000000080836394       0x38 fs/built-in.o
                0x0000000080836394                ext4fs_read
 .text.ext4_read_file
                0x00000000808363cc       0x50 fs/built-in.o
                0x00000000808363cc                ext4_read_file
 .text.ext_cache_read
                0x000000008083641c       0x50 fs/built-in.o
                0x000000008083641c                ext_cache_read
 .text.ext4fs_get_group_descriptor
                0x000000008083646c        0xa fs/built-in.o
                0x000000008083646c                ext4fs_get_group_descriptor
 .text.ext4fs_sb_get_free_blocks
                0x0000000080836476       0x10 fs/built-in.o
                0x0000000080836476                ext4fs_sb_get_free_blocks
 .text.ext4fs_sb_set_free_blocks
                0x0000000080836486        0xa fs/built-in.o
                0x0000000080836486                ext4fs_sb_set_free_blocks
 .text.ext4fs_bg_get_free_blocks
                0x0000000080836490       0x12 fs/built-in.o
                0x0000000080836490                ext4fs_bg_get_free_blocks
 .text.ext4fs_bg_get_block_id
                0x00000000808364a2       0x1c fs/built-in.o
                0x00000000808364a2                ext4fs_bg_get_block_id
 .text.ext4fs_bg_get_inode_id
                0x00000000808364be       0x1c fs/built-in.o
                0x00000000808364be                ext4fs_bg_get_inode_id
 .text.ext4fs_bg_get_inode_table_id
                0x00000000808364da       0x1c fs/built-in.o
                0x00000000808364da                ext4fs_bg_get_inode_table_id
 .text.ext4fs_div_roundup
                0x00000000808364f6       0x14 fs/built-in.o
                0x00000000808364f6                ext4fs_div_roundup
 *fill*         0x000000008083650a        0x2 
 .text.put_ext4
                0x000000008083650c      0x11c fs/built-in.o
                0x000000008083650c                put_ext4
 .text.ext4fs_set_block_bmap
                0x0000000080836628       0x6c fs/built-in.o
                0x0000000080836628                ext4fs_set_block_bmap
 .text.ext4fs_reset_block_bmap
                0x0000000080836694       0x68 fs/built-in.o
                0x0000000080836694                ext4fs_reset_block_bmap
 .text.ext4fs_set_inode_bmap
                0x00000000808366fc       0x50 fs/built-in.o
                0x00000000808366fc                ext4fs_set_inode_bmap
 .text.ext4fs_reset_inode_bmap
                0x000000008083674c       0x4c fs/built-in.o
                0x000000008083674c                ext4fs_reset_inode_bmap
 .text.ext4fs_checksum_update
                0x0000000080836798       0x5a fs/built-in.o
                0x0000000080836798                ext4fs_checksum_update
 *fill*         0x00000000808367f2        0x2 
 .text.ext4fs_get_new_blk_no
                0x00000000808367f4      0x2cc fs/built-in.o
                0x00000000808367f4                ext4fs_get_new_blk_no
 .text.ext4fs_get_new_inode_no
                0x0000000080836ac0      0x2b0 fs/built-in.o
                0x0000000080836ac0                ext4fs_get_new_inode_no
 .text.ext4fs_allocate_blocks
                0x0000000080836d70      0x414 fs/built-in.o
                0x0000000080836d70                ext4fs_allocate_blocks
 .text.ext4fs_read_inode
                0x0000000080837184      0x132 fs/built-in.o
                0x0000000080837184                ext4fs_read_inode
 *fill*         0x00000000808372b6        0x2 
 .text.ext4fs_iget
                0x00000000808372b8       0x1c fs/built-in.o
                0x00000000808372b8                ext4fs_iget
 .text.read_allocated_block
                0x00000000808372d4      0x630 fs/built-in.o
                0x00000000808372d4                read_allocated_block
 .text.ext4fs_update_parent_dentry
                0x0000000080837904      0x254 fs/built-in.o
                0x0000000080837904                ext4fs_update_parent_dentry
 .text.search_dir
                0x0000000080837b58       0xd0 fs/built-in.o
 .text.ext4fs_get_parent_inode_num
                0x0000000080837c28      0x2c0 fs/built-in.o
                0x0000000080837c28                ext4fs_get_parent_inode_num
 .text.ext4fs_filename_unlink
                0x0000000080837ee8      0x120 fs/built-in.o
                0x0000000080837ee8                ext4fs_filename_unlink
 .text.ext4fs_reinit_global
                0x0000000080838008       0x78 fs/built-in.o
                0x0000000080838008                ext4fs_reinit_global
 .text.ext4fs_close
                0x0000000080838080       0x38 fs/built-in.o
                0x0000000080838080                ext4fs_close
 .text.ext4fs_iterate_dir
                0x00000000808380b8      0x1f4 fs/built-in.o
                0x00000000808380b8                ext4fs_iterate_dir
 .text.ext4fs_find_file1
                0x00000000808382ac      0x1cc fs/built-in.o
 .text.ext4fs_find_file
                0x0000000080838478       0x44 fs/built-in.o
                0x0000000080838478                ext4fs_find_file
 .text.ext4fs_open
                0x00000000808384bc       0x64 fs/built-in.o
                0x00000000808384bc                ext4fs_open
 .text.ext4fs_mount
                0x0000000080838520       0x90 fs/built-in.o
                0x0000000080838520                ext4fs_mount
 .text.ext4fs_set_blk_dev
                0x00000000808385b0       0x54 fs/built-in.o
                0x00000000808385b0                ext4fs_set_blk_dev
 .text.ext4fs_devread
                0x0000000080838604       0x28 fs/built-in.o
                0x0000000080838604                ext4fs_devread
 .text.ext4_read_superblock
                0x000000008083862c       0x28 fs/built-in.o
                0x000000008083862c                ext4_read_superblock
 .text.ext4fs_update
                0x0000000080838654       0xbc fs/built-in.o
 .text.ext4fs_get_bgdtable
                0x0000000080838710       0x78 fs/built-in.o
                0x0000000080838710                ext4fs_get_bgdtable
 .text.ext4fs_deinit
                0x0000000080838788       0xfc fs/built-in.o
                0x0000000080838788                ext4fs_deinit
 .text.ext4fs_init
                0x0000000080838884      0x1d8 fs/built-in.o
                0x0000000080838884                ext4fs_init
 .text.ext4fs_write
                0x0000000080838a5c      0xc3c fs/built-in.o
                0x0000000080838a5c                ext4fs_write
 .text.ext4_write_file
                0x0000000080839698       0x48 fs/built-in.o
                0x0000000080839698                ext4_write_file
 .text.ext4fs_create_link
                0x00000000808396e0       0x1a fs/built-in.o
                0x00000000808396e0                ext4fs_create_link
 *fill*         0x00000000808396fa        0x2 
 .text.ext4fs_dump_metadata
                0x00000000808396fc       0x3c fs/built-in.o
                0x00000000808396fc                ext4fs_dump_metadata
 .text.ext4fs_free_journal
                0x0000000080839738       0x78 fs/built-in.o
                0x0000000080839738                ext4fs_free_journal
 .text.ext4fs_log_gdt
                0x00000000808397b0       0x88 fs/built-in.o
                0x00000000808397b0                ext4fs_log_gdt
 .text.ext4fs_log_journal
                0x0000000080839838       0x98 fs/built-in.o
                0x0000000080839838                ext4fs_log_journal
 .text.ext4fs_put_metadata
                0x00000000808398d0       0x8c fs/built-in.o
                0x00000000808398d0                ext4fs_put_metadata
 .text.ext4fs_push_revoke_blk
                0x000000008083995c       0x90 fs/built-in.o
                0x000000008083995c                ext4fs_push_revoke_blk
 .text.ext4fs_free_revoke_blks
                0x00000000808399ec       0x3c fs/built-in.o
                0x00000000808399ec                ext4fs_free_revoke_blks
 .text.check_blknr_for_revoke
                0x0000000080839a28       0x3c fs/built-in.o
                0x0000000080839a28                check_blknr_for_revoke
 .text.recover_transaction
                0x0000000080839a64       0xf0 fs/built-in.o
                0x0000000080839a64                recover_transaction
 .text.print_jrnl_status
                0x0000000080839b54       0x14 fs/built-in.o
                0x0000000080839b54                print_jrnl_status
 .text.ext4fs_check_journal_state
                0x0000000080839b68      0x208 fs/built-in.o
                0x0000000080839b68                ext4fs_check_journal_state
 .text.ext4fs_init_journal
                0x0000000080839d70      0x198 fs/built-in.o
                0x0000000080839d70                ext4fs_init_journal
 .text.ext4fs_update_journal
                0x0000000080839f08      0x234 fs/built-in.o
                0x0000000080839f08                ext4fs_update_journal
 .text.ext2fs_crc16
                0x000000008083a13c       0x24 fs/built-in.o
                0x000000008083a13c                ext2fs_crc16
 .text.downcase
                0x000000008083a160       0x28 fs/built-in.o
 .text.mkcksum  0x000000008083a188       0x36 fs/built-in.o
 .text.fat_itr_child
                0x000000008083a1be       0x3e fs/built-in.o
 .text.disk_read
                0x000000008083a1fc       0x30 fs/built-in.o
 .text.get_cluster
                0x000000008083a22c       0xf4 fs/built-in.o
 .text.read_bootsectandvi
                0x000000008083a320       0xc0 fs/built-in.o
 .text.fat_itr_root
                0x000000008083a3e0      0x130 fs/built-in.o
 .text.split_filename
                0x000000008083a510       0x88 fs/built-in.o
 .text.disk_write
                0x000000008083a598       0x50 fs/built-in.o
 .text.flush_dirty_fat_buffer
                0x000000008083a5e8       0x58 fs/built-in.o
 .text.get_fatent
                0x000000008083a640      0x104 fs/built-in.o
 .text.next_dent
                0x000000008083a744       0xbc fs/built-in.o
 .text.set_fatent_value
                0x000000008083a800      0x174 fs/built-in.o
 .text.determine_fatent
                0x000000008083a974       0x24 fs/built-in.o
 .text.clear_fatent
                0x000000008083a998       0x54 fs/built-in.o
 .text.set_sectors.isra.0
                0x000000008083a9ec       0xec fs/built-in.o
 .text.normalize_longname
                0x000000008083aad8       0x58 fs/built-in.o
 .text.set_name
                0x000000008083ab30       0xd0 fs/built-in.o
 .text.fat_itr_next
                0x000000008083ac00      0x180 fs/built-in.o
 .text.fat_itr_resolve
                0x000000008083ad80       0xf4 fs/built-in.o
 .text.flush_dir
                0x000000008083ae74       0x3a fs/built-in.o
 *fill*         0x000000008083aeae        0x2 
 .text.new_dir_table
                0x000000008083aeb0       0x80 fs/built-in.o
 .text.fill_dir_slot
                0x000000008083af30      0x16a fs/built-in.o
 .text.find_directory_entry
                0x000000008083b09a       0x5e fs/built-in.o
 .text.set_contents
                0x000000008083b0f8      0x77c fs/built-in.o
 .text.fat_set_blk_dev
                0x000000008083b874       0x8c fs/built-in.o
                0x000000008083b874                fat_set_blk_dev
 .text.file_fat_detectfs
                0x000000008083b900       0xd4 fs/built-in.o
                0x000000008083b900                file_fat_detectfs
 .text.fat_exists
                0x000000008083b9d4       0x44 fs/built-in.o
                0x000000008083b9d4                fat_exists
 .text.fat_size
                0x000000008083ba18       0x7c fs/built-in.o
                0x000000008083ba18                fat_size
 .text.file_fat_read_at
                0x000000008083ba94      0x308 fs/built-in.o
                0x000000008083ba94                file_fat_read_at
 .text.file_fat_read
                0x000000008083bd9c       0x22 fs/built-in.o
                0x000000008083bd9c                file_fat_read
 *fill*         0x000000008083bdbe        0x2 
 .text.fat_read_file
                0x000000008083bdc0       0x30 fs/built-in.o
                0x000000008083bdc0                fat_read_file
 .text.fat_opendir
                0x000000008083bdf0       0x60 fs/built-in.o
                0x000000008083bdf0                fat_opendir
 .text.fat_readdir
                0x000000008083be50       0x54 fs/built-in.o
                0x000000008083be50                fat_readdir
 .text.fat_closedir
                0x000000008083bea4       0x16 fs/built-in.o
                0x000000008083bea4                fat_closedir
 .text.fat_close
                0x000000008083beba        0x2 fs/built-in.o
                0x000000008083beba                fat_close
 .text.file_fat_write_at
                0x000000008083bebc      0x1d4 fs/built-in.o
                0x000000008083bebc                file_fat_write_at
 .text.file_fat_write
                0x000000008083c090       0x1a fs/built-in.o
                0x000000008083c090                file_fat_write
 *fill*         0x000000008083c0aa        0x2 
 .text.fat_unlink
                0x000000008083c0ac      0x1d0 fs/built-in.o
                0x000000008083c0ac                fat_unlink
 .text.fat_mkdir
                0x000000008083c27c      0x27c fs/built-in.o
                0x000000008083c27c                fat_mkdir
 .text.fs_devread
                0x000000008083c4f8      0x168 fs/built-in.o
                0x000000008083c4f8                fs_devread
 .text.efi_uc_destroy
                0x000000008083c660       0x10 lib/built-in.o
 .text.efi_uc_init
                0x000000008083c670       0x10 lib/built-in.o
 .text.check_node_type
                0x000000008083c680       0x54 lib/built-in.o
 .text.efi_uc_start
                0x000000008083c6d4       0x8c lib/built-in.o
 .text.efi_uc_supported
                0x000000008083c760       0x84 lib/built-in.o
 .text.disconnect_child
                0x000000008083c7e4       0x44 lib/built-in.o
 .text.efi_uc_stop
                0x000000008083c828       0xcc lib/built-in.o
 .text.efi_driver_init
                0x000000008083c8f4       0xb8 lib/built-in.o
                0x000000008083c8f4                efi_driver_init
 .text.efi_bl_write
                0x000000008083c9ac       0x3a lib/built-in.o
 .text.efi_bl_read
                0x000000008083c9e6       0x3a lib/built-in.o
 .text.efi_bl_bind
                0x000000008083ca20       0xc4 lib/built-in.o
 .text.get_var.constprop.0
                0x000000008083cae4       0x54 lib/built-in.o
 .text.efi_set_load_options
                0x000000008083cb38       0x7c lib/built-in.o
                0x000000008083cb38                efi_set_load_options
 .text.efi_deserialize_load_option
                0x000000008083cbb4       0x94 lib/built-in.o
                0x000000008083cbb4                efi_deserialize_load_option
 .text.try_load_entry
                0x000000008083cc48      0x160 lib/built-in.o
 .text.efi_bootmgr_load
                0x000000008083cda8       0xd8 lib/built-in.o
                0x000000008083cda8                efi_bootmgr_load
 .text.efi_is_event
                0x000000008083ce80       0x24 lib/built-in.o
 .text.__efi_entry_check
                0x000000008083cea4       0x30 lib/built-in.o
                0x000000008083cea4                __efi_entry_check
 .text.__efi_exit_check
                0x000000008083ced4       0x28 lib/built-in.o
                0x000000008083ced4                __efi_exit_check
 .text.efi_process_event_queue
                0x000000008083cefc       0x5c lib/built-in.o
 .text.efi_queue_event
                0x000000008083cf58       0x58 lib/built-in.o
 .text.efi_set_mem
                0x000000008083cfb0       0x1c lib/built-in.o
 .text.efi_copy_mem
                0x000000008083cfcc       0x1a lib/built-in.o
 *fill*         0x000000008083cfe6        0x2 
 .text.efi_calculate_crc32
                0x000000008083cfe8       0x30 lib/built-in.o
 .text.efi_set_watchdog_timer
                0x000000008083d018       0x18 lib/built-in.o
 .text.efi_get_next_monotonic_count
                0x000000008083d030       0x34 lib/built-in.o
 .text.efi_register_protocol_notify
                0x000000008083d064       0x60 lib/built-in.o
 .text.efi_close_event
                0x000000008083d0c4       0xb0 lib/built-in.o
 .text.efi_free_pool_ext
                0x000000008083d174       0x18 lib/built-in.o
 .text.efi_allocate_pool_ext
                0x000000008083d18c       0x1c lib/built-in.o
 .text.efi_get_memory_map_ext
                0x000000008083d1a8       0x26 lib/built-in.o
 .text.efi_free_pages_ext
                0x000000008083d1ce       0x1c lib/built-in.o
 .text.efi_allocate_pages_ext
                0x000000008083d1ea       0x20 lib/built-in.o
 *fill*         0x000000008083d20a        0x2 
 .text.efi_raise_tpl
                0x000000008083d20c       0x24 lib/built-in.o
 .text.efi_save_gd
                0x000000008083d230        0xc lib/built-in.o
                0x000000008083d230                efi_save_gd
 .text.efi_restore_gd
                0x000000008083d23c       0x18 lib/built-in.o
                0x000000008083d23c                efi_restore_gd
 .text.is_valid_tpl
                0x000000008083d254       0x24 lib/built-in.o
                0x000000008083d254                is_valid_tpl
 .text.efi_signal_event
                0x000000008083d278       0x68 lib/built-in.o
                0x000000008083d278                efi_signal_event
 .text.efi_exit_boot_services
                0x000000008083d2e0       0xf8 lib/built-in.o
 .text.efi_signal_event_ext
                0x000000008083d3d8       0x2c lib/built-in.o
 .text.efi_add_handle
                0x000000008083d404       0x1c lib/built-in.o
                0x000000008083d404                efi_add_handle
 .text.efi_create_handle
                0x000000008083d420       0x20 lib/built-in.o
                0x000000008083d420                efi_create_handle
 .text.efi_create_event
                0x000000008083d440       0xbc lib/built-in.o
                0x000000008083d440                efi_create_event
 .text.efi_create_event_ex
                0x000000008083d4fc       0x44 lib/built-in.o
                0x000000008083d4fc                efi_create_event_ex
 .text.efi_create_event_ext
                0x000000008083d540       0x2a lib/built-in.o
 *fill*         0x000000008083d56a        0x2 
 .text.efi_timer_check
                0x000000008083d56c       0x74 lib/built-in.o
                0x000000008083d56c                efi_timer_check
 .text.efi_stall
                0x000000008083d5e0       0x3a lib/built-in.o
 *fill*         0x000000008083d61a        0x2 
 .text.efi_check_event
                0x000000008083d61c       0x58 lib/built-in.o
 .text.efi_wait_for_event
                0x000000008083d674       0x9c lib/built-in.o
 .text.efi_restore_tpl
                0x000000008083d710       0x28 lib/built-in.o
 .text.efi_set_timer
                0x000000008083d738       0x9c lib/built-in.o
                0x000000008083d738                efi_set_timer
 .text.efi_set_timer_ext
                0x000000008083d7d4       0x20 lib/built-in.o
 .text.efi_search_obj
                0x000000008083d7f4       0x1c lib/built-in.o
                0x000000008083d7f4                efi_search_obj
 .text.efi_search_protocol
                0x000000008083d810       0x44 lib/built-in.o
                0x000000008083d810                efi_search_protocol
 .text.efi_remove_protocol
                0x000000008083d854       0x38 lib/built-in.o
                0x000000008083d854                efi_remove_protocol
 .text.efi_locate_protocol
                0x000000008083d88c       0xa4 lib/built-in.o
 .text.efi_open_protocol_information
                0x000000008083d930       0x8c lib/built-in.o
 .text.efi_locate_handle
                0x000000008083d9bc       0xe0 lib/built-in.o
 .text.efi_locate_handle_buffer
                0x000000008083da9c       0x80 lib/built-in.o
                0x000000008083da9c                efi_locate_handle_buffer
 .text.efi_locate_device_path
                0x000000008083db1c       0xc4 lib/built-in.o
 .text.efi_locate_handle_ext
                0x000000008083dbe0       0x26 lib/built-in.o
 *fill*         0x000000008083dc06        0x2 
 .text.efi_remove_all_protocols
                0x000000008083dc08       0x38 lib/built-in.o
                0x000000008083dc08                efi_remove_all_protocols
 .text.efi_delete_handle
                0x000000008083dc40       0x24 lib/built-in.o
                0x000000008083dc40                efi_delete_handle
 .text.efi_close_protocol
                0x000000008083dc64       0x84 lib/built-in.o
                0x000000008083dc64                efi_close_protocol
 .text.efi_delete_image
                0x000000008083dce8       0x90 lib/built-in.o
 .text.efi_open_protocol
                0x000000008083dd78      0x1a4 lib/built-in.o
 .text.efi_disconnect_controller
                0x000000008083df1c      0x194 lib/built-in.o
 .text.efi_disconnect_all_drivers
                0x000000008083e0b0       0xf4 lib/built-in.o
 .text.efi_handle_protocol
                0x000000008083e1a4       0x20 lib/built-in.o
                0x000000008083e1a4                efi_handle_protocol
 .text.efi_bind_controller
                0x000000008083e1c4       0x74 lib/built-in.o
 .text.efi_exit
                0x000000008083e238       0xc8 lib/built-in.o
 .text.efi_uninstall_protocol
                0x000000008083e300       0x84 lib/built-in.o
 .text.efi_uninstall_protocol_interface
                0x000000008083e384       0x3a lib/built-in.o
 *fill*         0x000000008083e3be        0x2 
 .text.efi_start_image
                0x000000008083e3c0       0xe4 lib/built-in.o
                0x000000008083e3c0                efi_start_image
 .text.efi_unload_image
                0x000000008083e4a4       0x80 lib/built-in.o
                0x000000008083e4a4                efi_unload_image
 .text.efi_protocols_per_handle
                0x000000008083e524       0x78 lib/built-in.o
 .text.efi_connect_controller
                0x000000008083e59c      0x124 lib/built-in.o
 .text.efi_add_protocol
                0x000000008083e6c0       0xc8 lib/built-in.o
                0x000000008083e6c0                efi_add_protocol
 .text.efi_install_protocol_interface
                0x000000008083e788       0x44 lib/built-in.o
 .text.efi_install_multiple_protocol_interfaces
                0x000000008083e7cc       0xc0 lib/built-in.o
                0x000000008083e7cc                efi_install_multiple_protocol_interfaces
 .text.efi_uninstall_multiple_protocol_interfaces
                0x000000008083e88c       0x90 lib/built-in.o
 .text.efi_reinstall_protocol_interface
                0x000000008083e91c       0x46 lib/built-in.o
 *fill*         0x000000008083e962        0x2 
 .text.efi_install_configuration_table
                0x000000008083e964       0xfc lib/built-in.o
                0x000000008083e964                efi_install_configuration_table
 .text.efi_install_configuration_table_ext
                0x000000008083ea60       0x18 lib/built-in.o
 .text.efi_setup_loaded_image
                0x000000008083ea78       0xbc lib/built-in.o
                0x000000008083ea78                efi_setup_loaded_image
 .text.efi_load_image
                0x000000008083eb34      0x1e0 lib/built-in.o
                0x000000008083eb34                efi_load_image
 .text.efi_initialize_system_table
                0x000000008083ed14       0x50 lib/built-in.o
                0x000000008083ed14                efi_initialize_system_table
 .text.efi_cout_enable_cursor
                0x000000008083ed64       0x2c lib/built-in.o
 .text.efi_cout_set_cursor_position
                0x000000008083ed90       0x64 lib/built-in.o
 .text.efi_cout_clear_screen
                0x000000008083edf4       0x24 lib/built-in.o
 .text.efi_cout_set_attribute
                0x000000008083ee18       0x4c lib/built-in.o
 .text.efi_cout_test_string
                0x000000008083ee64        0xe lib/built-in.o
 *fill*         0x000000008083ee72        0x2 
 .text.efi_cout_reset
                0x000000008083ee74       0x34 lib/built-in.o
 .text.efi_cin_set_state
                0x000000008083eea8       0x14 lib/built-in.o
 .text.efi_cout_output_string
                0x000000008083eebc       0xe4 lib/built-in.o
 .text.efi_cin_unregister_key_notify
                0x000000008083efa0       0x48 lib/built-in.o
 .text.efi_cin_empty_buffer
                0x000000008083efe8       0x18 lib/built-in.o
 .text.efi_cin_reset
                0x000000008083f000       0x20 lib/built-in.o
 .text.efi_cin_reset_ex
                0x000000008083f020       0x20 lib/built-in.o
 .text.efi_cin_register_key_notify
                0x000000008083f040       0x5c lib/built-in.o
 .text.term_get_char
                0x000000008083f09c       0x2a lib/built-in.o
 *fill*         0x000000008083f0c6        0x2 
 .text.efi_cout_set_mode
                0x000000008083f0c8       0x4c lib/built-in.o
 .text.efi_cout_query_mode
                0x000000008083f114       0x50 lib/built-in.o
 .text.set_shift_mask
                0x000000008083f164       0x44 lib/built-in.o
                0x000000008083f164                set_shift_mask
 .text.analyze_modifiers.constprop.0
                0x000000008083f1a8       0x58 lib/built-in.o
 .text.efi_cin_check
                0x000000008083f200      0x290 lib/built-in.o
 .text.efi_cin_read_key_stroke
                0x000000008083f490       0x58 lib/built-in.o
 .text.efi_console_timer_notify
                0x000000008083f4e8       0x12 lib/built-in.o
 *fill*         0x000000008083f4fa        0x2 
 .text.efi_cin_read_key_stroke_ex
                0x000000008083f4fc       0x98 lib/built-in.o
 .text.efi_key_notify
                0x000000008083f594       0x12 lib/built-in.o
 *fill*         0x000000008083f5a6        0x2 
 .text.efi_console_register
                0x000000008083f5a8      0x1f4 lib/built-in.o
                0x000000008083f5a8                efi_console_register
 .text.dp_size  0x000000008083f79c       0x50 lib/built-in.o
 .text.dp_alloc
                0x000000008083f7ec       0x24 lib/built-in.o
 .text.dp_part_size
                0x000000008083f810       0x2e lib/built-in.o
 .text.dp_part_node
                0x000000008083f83e      0x130 lib/built-in.o
 *fill*         0x000000008083f96e        0x2 
 .text.dp_fill  0x000000008083f970      0x130 lib/built-in.o
 .text.dp_part_fill
                0x000000008083faa0       0x36 lib/built-in.o
 .text.efi_dp_next
                0x000000008083fad6       0x20 lib/built-in.o
                0x000000008083fad6                efi_dp_next
 .text.efi_dp_match
                0x000000008083faf6       0x42 lib/built-in.o
                0x000000008083faf6                efi_dp_match
 .text.efi_dp_last_node
                0x000000008083fb38       0x1c lib/built-in.o
                0x000000008083fb38                efi_dp_last_node
 .text.efi_dp_instance_size
                0x000000008083fb54       0x26 lib/built-in.o
                0x000000008083fb54                efi_dp_instance_size
 *fill*         0x000000008083fb7a        0x2 
 .text.find_obj
                0x000000008083fb7c       0x94 lib/built-in.o
 .text.efi_dp_find_obj
                0x000000008083fc10       0x2c lib/built-in.o
                0x000000008083fc10                efi_dp_find_obj
 .text.efi_dp_size
                0x000000008083fc3c       0x20 lib/built-in.o
                0x000000008083fc3c                efi_dp_size
 .text.efi_dp_dup
                0x000000008083fc5c       0x26 lib/built-in.o
                0x000000008083fc5c                efi_dp_dup
 *fill*         0x000000008083fc82        0x2 
 .text.efi_dp_append
                0x000000008083fc84       0x54 lib/built-in.o
                0x000000008083fc84                efi_dp_append
 .text.efi_dp_append_node
                0x000000008083fcd8       0x88 lib/built-in.o
                0x000000008083fcd8                efi_dp_append_node
 .text.efi_dp_create_device_node
                0x000000008083fd60       0x24 lib/built-in.o
                0x000000008083fd60                efi_dp_create_device_node
 .text.efi_dp_append_instance
                0x000000008083fd84       0x64 lib/built-in.o
                0x000000008083fd84                efi_dp_append_instance
 .text.efi_dp_get_next_instance
                0x000000008083fde8       0x58 lib/built-in.o
                0x000000008083fde8                efi_dp_get_next_instance
 .text.efi_dp_is_multi_instance
                0x000000008083fe40       0x1e lib/built-in.o
                0x000000008083fe40                efi_dp_is_multi_instance
 *fill*         0x000000008083fe5e        0x2 
 .text.efi_dp_from_part
                0x000000008083fe60       0x2c lib/built-in.o
                0x000000008083fe60                efi_dp_from_part
 .text.efi_dp_part_node
                0x000000008083fe8c       0x22 lib/built-in.o
                0x000000008083fe8c                efi_dp_part_node
 *fill*         0x000000008083feae        0x2 
 .text.efi_dp_from_file
                0x000000008083feb0       0xa0 lib/built-in.o
                0x000000008083feb0                efi_dp_from_file
 .text.efi_dp_from_eth
                0x000000008083ff50       0x34 lib/built-in.o
                0x000000008083ff50                efi_dp_from_eth
 .text.efi_dp_from_mem
                0x000000008083ff84       0xa0 lib/built-in.o
                0x000000008083ff84                efi_dp_from_mem
 .text.efi_dp_split_file_path
                0x0000000080840024       0x60 lib/built-in.o
                0x0000000080840024                efi_dp_split_file_path
 .text.efi_dp_from_name
                0x0000000080840084       0xb0 lib/built-in.o
                0x0000000080840084                efi_dp_from_name
 .text.efi_dp_check_length
                0x0000000080840134       0x38 lib/built-in.o
                0x0000000080840134                efi_dp_check_length
 .text.dp_unknown
                0x000000008084016c       0x18 lib/built-in.o
 .text.efi_convert_single_device_node_to_text
                0x0000000080840184      0x47c lib/built-in.o
 .text.efi_str_to_u16
                0x0000000080840600       0x34 lib/built-in.o
 .text.efi_convert_device_path_to_text
                0x0000000080840634       0x4c lib/built-in.o
 .text.efi_convert_device_node_to_text
                0x0000000080840680       0x2a lib/built-in.o
 .text.efi_dp_str
                0x00000000808406aa       0x1c lib/built-in.o
                0x00000000808406aa                efi_dp_str
 .text.create_device_node
                0x00000000808406c6       0x20 lib/built-in.o
 .text.is_device_path_multi_instance
                0x00000000808406e6       0x18 lib/built-in.o
 .text.get_next_device_path_instance
                0x00000000808406fe       0x1c lib/built-in.o
 .text.append_device_path_instance
                0x000000008084071a       0x1c lib/built-in.o
 .text.append_device_node
                0x0000000080840736       0x1c lib/built-in.o
 .text.append_device_path
                0x0000000080840752       0x1c lib/built-in.o
 .text.duplicate_device_path
                0x000000008084076e       0x18 lib/built-in.o
 .text.get_device_path_size
                0x0000000080840786       0x1a lib/built-in.o
 .text.efi_file_open_ex
                0x00000000808407a0        0x8 lib/built-in.o
 .text.efi_file_read_ex
                0x00000000808407a8        0x8 lib/built-in.o
 .text.efi_file_flush
                0x00000000808407b0        0xe lib/built-in.o
 *fill*         0x00000000808407be        0x2 
 .text.efi_file_getpos
                0x00000000808407c0       0x28 lib/built-in.o
 .text.set_blk_dev.isra.0
                0x00000000808407e8        0x8 lib/built-in.o
 .text.file_open
                0x00000000808407f0      0x218 lib/built-in.o
 .text.efi_open_volume
                0x0000000080840a08       0x2c lib/built-in.o
 .text.efi_file_open
                0x0000000080840a34       0x74 lib/built-in.o
 .text.efi_file_write
                0x0000000080840aa8       0x90 lib/built-in.o
 .text.efi_file_delete
                0x0000000080840b38       0x32 lib/built-in.o
 *fill*         0x0000000080840b6a        0x2 
 .text.efi_get_file_size
                0x0000000080840b6c       0x24 lib/built-in.o
 .text.efi_file_getinfo
                0x0000000080840b90      0x160 lib/built-in.o
 .text.efi_file_setpos
                0x0000000080840cf0       0x58 lib/built-in.o
 .text.efi_file_read
                0x0000000080840d48      0x17c lib/built-in.o
 .text.efi_file_write_ex
                0x0000000080840ec4        0x8 lib/built-in.o
 .text.efi_file_flush_ex
                0x0000000080840ecc        0x8 lib/built-in.o
 .text.efi_file_close
                0x0000000080840ed4       0x1c lib/built-in.o
 .text.efi_file_setinfo
                0x0000000080840ef0       0xec lib/built-in.o
 .text.efi_file_from_path
                0x0000000080840fdc       0xc8 lib/built-in.o
                0x0000000080840fdc                efi_file_from_path
 .text.efi_simple_file_system
                0x00000000808410a4       0x30 lib/built-in.o
                0x00000000808410a4                efi_simple_file_system
 .text.efi_hii_packagelist_exists
                0x00000000808410d4       0x1c lib/built-in.o
 .text.efi_hii_package_len
                0x00000000808410f0       0x10 lib/built-in.o
 .text.get_package_list_handle
                0x0000000080841100       0x44 lib/built-in.o
 .text.unregister_package_notify
                0x0000000080841144       0x14 lib/built-in.o
 .text.register_package_notify
                0x0000000080841158       0x34 lib/built-in.o
 .text.export_package_lists
                0x000000008084118c       0x28 lib/built-in.o
 .text.list_package_lists
                0x00000000808411b4       0x98 lib/built-in.o
 .text.find_keyboard_layouts
                0x000000008084124c       0x7c lib/built-in.o
 .text.get_keyboard_layout
                0x00000000808412c8       0x90 lib/built-in.o
 .text.remove_guid_package
                0x0000000080841358       0x24 lib/built-in.o
 .text.free_keyboard_layouts
                0x000000008084137c       0x30 lib/built-in.o
 .text.remove_keyboard_package
                0x00000000808413ac       0x2c lib/built-in.o
 .text.add_packages
                0x00000000808413d8      0x258 lib/built-in.o
 .text.language_match
                0x0000000080841630       0x2e lib/built-in.o
 *fill*         0x000000008084165e        0x2 
 .text.get_secondary_languages
                0x0000000080841660       0x5c lib/built-in.o
 .text.get_string
                0x00000000808416bc       0x8c lib/built-in.o
 .text.get_languages
                0x0000000080841748       0xa4 lib/built-in.o
 .text.set_string
                0x00000000808417ec       0xc0 lib/built-in.o
 .text.new_string
                0x00000000808418ac       0xb8 lib/built-in.o
 .text.remove_strings_package
                0x0000000080841964       0x4a lib/built-in.o
 .text.free_packagelist
                0x00000000808419ae       0x2c lib/built-in.o
 *fill*         0x00000000808419da        0x2 
 .text.remove_package_list
                0x00000000808419dc       0x2c lib/built-in.o
 .text.new_package_list
                0x0000000080841a08       0x7c lib/built-in.o
 .text.set_keyboard_layout
                0x0000000080841a84       0x14 lib/built-in.o
 .text.update_package_list
                0x0000000080841a98       0xc4 lib/built-in.o
 .text.get_alt_config
                0x0000000080841b5c       0x14 lib/built-in.o
 .text.config_to_block
                0x0000000080841b70       0x14 lib/built-in.o
 .text.block_to_config
                0x0000000080841b84       0x14 lib/built-in.o
 .text.route_config
                0x0000000080841b98       0x14 lib/built-in.o
 .text.export_config
                0x0000000080841bac       0x14 lib/built-in.o
 .text.extract_config
                0x0000000080841bc0       0x14 lib/built-in.o
 .text.efi_set_code_and_data_type
                0x0000000080841bd4       0x3c lib/built-in.o
 .text.efi_print_image_infos
                0x0000000080841c10       0x94 lib/built-in.o
                0x0000000080841c10                efi_print_image_infos
 .text.efi_load_pe
                0x0000000080841ca4      0x294 lib/built-in.o
                0x0000000080841ca4                efi_load_pe
 .text.efi_mem_cmp
                0x0000000080841f38       0x20 lib/built-in.o
 .text.efi_check_allocated
                0x0000000080841f58       0x6c lib/built-in.o
 .text.efi_find_free_memory
                0x0000000080841fc4       0xa4 lib/built-in.o
 .text.efi_add_memory_map_pg
                0x0000000080842068      0x310 lib/built-in.o
 .text.efi_add_memory_map
                0x0000000080842378       0x36 lib/built-in.o
                0x0000000080842378                efi_add_memory_map
 *fill*         0x00000000808423ae        0x2 
 .text.efi_allocate_pages
                0x00000000808423b0       0x94 lib/built-in.o
                0x00000000808423b0                efi_allocate_pages
 .text.efi_alloc
                0x0000000080842444       0x3a lib/built-in.o
                0x0000000080842444                efi_alloc
 *fill*         0x000000008084247e        0x2 
 .text.efi_free_pages
                0x0000000080842480       0x64 lib/built-in.o
                0x0000000080842480                efi_free_pages
 .text.efi_allocate_pool
                0x00000000808424e4       0x64 lib/built-in.o
                0x00000000808424e4                efi_allocate_pool
 .text.efi_free_pool
                0x0000000080842548       0x9c lib/built-in.o
                0x0000000080842548                efi_free_pool
 .text.efi_get_memory_map
                0x00000000808425e4       0x90 lib/built-in.o
                0x00000000808425e4                efi_get_memory_map
 .text.efi_add_conventional_memory_map
                0x0000000080842674       0xb0 lib/built-in.o
                0x0000000080842674                efi_add_conventional_memory_map
 .text.efi_add_known_memory
                0x0000000080842724       0x50 lib/built-in.o
                0x0000000080842724                efi_add_known_memory
 .text.efi_memory_init
                0x0000000080842774       0x6c lib/built-in.o
                0x0000000080842774                efi_memory_init
 .text.efi_root_node_register
                0x00000000808427e0       0xcc lib/built-in.o
                0x00000000808427e0                efi_root_node_register
 .text.efi_reset_system_boottime
                0x00000000808428ac       0x48 lib/built-in.o
 .text.efi_set_time_boottime
                0x00000000808428f4       0x14 lib/built-in.o
 .text.efi_get_time_boottime
                0x0000000080842908       0x14 lib/built-in.o
 .text.efi_init_runtime_supported
                0x000000008084291c       0x34 lib/built-in.o
                0x000000008084291c                efi_init_runtime_supported
 .text.efi_reset_system_init
                0x0000000080842950        0x4 lib/built-in.o
                0x0000000080842950                efi_reset_system_init
 .text.efi_set_virtual_address_map
                0x0000000080842954      0x188 lib/built-in.o
 .text.efi_init_obj_list
                0x0000000080842adc      0x124 lib/built-in.o
                0x0000000080842adc                efi_init_obj_list
 .text.efi_str_to_fat
                0x0000000080842c00       0x78 lib/built-in.o
 .text.efi_fat_to_str
                0x0000000080842c78       0x3c lib/built-in.o
 .text.efi_str_upr
                0x0000000080842cb4       0x20 lib/built-in.o
 .text.efi_stri_coll
                0x0000000080842cd4       0x3e lib/built-in.o
 .text.efi_str_lwr
                0x0000000080842d12       0x20 lib/built-in.o
 .text.next_lower
                0x0000000080842d32        0xe lib/built-in.o
 .text.metai_match
                0x0000000080842d40       0xb0 lib/built-in.o
 .text.efi_metai_match
                0x0000000080842df0       0x1c lib/built-in.o
 .text.efi_get_variable
                0x0000000080842e0c       0x38 lib/built-in.o
                0x0000000080842e0c                efi_get_variable
 .text.efi_set_variable
                0x0000000080842e44       0x3c lib/built-in.o
                0x0000000080842e44                efi_set_variable
 .text.efi_get_next_variable_name
                0x0000000080842e80       0x20 lib/built-in.o
                0x0000000080842e80                efi_get_next_variable_name
 .text.efi_query_variable_info
                0x0000000080842ea0       0x24 lib/built-in.o
                0x0000000080842ea0                efi_query_variable_info
 .text.efi_init_secure_state
                0x0000000080842ec4      0x108 lib/built-in.o
                0x0000000080842ec4                efi_init_secure_state
 .text.efi_auth_var_get_type
                0x0000000080842fcc       0x48 lib/built-in.o
                0x0000000080842fcc                efi_auth_var_get_type
 .text.efi_var_mem_notify_exit_boot_services
                0x0000000080843014       0x48 lib/built-in.o
 *fill*         0x000000008084305c        0x4 
 .text.efi_var_mem_init
                0x0000000080843060       0x80 lib/built-in.o
                0x0000000080843060                efi_var_mem_init
 .text.efi_set_blk_dev_to_system_partition
                0x00000000808430e0       0x50 lib/built-in.o
 .text.efi_var_collect
                0x0000000080843130      0x11c lib/built-in.o
                0x0000000080843130                efi_var_collect
 .text.efi_var_to_file
                0x000000008084324c       0x64 lib/built-in.o
                0x000000008084324c                efi_var_to_file
 .text.efi_var_restore
                0x00000000808432b0       0xbc lib/built-in.o
                0x00000000808432b0                efi_var_restore
 .text.efi_var_from_file
                0x000000008084336c       0x8c lib/built-in.o
                0x000000008084336c                efi_var_from_file
 .text.efi_set_variable_int
                0x00000000808433f8      0x134 lib/built-in.o
                0x00000000808433f8                efi_set_variable_int
 .text.efi_query_variable_info_int
                0x000000008084352c       0x26 lib/built-in.o
                0x000000008084352c                efi_query_variable_info_int
 *fill*         0x0000000080843552        0x2 
 .text.efi_variables_boot_exit_notify
                0x0000000080843554       0x2c lib/built-in.o
                0x0000000080843554                efi_variables_boot_exit_notify
 .text.efi_init_variables
                0x0000000080843580       0x18 lib/built-in.o
                0x0000000080843580                efi_init_variables
 .text.efi_watchdog_timer_notify
                0x0000000080843598       0x34 lib/built-in.o
 .text.efi_set_watchdog
                0x00000000808435cc       0x24 lib/built-in.o
                0x00000000808435cc                efi_set_watchdog
 .text.efi_watchdog_register
                0x00000000808435f0       0x5c lib/built-in.o
                0x00000000808435f0                efi_watchdog_register
 .text.efi_disk_flush_blocks
                0x000000008084364c        0xe lib/built-in.o
 .text.efi_disk_reset
                0x000000008084365a        0xe lib/built-in.o
 .text.efi_disk_add_dev.isra.0.part.0
                0x0000000080843668      0x174 lib/built-in.o
 .text.efi_disk_read_blocks
                0x00000000808437dc       0xc0 lib/built-in.o
 .text.efi_disk_write_blocks
                0x000000008084389c       0xcc lib/built-in.o
 .text.efi_fs_from_path
                0x0000000080843968       0x48 lib/built-in.o
                0x0000000080843968                efi_fs_from_path
 .text.efi_disk_create_partitions
                0x00000000808439b0       0x94 lib/built-in.o
                0x00000000808439b0                efi_disk_create_partitions
 .text.efi_disk_register
                0x0000000080843a44       0xb0 lib/built-in.o
                0x0000000080843a44                efi_disk_register
 .text.efi_pxe_base_code_start
                0x0000000080843af4        0x8 lib/built-in.o
 .text.efi_pxe_base_code_stop
                0x0000000080843afc        0x8 lib/built-in.o
 .text.efi_pxe_base_code_discover
                0x0000000080843b04        0x8 lib/built-in.o
 .text.efi_pxe_base_code_mtftp
                0x0000000080843b0c        0x8 lib/built-in.o
 .text.efi_pxe_base_code_udp_write
                0x0000000080843b14        0x8 lib/built-in.o
 .text.efi_pxe_base_code_udp_read
                0x0000000080843b1c        0x8 lib/built-in.o
 .text.efi_pxe_base_code_set_ip_filter
                0x0000000080843b24        0x8 lib/built-in.o
 .text.efi_pxe_base_code_arp
                0x0000000080843b2c        0x8 lib/built-in.o
 .text.efi_pxe_base_code_set_parameters
                0x0000000080843b34        0x8 lib/built-in.o
 .text.efi_pxe_base_code_set_packets
                0x0000000080843b3c        0x8 lib/built-in.o
 .text.efi_net_push
                0x0000000080843b44       0x5c lib/built-in.o
 .text.efi_network_timer_notify
                0x0000000080843ba0       0x54 lib/built-in.o
 .text.efi_net_nvdata
                0x0000000080843bf4       0x14 lib/built-in.o
 .text.efi_net_statistics
                0x0000000080843c08       0x14 lib/built-in.o
 .text.efi_net_station_address
                0x0000000080843c1c       0x14 lib/built-in.o
 .text.efi_net_receive_filters
                0x0000000080843c30       0x14 lib/built-in.o
 .text.efi_net_start
                0x0000000080843c44       0x3c lib/built-in.o
 .text.efi_net_get_status
                0x0000000080843c80       0x58 lib/built-in.o
 .text.efi_net_receive
                0x0000000080843cd8      0x140 lib/built-in.o
 .text.efi_net_transmit
                0x0000000080843e18       0xd8 lib/built-in.o
 .text.efi_net_mcastiptomac
                0x0000000080843ef0       0x70 lib/built-in.o
 .text.efi_net_shutdown
                0x0000000080843f60       0x50 lib/built-in.o
 .text.efi_net_stop
                0x0000000080843fb0       0x3c lib/built-in.o
 .text.efi_net_initialize
                0x0000000080843fec       0x70 lib/built-in.o
 .text.efi_net_reset
                0x000000008084405c       0x4c lib/built-in.o
 .text.efi_pxe_base_code_set_station_ip
                0x00000000808440a8        0x8 lib/built-in.o
 .text.efi_pxe_base_code_dhcp
                0x00000000808440b0        0x8 lib/built-in.o
 .text.efi_net_set_dhcp_ack
                0x00000000808440b8       0x34 lib/built-in.o
                0x00000000808440b8                efi_net_set_dhcp_ack
 .text.efi_net_register
                0x00000000808440ec      0x2c8 lib/built-in.o
                0x00000000808440ec                efi_net_register
 .text.efi_smbios_register
                0x00000000808443b4       0x44 lib/built-in.o
                0x00000000808443b4                efi_smbios_register
 .text.fdt_ro_probe_
                0x00000000808443f8       0x54 lib/built-in.o
                0x00000000808443f8                fdt_ro_probe_
 .text.fdt_header_size_
                0x000000008084444c       0x1a lib/built-in.o
                0x000000008084444c                fdt_header_size_
 .text.fdt_header_size
                0x0000000080844466        0x8 lib/built-in.o
                0x0000000080844466                fdt_header_size
 *fill*         0x000000008084446e        0x2 
 .text.fdt_check_header
                0x0000000080844470       0x98 lib/built-in.o
                0x0000000080844470                fdt_check_header
 .text.fdt_offset_ptr
                0x0000000080844508       0x3e lib/built-in.o
                0x0000000080844508                fdt_offset_ptr
 *fill*         0x0000000080844546        0x2 
 .text.fdt_next_tag
                0x0000000080844548       0xc0 lib/built-in.o
                0x0000000080844548                fdt_next_tag
 .text.fdt_check_node_offset_
                0x0000000080844608       0x24 lib/built-in.o
                0x0000000080844608                fdt_check_node_offset_
 .text.fdt_check_prop_offset_
                0x000000008084462c       0x24 lib/built-in.o
                0x000000008084462c                fdt_check_prop_offset_
 .text.fdt_next_node
                0x0000000080844650       0x6e lib/built-in.o
                0x0000000080844650                fdt_next_node
 .text.fdt_first_subnode
                0x00000000808446be       0x26 lib/built-in.o
                0x00000000808446be                fdt_first_subnode
 .text.fdt_next_subnode
                0x00000000808446e4       0x2a lib/built-in.o
                0x00000000808446e4                fdt_next_subnode
 .text.fdt_find_string_
                0x000000008084470e       0x30 lib/built-in.o
                0x000000008084470e                fdt_find_string_
 .text.fdt_move
                0x000000008084473e       0x2c lib/built-in.o
                0x000000008084473e                fdt_move
 .text.fdt_mem_rsv
                0x000000008084476a       0x1c lib/built-in.o
 .text.nextprop_
                0x0000000080844786       0x32 lib/built-in.o
 .text.fdt_get_property_by_offset_
                0x00000000808447b8       0x30 lib/built-in.o
 .text.fdt_get_string
                0x00000000808447e8       0x9c lib/built-in.o
                0x00000000808447e8                fdt_get_string
 .text.fdt_string
                0x0000000080844884        0x6 lib/built-in.o
                0x0000000080844884                fdt_string
 .text.fdt_get_mem_rsv
                0x000000008084488a       0x3e lib/built-in.o
                0x000000008084488a                fdt_get_mem_rsv
 .text.fdt_num_mem_rsv
                0x00000000808448c8       0x2a lib/built-in.o
                0x00000000808448c8                fdt_num_mem_rsv
 .text.fdt_get_name
                0x00000000808448f2       0x5a lib/built-in.o
                0x00000000808448f2                fdt_get_name
 .text.fdt_subnode_offset_namelen
                0x000000008084494c       0x82 lib/built-in.o
                0x000000008084494c                fdt_subnode_offset_namelen
 .text.fdt_subnode_offset
                0x00000000808449ce       0x1e lib/built-in.o
                0x00000000808449ce                fdt_subnode_offset
 .text.fdt_first_property_offset
                0x00000000808449ec       0x18 lib/built-in.o
                0x00000000808449ec                fdt_first_property_offset
 .text.fdt_next_property_offset
                0x0000000080844a04       0x18 lib/built-in.o
                0x0000000080844a04                fdt_next_property_offset
 .text.fdt_get_property_namelen_
                0x0000000080844a1c       0x76 lib/built-in.o
 .text.fdt_get_property_namelen
                0x0000000080844a92       0x2a lib/built-in.o
                0x0000000080844a92                fdt_get_property_namelen
 .text.fdt_get_property
                0x0000000080844abc       0x22 lib/built-in.o
                0x0000000080844abc                fdt_get_property
 .text.fdt_getprop_namelen
                0x0000000080844ade       0x36 lib/built-in.o
                0x0000000080844ade                fdt_getprop_namelen
 .text.fdt_getprop_by_offset
                0x0000000080844b14       0x5c lib/built-in.o
                0x0000000080844b14                fdt_getprop_by_offset
 .text.fdt_getprop
                0x0000000080844b70       0x22 lib/built-in.o
                0x0000000080844b70                fdt_getprop
 *fill*         0x0000000080844b92        0x2 
 .text.fdt_get_phandle
                0x0000000080844b94       0x40 lib/built-in.o
                0x0000000080844b94                fdt_get_phandle
 .text.fdt_find_max_phandle
                0x0000000080844bd4       0x3e lib/built-in.o
                0x0000000080844bd4                fdt_find_max_phandle
 *fill*         0x0000000080844c12        0x2 
 .text.fdt_get_alias_namelen
                0x0000000080844c14       0x2c lib/built-in.o
                0x0000000080844c14                fdt_get_alias_namelen
 .text.fdt_path_offset_namelen
                0x0000000080844c40       0x94 lib/built-in.o
                0x0000000080844c40                fdt_path_offset_namelen
 .text.fdt_path_offset
                0x0000000080844cd4       0x1a lib/built-in.o
                0x0000000080844cd4                fdt_path_offset
 .text.fdt_get_alias
                0x0000000080844cee       0x1a lib/built-in.o
                0x0000000080844cee                fdt_get_alias
 .text.fdt_get_path
                0x0000000080844d08       0xbe lib/built-in.o
                0x0000000080844d08                fdt_get_path
 .text.fdt_supernode_atdepth_offset
                0x0000000080844dc6       0x6c lib/built-in.o
                0x0000000080844dc6                fdt_supernode_atdepth_offset
 .text.fdt_node_depth
                0x0000000080844e32       0x1e lib/built-in.o
                0x0000000080844e32                fdt_node_depth
 .text.fdt_parent_offset
                0x0000000080844e50       0x20 lib/built-in.o
                0x0000000080844e50                fdt_parent_offset
 .text.fdt_node_offset_by_phandle
                0x0000000080844e70       0x42 lib/built-in.o
                0x0000000080844e70                fdt_node_offset_by_phandle
 .text.fdt_stringlist_contains
                0x0000000080844eb2       0x46 lib/built-in.o
                0x0000000080844eb2                fdt_stringlist_contains
 .text.fdt_stringlist_count
                0x0000000080844ef8       0x38 lib/built-in.o
                0x0000000080844ef8                fdt_stringlist_count
 .text.fdt_stringlist_get
                0x0000000080844f30       0x60 lib/built-in.o
                0x0000000080844f30                fdt_stringlist_get
 .text.fdt_node_check_compatible
                0x0000000080844f90       0x28 lib/built-in.o
                0x0000000080844f90                fdt_node_check_compatible
 .text.fdt_setprop_inplace_namelen_partial
                0x0000000080844fb8       0x30 lib/built-in.o
                0x0000000080844fb8                fdt_setprop_inplace_namelen_partial
 .text.fdt_setprop_inplace
                0x0000000080844fe8       0x4a lib/built-in.o
                0x0000000080844fe8                fdt_setprop_inplace
 .text.fdt_node_end_offset_
                0x0000000080845032       0x24 lib/built-in.o
                0x0000000080845032                fdt_node_end_offset_
 *fill*         0x0000000080845056        0x2 
 .text.fdt_strerror
                0x0000000080845058       0x3c lib/built-in.o
                0x0000000080845058                fdt_strerror
 .text.fdt_blocks_misordered_
                0x0000000080845094       0x36 lib/built-in.o
 .text.fdt_rw_probe_
                0x00000000808450ca       0x3a lib/built-in.o
 .text.fdt_splice_
                0x0000000080845104       0x4a lib/built-in.o
 .text.fdt_splice_mem_rsv_
                0x000000008084514e       0x2e lib/built-in.o
 .text.fdt_splice_struct_
                0x000000008084517c       0x26 lib/built-in.o
 .text.fdt_packblocks_
                0x00000000808451a2       0x5c lib/built-in.o
 .text.fdt_add_property_
                0x00000000808451fe       0xde lib/built-in.o
 .text.fdt_add_mem_rsv
                0x00000000808452dc       0x56 lib/built-in.o
                0x00000000808452dc                fdt_add_mem_rsv
 .text.fdt_del_mem_rsv
                0x0000000080845332       0x3c lib/built-in.o
                0x0000000080845332                fdt_del_mem_rsv
 .text.fdt_setprop_placeholder
                0x000000008084536e       0x6e lib/built-in.o
                0x000000008084536e                fdt_setprop_placeholder
 .text.fdt_setprop
                0x00000000808453dc       0x26 lib/built-in.o
                0x00000000808453dc                fdt_setprop
 .text.fdt_delprop
                0x0000000080845402       0x3e lib/built-in.o
                0x0000000080845402                fdt_delprop
 .text.fdt_add_subnode_namelen
                0x0000000080845440       0x98 lib/built-in.o
                0x0000000080845440                fdt_add_subnode_namelen
 .text.fdt_add_subnode
                0x00000000808454d8       0x1e lib/built-in.o
                0x00000000808454d8                fdt_add_subnode
 .text.fdt_del_node
                0x00000000808454f6       0x30 lib/built-in.o
                0x00000000808454f6                fdt_del_node
 *fill*         0x0000000080845526        0x2 
 .text.fdt_open_into
                0x0000000080845528       0xe4 lib/built-in.o
                0x0000000080845528                fdt_open_into
 .text.fdt_pack
                0x000000008084560c       0x34 lib/built-in.o
                0x000000008084560c                fdt_pack
 .text.fdt_cells
                0x0000000080845640       0x2a lib/built-in.o
 *fill*         0x000000008084566a        0x2 
 .text.fdt_address_cells
                0x000000008084566c       0x1c lib/built-in.o
                0x000000008084566c                fdt_address_cells
 .text.fdt_size_cells
                0x0000000080845688       0x18 lib/built-in.o
                0x0000000080845688                fdt_size_cells
 .text.overlay_phandle_add_offset
                0x00000000808456a0       0x4a lib/built-in.o
 *fill*         0x00000000808456ea        0x2 
 .text.overlay_adjust_node_phandles
                0x00000000808456ec       0x5c lib/built-in.o
 .text.overlay_update_local_node_references
                0x0000000080845748       0xfc lib/built-in.o
 .text.overlay_get_target
                0x0000000080845844       0x7c lib/built-in.o
 .text.overlay_apply_node
                0x00000000808458c0       0xae lib/built-in.o
 *fill*         0x000000008084596e        0x2 
 .text.fdt_overlay_apply
                0x0000000080845970      0x43c lib/built-in.o
                0x0000000080845970                fdt_overlay_apply
 .text.get_code
                0x0000000080845dac       0x7a lib/built-in.o
 .text.read_string
                0x0000000080845e26       0x18 lib/built-in.o
 .text.read_console
                0x0000000080845e3e        0xe lib/built-in.o
 .text.console_read_unicode
                0x0000000080845e4c       0x20 lib/built-in.o
                0x0000000080845e4c                console_read_unicode
 .text.utf8_get
                0x0000000080845e6c        0xc lib/built-in.o
                0x0000000080845e6c                utf8_get
 .text.utf8_put
                0x0000000080845e78       0x90 lib/built-in.o
                0x0000000080845e78                utf8_put
 .text.utf8_utf16_strnlen
                0x0000000080845f08       0x32 lib/built-in.o
                0x0000000080845f08                utf8_utf16_strnlen
 .text.utf16_get
                0x0000000080845f3a       0x5a lib/built-in.o
                0x0000000080845f3a                utf16_get
 .text.utf16_put
                0x0000000080845f94       0x4c lib/built-in.o
                0x0000000080845f94                utf16_put
 .text.utf8_utf16_strncpy
                0x0000000080845fe0       0x3e lib/built-in.o
                0x0000000080845fe0                utf8_utf16_strncpy
 .text.utf16_strnlen
                0x000000008084601e       0x26 lib/built-in.o
                0x000000008084601e                utf16_strnlen
 .text.utf16_utf8_strnlen
                0x0000000080846044       0x42 lib/built-in.o
                0x0000000080846044                utf16_utf8_strnlen
 .text.utf16_utf8_strncpy
                0x0000000080846086       0x3e lib/built-in.o
                0x0000000080846086                utf16_utf8_strncpy
 .text.utf_to_lower
                0x00000000808460c4       0x2c lib/built-in.o
                0x00000000808460c4                utf_to_lower
 .text.utf_to_upper
                0x00000000808460f0       0x2c lib/built-in.o
                0x00000000808460f0                utf_to_upper
 .text.u16_strncmp
                0x000000008084611c       0x22 lib/built-in.o
                0x000000008084611c                u16_strncmp
 .text.u16_strlen
                0x000000008084613e       0x14 lib/built-in.o
                0x000000008084613e                u16_strlen
 .text.u16_strdup
                0x0000000080846152       0x28 lib/built-in.o
                0x0000000080846152                u16_strdup
 .text.utf16_to_utf8
                0x000000008084617a       0xc8 lib/built-in.o
                0x000000008084617a                utf16_to_utf8
 *fill*         0x0000000080846242        0x2 
 .text.crc16_ccitt
                0x0000000080846244       0x24 lib/built-in.o
                0x0000000080846244                crc16_ccitt
 .text.crc16_ccitt_wd_buf
                0x0000000080846268       0x24 lib/built-in.o
                0x0000000080846268                crc16_ccitt_wd_buf
 .text.fdtdec_get_int
                0x000000008084628c       0x1c lib/built-in.o
                0x000000008084628c                fdtdec_get_int
 .text.smbios_write_type127
                0x00000000808462a8       0x2c lib/built-in.o
 .text.smbios_write_type32
                0x00000000808462d4       0x2c lib/built-in.o
 .text.smbios_string_table_len
                0x0000000080846300       0x1c lib/built-in.o
 .text.smbios_add_string
                0x000000008084631c       0x48 lib/built-in.o
 .text.smbios_write_type0
                0x0000000080846364       0x90 lib/built-in.o
 .text.smbios_add_prop
                0x00000000808463f4       0x1c lib/built-in.o
 .text.smbios_write_type3
                0x0000000080846410       0x58 lib/built-in.o
 .text.smbios_write_type2
                0x0000000080846468       0x70 lib/built-in.o
 .text.smbios_write_type1
                0x00000000808464d8       0xc8 lib/built-in.o
 .text.smbios_write_type4
                0x00000000808465a0       0x80 lib/built-in.o
 .text.write_smbios_table
                0x0000000080846620       0xe8 lib/built-in.o
                0x0000000080846620                write_smbios_table
 .text.default_log
                0x0000000080846708        0x2 lib/built-in.o
 *fill*         0x000000008084670a        0x2 
 .text.write_sparse_image
                0x000000008084670c      0x2c8 lib/built-in.o
                0x000000008084670c                write_sparse_image
 .text.string_to_ip
                0x00000000808469d4       0x48 lib/built-in.o
                0x00000000808469d4                string_to_ip
 .text.string_to_enetaddr
                0x0000000080846a1c       0x32 lib/built-in.o
                0x0000000080846a1c                string_to_enetaddr
 .text.compute_ip_checksum
                0x0000000080846a4e       0x48 lib/built-in.o
                0x0000000080846a4e                compute_ip_checksum
 .text.ip_checksum_ok
                0x0000000080846a96       0x14 lib/built-in.o
                0x0000000080846a96                ip_checksum_ok
 .text.merge    0x0000000080846aaa       0x36 lib/built-in.o
 .text.list_sort
                0x0000000080846ae0       0xec lib/built-in.o
                0x0000000080846ae0                list_sort
 .text.MD5Transform
                0x0000000080846bcc      0x6a0 lib/built-in.o
 .text.MD5Update
                0x000000008084726c       0x94 lib/built-in.o
 .text.MD5Final
                0x0000000080847300       0x68 lib/built-in.o
 .text.md5_wd   0x0000000080847368       0x64 lib/built-in.o
                0x0000000080847368                md5_wd
 .text.subtract_modulus
                0x00000000808473cc       0x32 lib/built-in.o
 .text.montgomery_mul
                0x00000000808473fe       0xe6 lib/built-in.o
 .text.rsa_convert_big_endian
                0x00000000808474e4       0x1c lib/built-in.o
 .text.rsa_mod_exp_sw
                0x0000000080847500      0x21e lib/built-in.o
                0x0000000080847500                rsa_mod_exp_sw
 *fill*         0x000000008084771e        0x2 
 .text.sha1_process
                0x0000000080847720      0xf5c lib/built-in.o
 .text.sha1_update.part.0
                0x000000008084867c       0x88 lib/built-in.o
 .text.sha1_starts
                0x0000000080848704       0x34 lib/built-in.o
                0x0000000080848704                sha1_starts
 .text.sha1_update
                0x0000000080848738        0x8 lib/built-in.o
                0x0000000080848738                sha1_update
 .text.sha1_finish
                0x0000000080848740       0x9c lib/built-in.o
                0x0000000080848740                sha1_finish
 .text.sha1_csum_wd
                0x00000000808487dc       0x40 lib/built-in.o
                0x00000000808487dc                sha1_csum_wd
 .text.sha256_process
                0x000000008084881c     0x1c70 lib/built-in.o
 .text.sha256_update.part.0
                0x000000008084a48c       0x88 lib/built-in.o
 .text.sha256_starts
                0x000000008084a514       0x50 lib/built-in.o
                0x000000008084a514                sha256_starts
 .text.sha256_update
                0x000000008084a564        0x8 lib/built-in.o
                0x000000008084a564                sha256_update
 .text.sha256_finish
                0x000000008084a56c       0xd8 lib/built-in.o
                0x000000008084a56c                sha256_finish
 .text.sha256_csum_wd
                0x000000008084a644       0x40 lib/built-in.o
                0x000000008084a644                sha256_csum_wd
 .text.zcalloc  0x000000008084a684        0x8 lib/built-in.o
                0x000000008084a684                zcalloc
 .text.zcfree   0x000000008084a68c        0x6 lib/built-in.o
                0x000000008084a68c                zcfree
 *fill*         0x000000008084a692        0x2 
 .text.inflate_fast
                0x000000008084a694      0x3b4 lib/built-in.o
                0x000000008084a694                inflate_fast
 .text.inflate_table
                0x000000008084aa48      0x320 lib/built-in.o
                0x000000008084aa48                inflate_table
 .text.inflateReset
                0x000000008084ad68       0x46 lib/built-in.o
                0x000000008084ad68                inflateReset
 *fill*         0x000000008084adae        0x2 
 .text.inflateInit2_
                0x000000008084adb0       0x98 lib/built-in.o
                0x000000008084adb0                inflateInit2_
 .text.inflateEnd
                0x000000008084ae48       0x36 lib/built-in.o
                0x000000008084ae48                inflateEnd
 .text.adler32  0x000000008084ae7e      0x234 lib/built-in.o
                0x000000008084ae7e                adler32
 *fill*         0x000000008084b0b2        0x2 
 .text.inflate  0x000000008084b0b4      0xd34 lib/built-in.o
                0x000000008084b0b4                inflate
 .text.gzalloc  0x000000008084bde8        0xe lib/built-in.o
                0x000000008084bde8                gzalloc
 .text.gzfree   0x000000008084bdf6        0x6 lib/built-in.o
                0x000000008084bdf6                gzfree
 .text.gzip_parse_header
                0x000000008084bdfc       0x70 lib/built-in.o
                0x000000008084bdfc                gzip_parse_header
 .text.zunzip   0x000000008084be6c       0xa8 lib/built-in.o
                0x000000008084be6c                zunzip
 .text.gunzip   0x000000008084bf14       0x2c lib/built-in.o
                0x000000008084bf14                gunzip
 .text.lzop_is_valid_header
                0x000000008084bf40       0x24 lib/built-in.o
                0x000000008084bf40                lzop_is_valid_header
 .text.lzo1x_decompress_safe
                0x000000008084bf64      0x43a lib/built-in.o
                0x000000008084bf64                lzo1x_decompress_safe
 .text.lzop_decompress
                0x000000008084c39e       0xe4 lib/built-in.o
                0x000000008084c39e                lzop_decompress
 .text.get_prop_check_min_len
                0x000000008084c482       0x26 lib/built-in.o
 .text.fdtdec_get_is_enabled
                0x000000008084c4a8       0x28 lib/built-in.o
                0x000000008084c4a8                fdtdec_get_is_enabled
 .text.fdtdec_get_alias_seq
                0x000000008084c4d0       0xac lib/built-in.o
                0x000000008084c4d0                fdtdec_get_alias_seq
 .text.fdtdec_get_alias_highest_id
                0x000000008084c57c       0x78 lib/built-in.o
                0x000000008084c57c                fdtdec_get_alias_highest_id
 .text.fdtdec_get_chosen_prop
                0x000000008084c5f4       0x24 lib/built-in.o
                0x000000008084c5f4                fdtdec_get_chosen_prop
 .text.fdtdec_prepare_fdt
                0x000000008084c618       0x30 lib/built-in.o
                0x000000008084c618                fdtdec_prepare_fdt
 .text.fdtdec_lookup_phandle
                0x000000008084c648       0x20 lib/built-in.o
                0x000000008084c648                fdtdec_lookup_phandle
 .text.fdtdec_get_int_array
                0x000000008084c668       0x36 lib/built-in.o
                0x000000008084c668                fdtdec_get_int_array
 .text.fdtdec_get_int_array_count
                0x000000008084c69e       0x38 lib/built-in.o
                0x000000008084c69e                fdtdec_get_int_array_count
 .text.fdtdec_get_bool
                0x000000008084c6d6       0x14 lib/built-in.o
                0x000000008084c6d6                fdtdec_get_bool
 .text.fdtdec_parse_phandle_with_args
                0x000000008084c6ea       0xc8 lib/built-in.o
                0x000000008084c6ea                fdtdec_parse_phandle_with_args
 .text.fdtdec_locate_byte_array
                0x000000008084c7b2       0x16 lib/built-in.o
                0x000000008084c7b2                fdtdec_locate_byte_array
 .text.fdtdec_get_config_int
                0x000000008084c7c8       0x28 lib/built-in.o
                0x000000008084c7c8                fdtdec_get_config_int
 .text.fdtdec_get_config_string
                0x000000008084c7f0       0x2c lib/built-in.o
                0x000000008084c7f0                fdtdec_get_config_string
 .text.fdtdec_get_number
                0x000000008084c81c       0x1a lib/built-in.o
                0x000000008084c81c                fdtdec_get_number
 .text.fdtdec_get_addr_size_fixed
                0x000000008084c836       0x6c lib/built-in.o
                0x000000008084c836                fdtdec_get_addr_size_fixed
 .text.fdtdec_get_addr_size_auto_parent
                0x000000008084c8a2       0x46 lib/built-in.o
                0x000000008084c8a2                fdtdec_get_addr_size_auto_parent
 .text.fdtdec_get_addr_size
                0x000000008084c8e8       0x1e lib/built-in.o
                0x000000008084c8e8                fdtdec_get_addr_size
 .text.fdtdec_get_addr
                0x000000008084c906        0x6 lib/built-in.o
                0x000000008084c906                fdtdec_get_addr
 .text.fdt_get_resource
                0x000000008084c90c       0x94 lib/built-in.o
                0x000000008084c90c                fdt_get_resource
 .text.board_fdt_blob_setup
                0x000000008084c9a0        0x8 lib/built-in.o
                0x000000008084c9a0                board_fdt_blob_setup
 .text.fdtdec_board_setup
                0x000000008084c9a8        0x4 lib/built-in.o
                0x000000008084c9a8                fdtdec_board_setup
 .text.fdtdec_setup
                0x000000008084c9ac       0x34 lib/built-in.o
                0x000000008084c9ac                fdtdec_setup
 .text.qsort    0x000000008084c9e0       0x98 lib/built-in.o
                0x000000008084c9e0                qsort
 .text.strcmp_compar
                0x000000008084ca78        0x8 lib/built-in.o
                0x000000008084ca78                strcmp_compar
 .text.cmpkey   0x000000008084ca80        0xc lib/built-in.o
 .text._hdelete.isra.0
                0x000000008084ca8c       0x2e lib/built-in.o
 .text.drop_var_from_set.part.0
                0x000000008084caba       0x30 lib/built-in.o
 *fill*         0x000000008084caea        0x2 
 .text.match_string
                0x000000008084caec       0x5c lib/built-in.o
 .text.match_entry
                0x000000008084cb48       0x7c lib/built-in.o
 .text.hcreate_r
                0x000000008084cbc4       0x5c lib/built-in.o
                0x000000008084cbc4                hcreate_r
 .text.hdestroy_r
                0x000000008084cc20       0x44 lib/built-in.o
                0x000000008084cc20                hdestroy_r
 .text.hmatch_r
                0x000000008084cc64       0x60 lib/built-in.o
                0x000000008084cc64                hmatch_r
 .text.hsearch_r
                0x000000008084ccc4      0x2b8 lib/built-in.o
                0x000000008084ccc4                hsearch_r
 .text.hdelete_r
                0x000000008084cf7c       0x94 lib/built-in.o
                0x000000008084cf7c                hdelete_r
 .text.hexport_r
                0x000000008084d010      0x188 lib/built-in.o
                0x000000008084d010                hexport_r
 .text.himport_r
                0x000000008084d198      0x26c lib/built-in.o
                0x000000008084d198                himport_r
 .text.hwalk_r  0x000000008084d404       0x30 lib/built-in.o
                0x000000008084d404                hwalk_r
 .text.display_options_get_banner_priv
                0x000000008084d434       0x68 lib/built-in.o
                0x000000008084d434                display_options_get_banner_priv
 .text.display_options_get_banner
                0x000000008084d49c        0xa lib/built-in.o
                0x000000008084d49c                display_options_get_banner
 *fill*         0x000000008084d4a6        0x2 
 .text.display_options
                0x000000008084d4a8       0x24 lib/built-in.o
                0x000000008084d4a8                display_options
 .text.print_size
                0x000000008084d4cc      0x118 lib/built-in.o
                0x000000008084d4cc                print_size
 .text.print_buffer
                0x000000008084d5e4      0x12c lib/built-in.o
                0x000000008084d5e4                print_buffer
 .text.crc32_wd
                0x000000008084d710       0x32 lib/built-in.o
                0x000000008084d710                crc32_wd
 .text.crc32_wd_buf
                0x000000008084d742       0x22 lib/built-in.o
                0x000000008084d742                crc32_wd_buf
 .text.__div64_32
                0x000000008084d764       0x90 lib/built-in.o
                0x000000008084d764                __div64_32
 .text.hang     0x000000008084d7f4       0x18 lib/built-in.o
                0x000000008084d7f4                hang
 .text.kmalloc  0x000000008084d80c       0x28 lib/built-in.o
                0x000000008084d80c                kmalloc
 .text.skip_spaces
                0x000000008084d834       0x18 lib/built-in.o
                0x000000008084d834                skip_spaces
 .text.strim    0x000000008084d84c       0x34 lib/built-in.o
                0x000000008084d84c                strim
 .text.lmb_overlaps_region
                0x000000008084d880       0x2c lib/built-in.o
 .text.lmb_add_region
                0x000000008084d8ac      0x100 lib/built-in.o
 .text.lmb_dump_all_force
                0x000000008084d9ac       0xbc lib/built-in.o
                0x000000008084d9ac                lmb_dump_all_force
 .text.lmb_dump_all
                0x000000008084da68        0x2 lib/built-in.o
                0x000000008084da68                lmb_dump_all
 .text.lmb_add  0x000000008084da6a        0x4 lib/built-in.o
                0x000000008084da6a                lmb_add
 .text.lmb_free
                0x000000008084da6e       0x86 lib/built-in.o
                0x000000008084da6e                lmb_free
 .text.lmb_reserve
                0x000000008084daf4        0x6 lib/built-in.o
                0x000000008084daf4                lmb_reserve
 .text.__lmb_alloc_base
                0x000000008084dafa       0x86 lib/built-in.o
                0x000000008084dafa                __lmb_alloc_base
 .text.lmb_alloc_base
                0x000000008084db80       0x20 lib/built-in.o
                0x000000008084db80                lmb_alloc_base
 .text.lmb_alloc
                0x000000008084dba0        0x6 lib/built-in.o
                0x000000008084dba0                lmb_alloc
 .text.lmb_alloc_addr
                0x000000008084dba6       0x40 lib/built-in.o
                0x000000008084dba6                lmb_alloc_addr
 .text.lmb_get_free_size
                0x000000008084dbe6       0x48 lib/built-in.o
                0x000000008084dbe6                lmb_get_free_size
 .text.board_lmb_reserve
                0x000000008084dc2e        0x2 lib/built-in.o
                0x000000008084dc2e                board_lmb_reserve
 .text.lmb_init_and_reserve
                0x000000008084dc30       0x44 lib/built-in.o
                0x000000008084dc30                lmb_init_and_reserve
 .text.lmb_init_and_reserve_range
                0x000000008084dc74       0x30 lib/built-in.o
                0x000000008084dc74                lmb_init_and_reserve_range
 .text.emit     0x000000008084dca4       0x20 lib/built-in.o
 .text.store_char_in_data
                0x000000008084dcc4       0x24 lib/built-in.o
 .text.get_escape_char
                0x000000008084dce8       0x54 lib/built-in.o
 .text.relocate
                0x000000008084dd3c       0x2a lib/built-in.o
 *fill*         0x000000008084dd66        0x2 
 .text.match    0x000000008084dd68      0x268 lib/built-in.o
 .text.loop_greedy
                0x000000008084dfd0       0x56 lib/built-in.o
 .text.loop_non_greedy
                0x000000008084e026       0x52 lib/built-in.o
 .text.quantifier
                0x000000008084e078       0x5c lib/built-in.o
 .text.fixup_branch
                0x000000008084e0d4       0x28 lib/built-in.o
 .text.compile  0x000000008084e0fc      0x240 lib/built-in.o
 .text.slre_compile
                0x000000008084e33c       0x8c lib/built-in.o
                0x000000008084e33c                slre_compile
 .text.slre_match
                0x000000008084e3c8       0x5a lib/built-in.o
                0x000000008084e3c8                slre_match
 *fill*         0x000000008084e422        0x2 
 .text.strncasecmp
                0x000000008084e424       0x44 lib/built-in.o
                0x000000008084e424                strncasecmp
 .text.strcasecmp
                0x000000008084e468        0x8 lib/built-in.o
                0x000000008084e468                strcasecmp
 .text.strcpy   0x000000008084e470       0x10 lib/built-in.o
                0x000000008084e470                strcpy
 .text.strncpy  0x000000008084e480       0x18 lib/built-in.o
                0x000000008084e480                strncpy
 .text.strcat   0x000000008084e498       0x1e lib/built-in.o
                0x000000008084e498                strcat
 .text.strncat  0x000000008084e4b6       0x28 lib/built-in.o
                0x000000008084e4b6                strncat
 .text.strcmp   0x000000008084e4de       0x16 lib/built-in.o
                0x000000008084e4de                strcmp
 .text.strncmp  0x000000008084e4f4       0x22 lib/built-in.o
                0x000000008084e4f4                strncmp
 .text.strchr   0x000000008084e516       0x1a lib/built-in.o
                0x000000008084e516                strchr
 .text.strlen   0x000000008084e530       0x10 lib/built-in.o
                0x000000008084e530                strlen
 .text.strlcpy  0x000000008084e540       0x2e lib/built-in.o
                0x000000008084e540                strlcpy
 .text.strrchr  0x000000008084e56e       0x20 lib/built-in.o
                0x000000008084e56e                strrchr
 .text.strnlen  0x000000008084e58e       0x1a lib/built-in.o
                0x000000008084e58e                strnlen
 .text.strdup   0x000000008084e5a8       0x22 lib/built-in.o
                0x000000008084e5a8                strdup
 .text.strspn   0x000000008084e5ca       0x20 lib/built-in.o
                0x000000008084e5ca                strspn
 .text.strpbrk  0x000000008084e5ea       0x22 lib/built-in.o
                0x000000008084e5ea                strpbrk
 .text.strtok   0x000000008084e60c       0x3c lib/built-in.o
                0x000000008084e60c                strtok
 .text.strsep   0x000000008084e648       0x1c lib/built-in.o
                0x000000008084e648                strsep
 .text.memmove  0x000000008084e664       0x26 lib/built-in.o
                0x000000008084e664                memmove
 .text.memcmp   0x000000008084e68a       0x1a lib/built-in.o
                0x000000008084e68a                memcmp
 .text.strstr   0x000000008084e6a4       0x40 lib/built-in.o
                0x000000008084e6a4                strstr
 .text.memchr   0x000000008084e6e4       0x1c lib/built-in.o
                0x000000008084e6e4                memchr
 .text.get_tbclk
                0x000000008084e700       0x1c lib/built-in.o
                0x000000008084e700                get_tbclk
 .text.tick_to_time
                0x000000008084e71c       0x4e lib/built-in.o
 *fill*         0x000000008084e76a        0x2 
 .text.get_ticks
                0x000000008084e76c       0x3c lib/built-in.o
                0x000000008084e76c                get_ticks
 .text.timer_init
                0x000000008084e7a8        0x4 lib/built-in.o
                0x000000008084e7a8                timer_init
 .text.get_timer
                0x000000008084e7ac       0x10 lib/built-in.o
                0x000000008084e7ac                get_timer
 .text.timer_get_us
                0x000000008084e7bc       0x1a lib/built-in.o
                0x000000008084e7bc                timer_get_us
 *fill*         0x000000008084e7d6        0x2 
 .text.usec_to_tick
                0x000000008084e7d8       0x68 lib/built-in.o
                0x000000008084e7d8                usec_to_tick
 .text.__udelay
                0x000000008084e840       0x30 lib/built-in.o
                0x000000008084e840                __udelay
 .text.udelay   0x000000008084e870       0x24 lib/built-in.o
                0x000000008084e870                udelay
 .text.uuid_str_valid
                0x000000008084e894       0x4c lib/built-in.o
                0x000000008084e894                uuid_str_valid
 .text.uuid_str_to_bin
                0x000000008084e8e0      0x12c lib/built-in.o
                0x000000008084e8e0                uuid_str_to_bin
 .text.uuid_bin_to_str
                0x000000008084ea0c       0x88 lib/built-in.o
                0x000000008084ea0c                uuid_bin_to_str
 .text.gen_rand_uuid
                0x000000008084ea94       0x5c lib/built-in.o
                0x000000008084ea94                gen_rand_uuid
 .text.gen_rand_uuid_str
                0x000000008084eaf0       0x1c lib/built-in.o
                0x000000008084eaf0                gen_rand_uuid_str
 .text.rand_r   0x000000008084eb0c       0x14 lib/built-in.o
                0x000000008084eb0c                rand_r
 .text.rand     0x000000008084eb20        0xc lib/built-in.o
                0x000000008084eb20                rand
 .text.srand    0x000000008084eb2c        0xc lib/built-in.o
                0x000000008084eb2c                srand
 .text.panic_finish
                0x000000008084eb38       0x20 lib/built-in.o
 .text.panic_str
                0x000000008084eb58        0xa lib/built-in.o
                0x000000008084eb58                panic_str
 .text.panic    0x000000008084eb62       0x14 lib/built-in.o
                0x000000008084eb62                panic
 *fill*         0x000000008084eb76        0x2 
 .text.__assert_fail
                0x000000008084eb78       0x10 lib/built-in.o
                0x000000008084eb78                __assert_fail
 .text.put_dec_trunc
                0x000000008084eb88       0x96 lib/built-in.o
 *fill*         0x000000008084ec1e        0x2 
 .text.put_dec  0x000000008084ec20      0x130 lib/built-in.o
 .text.number   0x000000008084ed50      0x210 lib/built-in.o
 .text.string16
                0x000000008084ef60       0x98 lib/built-in.o
 .text.string   0x000000008084eff8       0x98 lib/built-in.o
 .text.vsnprintf_internal
                0x000000008084f090      0x574 lib/built-in.o
 .text.vsnprintf
                0x000000008084f604        0x4 lib/built-in.o
                0x000000008084f604                vsnprintf
 .text.vscnprintf
                0x000000008084f608       0x16 lib/built-in.o
                0x000000008084f608                vscnprintf
 .text.snprintf
                0x000000008084f61e       0x1a lib/built-in.o
                0x000000008084f61e                snprintf
 .text.vsprintf
                0x000000008084f638        0xc lib/built-in.o
                0x000000008084f638                vsprintf
 .text.sprintf  0x000000008084f644       0x1a lib/built-in.o
                0x000000008084f644                sprintf
 .text.printf   0x000000008084f65e       0x34 lib/built-in.o
                0x000000008084f65e                printf
 .text.vprintf  0x000000008084f692       0x26 lib/built-in.o
                0x000000008084f692                vprintf
 .text.simple_itoa
                0x000000008084f6b8       0x38 lib/built-in.o
                0x000000008084f6b8                simple_itoa
 .text.str2off  0x000000008084f6f0       0x24 lib/built-in.o
                0x000000008084f6f0                str2off
 .text.str2long
                0x000000008084f714       0x22 lib/built-in.o
                0x000000008084f714                str2long
 *fill*         0x000000008084f736        0x2 
 .text._parse_integer_fixup_radix
                0x000000008084f738       0x5c lib/built-in.o
 .text.simple_strtoul
                0x000000008084f794       0x50 lib/built-in.o
                0x000000008084f794                simple_strtoul
 .text.strict_strtoul
                0x000000008084f7e4       0x42 lib/built-in.o
                0x000000008084f7e4                strict_strtoul
 .text.simple_strtol
                0x000000008084f826       0x1a lib/built-in.o
                0x000000008084f826                simple_strtol
 .text.ustrtoul
                0x000000008084f840       0x4c lib/built-in.o
                0x000000008084f840                ustrtoul
 .text.simple_strtoull
                0x000000008084f88c       0x74 lib/built-in.o
                0x000000008084f88c                simple_strtoull
 .text.ustrtoull
                0x000000008084f900       0x5c lib/built-in.o
                0x000000008084f900                ustrtoull
 .text.trailing_strtoln
                0x000000008084f95c       0x48 lib/built-in.o
                0x000000008084f95c                trailing_strtoln
 .text.trailing_strtol
                0x000000008084f9a4        0x6 lib/built-in.o
                0x000000008084f9a4                trailing_strtol
 .text.load_elf64_image_phdr
                0x000000008084f9aa       0x78 lib/built-in.o
                0x000000008084f9aa                load_elf64_image_phdr
 .text.load_elf64_image_shdr
                0x000000008084fa22       0x86 lib/built-in.o
                0x000000008084fa22                load_elf64_image_shdr
 .text.load_elf_image_phdr
                0x000000008084faa8       0x62 lib/built-in.o
                0x000000008084faa8                load_elf_image_phdr
 .text.load_elf_image_shdr
                0x000000008084fb0a       0x66 lib/built-in.o
                0x000000008084fb0a                load_elf_image_shdr
 .text.valid_elf_image
                0x000000008084fb70       0x30 lib/built-in.o
                0x000000008084fb70                valid_elf_image
 .text.arp_init
                0x000000008084fba0       0x38 net/built-in.o
                0x000000008084fba0                arp_init
 .text.arp_raw_request
                0x000000008084fbd8       0x94 net/built-in.o
                0x000000008084fbd8                arp_raw_request
 .text.arp_request
                0x000000008084fc6c       0x54 net/built-in.o
                0x000000008084fc6c                arp_request
 .text.arp_timeout_check
                0x000000008084fcc0       0x58 net/built-in.o
                0x000000008084fcc0                arp_timeout_check
 .text.arp_receive
                0x000000008084fd18      0x180 net/built-in.o
                0x000000008084fd18                arp_receive
 .text.arp_is_waiting
                0x000000008084fe98       0x10 net/built-in.o
                0x000000008084fe98                arp_is_waiting
 .text.dhcp_extended
                0x000000008084fea8      0x188 net/built-in.o
 .text.dhcp_process_options
                0x0000000080850030      0x1d0 net/built-in.o
 .text.dhcp_packet_process_options
                0x0000000080850200       0x5c net/built-in.o
 .text.dhcp_handler
                0x000000008085025c      0x2a4 net/built-in.o
 .text.bootp_reset
                0x0000000080850500       0x2c net/built-in.o
                0x0000000080850500                bootp_reset
 .text.bootp_request
                0x000000008085052c      0x1e8 net/built-in.o
                0x000000008085052c                bootp_request
 .text.bootp_timeout_handler
                0x0000000080850714       0x58 net/built-in.o
 .text.dhcp_request
                0x000000008085076c        0x4 net/built-in.o
                0x000000008085076c                dhcp_request
 .text.eth_get_uclass_priv
                0x0000000080850770       0x1a net/built-in.o
 *fill*         0x000000008085078a        0x2 
 .text.eth_write_hwaddr
                0x000000008085078c       0x7c net/built-in.o
 .text.on_ethaddr
                0x0000000080850808       0x4c net/built-in.o
 .text.eth_post_probe
                0x0000000080850854      0x144 net/built-in.o
 .text.eth_post_bind
                0x0000000080850998       0x20 net/built-in.o
 .text.eth_set_current_to_next
                0x00000000808509b8       0x24 net/built-in.o
                0x00000000808509b8                eth_set_current_to_next
 .text.eth_get_dev
                0x00000000808509dc       0x34 net/built-in.o
                0x00000000808509dc                eth_get_dev
 .text.eth_set_dev
                0x0000000080850a10       0x24 net/built-in.o
                0x0000000080850a10                eth_set_dev
 .text.eth_pre_unbind
                0x0000000080850a34       0x18 net/built-in.o
 .text.eth_get_dev_by_name
                0x0000000080850a4c       0x8c net/built-in.o
                0x0000000080850a4c                eth_get_dev_by_name
 .text.eth_get_ethaddr
                0x0000000080850ad8       0x12 net/built-in.o
                0x0000000080850ad8                eth_get_ethaddr
 .text.eth_halt_state_only
                0x0000000080850aea       0x16 net/built-in.o
                0x0000000080850aea                eth_halt_state_only
 .text.eth_get_dev_index
                0x0000000080850b00       0x16 net/built-in.o
                0x0000000080850b00                eth_get_dev_index
 *fill*         0x0000000080850b16        0x2 
 .text.eth_init
                0x0000000080850b18       0x94 net/built-in.o
                0x0000000080850b18                eth_init
 .text.eth_is_active
                0x0000000080850bac       0x20 net/built-in.o
                0x0000000080850bac                eth_is_active
 .text.eth_halt
                0x0000000080850bcc       0x24 net/built-in.o
                0x0000000080850bcc                eth_halt
 .text.eth_pre_remove
                0x0000000080850bf0       0x24 net/built-in.o
 .text.eth_send
                0x0000000080850c14       0x32 net/built-in.o
                0x0000000080850c14                eth_send
 .text.eth_rx   0x0000000080850c46       0x66 net/built-in.o
                0x0000000080850c46                eth_rx
 .text.eth_initialize
                0x0000000080850cac       0xcc net/built-in.o
                0x0000000080850cac                eth_initialize
 .text.eth_env_get_enetaddr_by_index
                0x0000000080850d78       0x2c net/built-in.o
                0x0000000080850d78                eth_env_get_enetaddr_by_index
 .text.eth_env_set_enetaddr_by_index
                0x0000000080850da4       0x2c net/built-in.o
                0x0000000080850da4                eth_env_set_enetaddr_by_index
 .text.eth_common_init
                0x0000000080850dd0       0x14 net/built-in.o
                0x0000000080850dd0                eth_common_init
 .text.eth_mac_skip
                0x0000000080850de4       0x2c net/built-in.o
                0x0000000080850de4                eth_mac_skip
 .text.eth_get_name
                0x0000000080850e10       0x18 net/built-in.o
                0x0000000080850e10                eth_get_name
 .text.eth_current_changed
                0x0000000080850e28       0x5c net/built-in.o
                0x0000000080850e28                eth_current_changed
 .text.eth_try_another
                0x0000000080850e84       0x54 net/built-in.o
                0x0000000080850e84                eth_try_another
 .text.eth_set_current
                0x0000000080850ed8       0x58 net/built-in.o
                0x0000000080850ed8                eth_set_current
 .text.net_clear_handlers
                0x0000000080850f30       0x24 net/built-in.o
 .text.start_again_timeout_handler
                0x0000000080850f54        0xc net/built-in.o
 .text.dummy_handler
                0x0000000080850f60        0x2 net/built-in.o
 *fill*         0x0000000080850f62        0x2 
 .text.on_ipaddr
                0x0000000080850f64       0x18 net/built-in.o
 .text.on_gatewayip
                0x0000000080850f7c       0x18 net/built-in.o
 .text.on_netmask
                0x0000000080850f94       0x18 net/built-in.o
 .text.on_serverip
                0x0000000080850fac       0x18 net/built-in.o
 .text.net_init_loop
                0x0000000080850fc4       0x24 net/built-in.o
 .text.net_init
                0x0000000080850fe8       0x50 net/built-in.o
                0x0000000080850fe8                net_init
 .text.net_start_again
                0x0000000080851038       0xec net/built-in.o
                0x0000000080851038                net_start_again
 .text.net_set_udp_handler
                0x0000000080851124       0x18 net/built-in.o
                0x0000000080851124                net_set_udp_handler
 .text.net_get_arp_handler
                0x000000008085113c        0xc net/built-in.o
                0x000000008085113c                net_get_arp_handler
 .text.net_set_timeout_handler
                0x0000000080851148       0x40 net/built-in.o
                0x0000000080851148                net_set_timeout_handler
 .text.net_get_async_tx_pkt_buf
                0x0000000080851188       0x1c net/built-in.o
                0x0000000080851188                net_get_async_tx_pkt_buf
 .text.net_process_received_packet
                0x00000000808511a4      0x21c net/built-in.o
                0x00000000808511a4                net_process_received_packet
 .text.net_eth_hdr_size
                0x00000000808513c0       0x30 net/built-in.o
                0x00000000808513c0                net_eth_hdr_size
 .text.net_set_ether
                0x00000000808513f0       0x6c net/built-in.o
                0x00000000808513f0                net_set_ether
 .text.net_update_ether
                0x000000008085145c       0x58 net/built-in.o
                0x000000008085145c                net_update_ether
 .text.net_set_ip_header
                0x00000000808514b4       0x80 net/built-in.o
                0x00000000808514b4                net_set_ip_header
 .text.net_set_udp_header
                0x0000000080851534       0x58 net/built-in.o
                0x0000000080851534                net_set_udp_header
 .text.net_send_ip_packet
                0x000000008085158c       0xc0 net/built-in.o
                0x000000008085158c                net_send_ip_packet
 .text.net_send_udp_packet
                0x000000008085164c       0x1c net/built-in.o
                0x000000008085164c                net_send_udp_packet
 .text.copy_filename
                0x0000000080851668       0x30 net/built-in.o
                0x0000000080851668                copy_filename
 .text.is_serverip_in_cmd
                0x0000000080851698       0x18 net/built-in.o
                0x0000000080851698                is_serverip_in_cmd
 .text.net_check_prereq
                0x00000000808516b0       0xa8 net/built-in.o
 .text.net_auto_load
                0x0000000080851758       0x68 net/built-in.o
                0x0000000080851758                net_auto_load
 .text.net_loop
                0x00000000808517c0      0x1c4 net/built-in.o
                0x00000000808517c0                net_loop
 .text.net_parse_bootfile
                0x0000000080851984       0x50 net/built-in.o
                0x0000000080851984                net_parse_bootfile
 .text.ip_to_string
                0x00000000808519d4       0x28 net/built-in.o
                0x00000000808519d4                ip_to_string
 .text.string_to_vlan
                0x00000000808519fc       0x28 net/built-in.o
                0x00000000808519fc                string_to_vlan
 .text.on_nvlan
                0x0000000080851a24       0x18 net/built-in.o
 .text.on_vlan  0x0000000080851a3c       0x18 net/built-in.o
 .text.rpc_lookup_reply
                0x0000000080851a54       0x68 net/built-in.o
 .text.nfs_mount_reply
                0x0000000080851abc       0x60 net/built-in.o
 .text.nfs_umountall_reply
                0x0000000080851b1c       0x58 net/built-in.o
 .text.nfs_lookup_reply
                0x0000000080851b74       0xb8 net/built-in.o
 .text.nfs_readlink_reply
                0x0000000080851c2c       0xbc net/built-in.o
 .text.basename
                0x0000000080851ce8       0x20 net/built-in.o
 .text.nfs_read_reply
                0x0000000080851d08       0xec net/built-in.o
 .text.rpc_req  0x0000000080851df4       0xc4 net/built-in.o
 .text.nfs_read_req
                0x0000000080851eb8       0xa4 net/built-in.o
 .text.nfs_readlink_req
                0x0000000080851f5c       0x84 net/built-in.o
 .text.nfs_mount_req
                0x0000000080851fe0       0x88 net/built-in.o
 .text.nfs_umountall_req
                0x0000000080852068       0x54 net/built-in.o
 .text.nfs_lookup_req
                0x00000000808520bc      0x10c net/built-in.o
 .text.nfs_send
                0x00000000808521c8       0xd4 net/built-in.o
 .text.nfs_handler
                0x000000008085229c      0x17c net/built-in.o
 .text.nfs_timeout_handler
                0x0000000080852418       0x4c net/built-in.o
 .text.nfs_start
                0x0000000080852464      0x168 net/built-in.o
                0x0000000080852464                nfs_start
 .text.ping_timeout_handler
                0x00000000808525cc       0x14 net/built-in.o
 .text.ping_start
                0x00000000808525e0       0xc8 net/built-in.o
                0x00000000808525e0                ping_start
 .text.ping_receive
                0x00000000808526a8       0xb8 net/built-in.o
                0x00000000808526a8                ping_receive
 .text.tftp_send
                0x0000000080852760      0x18c net/built-in.o
 .text.tftp_handler
                0x00000000808528ec      0x37c net/built-in.o
 .text.tftp_timeout_handler
                0x0000000080852c68       0x64 net/built-in.o
 .text.tftp_start
                0x0000000080852ccc      0x2b4 net/built-in.o
                0x0000000080852ccc                tftp_start
 .text.__udivsi3
                0x0000000080852f80       0x9c arch/arm/lib/lib.a(lib1funcs.o)
                0x0000000080852f80                __udivsi3
                0x0000000080852f80                __aeabi_uidiv
 .text.__divsi3
                0x000000008085301c       0xcc arch/arm/lib/lib.a(lib1funcs.o)
                0x000000008085301c                __aeabi_idiv
                0x000000008085301c                __divsi3
 .text.__aeabi_uidivmod
                0x00000000808530e8       0x30 arch/arm/lib/lib.a(lib1funcs.o)
                0x00000000808530e8                __aeabi_uidivmod
                0x0000000080853100                __aeabi_idivmod
 .text.Ldiv0    0x0000000080853118       0x10 arch/arm/lib/lib.a(lib1funcs.o)
 .text.__aeabi_uldivmod
                0x0000000080853128      0x188 arch/arm/lib/lib.a(uldivmod.o)
                0x0000000080853128                __aeabi_uldivmod
 .text.__div0   0x00000000808532b0        0x6 arch/arm/lib/lib.a(div0.o)
                0x00000000808532b0                __div0
 *fill*         0x00000000808532b6        0x2 
 .text.__div0.__stub
                0x00000000808532b8        0x8 linker stubs
                0x00000000808532c0                . = ALIGN (0x4)

.rodata         0x00000000808532c0    0x18c96
 *(SORT_BY_ALIGNMENT(SORT_BY_NAME(.rodata*)))
 .rodata.efi_block_io_guid
                0x00000000808532c0       0x10 lib/built-in.o
                0x00000000808532c0                efi_block_io_guid
 .rodata.efi_file_handle_protocol
                0x00000000808532d0       0x40 lib/built-in.o
 .rodata.efi_file_info_guid
                0x0000000080853310       0x10 lib/built-in.o
                0x0000000080853310                efi_file_info_guid
 .rodata.efi_file_system_info_guid
                0x0000000080853320       0x10 lib/built-in.o
                0x0000000080853320                efi_file_system_info_guid
 .rodata.efi_global_variable_guid
                0x0000000080853330       0x10 lib/built-in.o
                0x0000000080853330                efi_global_variable_guid
 .rodata.efi_guid_device_path
                0x0000000080853340       0x10 lib/built-in.o
                0x0000000080853340                efi_guid_device_path
 .rodata.efi_guid_device_path_to_text_protocol
                0x0000000080853350       0x10 lib/built-in.o
                0x0000000080853350                efi_guid_device_path_to_text_protocol
 .rodata.efi_guid_device_path_utilities_protocol
                0x0000000080853360       0x10 lib/built-in.o
                0x0000000080853360                efi_guid_device_path_utilities_protocol
 .rodata.efi_guid_driver_binding_protocol
                0x0000000080853370       0x10 lib/built-in.o
                0x0000000080853370                efi_guid_driver_binding_protocol
 .rodata.efi_guid_event_group_exit_boot_services
                0x0000000080853380       0x10 lib/built-in.o
                0x0000000080853380                efi_guid_event_group_exit_boot_services
 .rodata.efi_guid_event_group_memory_map_change
                0x0000000080853390       0x10 lib/built-in.o
                0x0000000080853390                efi_guid_event_group_memory_map_change
 .rodata.efi_guid_event_group_reset_system
                0x00000000808533a0       0x10 lib/built-in.o
                0x00000000808533a0                efi_guid_event_group_reset_system
 .rodata.efi_guid_fdt
                0x00000000808533b0       0x10 lib/built-in.o
                0x00000000808533b0                efi_guid_fdt
 .rodata.efi_guid_hii_config_routing_protocol
                0x00000000808533c0       0x10 lib/built-in.o
                0x00000000808533c0                efi_guid_hii_config_routing_protocol
 .rodata.efi_guid_hii_database_protocol
                0x00000000808533d0       0x10 lib/built-in.o
                0x00000000808533d0                efi_guid_hii_database_protocol
 .rodata.efi_guid_hii_string_protocol
                0x00000000808533e0       0x10 lib/built-in.o
                0x00000000808533e0                efi_guid_hii_string_protocol
 .rodata.efi_guid_image_security_database
                0x00000000808533f0       0x10 lib/built-in.o
                0x00000000808533f0                efi_guid_image_security_database
 .rodata.efi_guid_loaded_image
                0x0000000080853400       0x10 lib/built-in.o
                0x0000000080853400                efi_guid_loaded_image
 .rodata.efi_guid_loaded_image_device_path
                0x0000000080853410       0x10 lib/built-in.o
                0x0000000080853410                efi_guid_loaded_image_device_path
 .rodata.efi_guid_text_input_ex_protocol
                0x0000000080853420       0x10 lib/built-in.o
                0x0000000080853420                efi_guid_text_input_ex_protocol
 .rodata.efi_guid_text_input_protocol
                0x0000000080853430       0x10 lib/built-in.o
                0x0000000080853430                efi_guid_text_input_protocol
 .rodata.efi_guid_text_output_protocol
                0x0000000080853440       0x10 lib/built-in.o
                0x0000000080853440                efi_guid_text_output_protocol
 .rodata.efi_guid_unicode_collation_protocol2
                0x0000000080853450       0x10 lib/built-in.o
                0x0000000080853450                efi_guid_unicode_collation_protocol2
 .rodata.efi_net_guid
                0x0000000080853460       0x10 lib/built-in.o
 .rodata.efi_pxe_base_code_protocol_guid
                0x0000000080853470       0x10 lib/built-in.o
 .rodata.efi_rt_properties_table_guid
                0x0000000080853480       0x10 lib/built-in.o
 .rodata.efi_simple_file_system_protocol_guid
                0x0000000080853490       0x10 lib/built-in.o
                0x0000000080853490                efi_simple_file_system_protocol_guid
 .rodata.efi_system_volume_label_id
                0x00000000808534a0       0x10 lib/built-in.o
                0x00000000808534a0                efi_system_volume_label_id
 .rodata.efi_u_boot_guid
                0x00000000808534b0       0x10 lib/built-in.o
                0x00000000808534b0                efi_u_boot_guid
 .rodata.onfi_sdr_timings
                0x00000000808534c0      0x450 drivers/built-in.o
 .rodata.partition_basic_data_guid
                0x0000000080853910       0x10 disk/built-in.o
 .rodata.smbios_guid
                0x0000000080853920       0x10 lib/built-in.o
 .rodata.system_guid
                0x0000000080853930       0x10 disk/built-in.o
 .rodata        0x0000000080853940       0x80 arch/arm/lib/built-in.o
 .rodata        0x00000000808539c0       0xa0 arch/arm/mach-omap2/built-in.o
 .rodata        0x0000000080853a60       0x50 drivers/built-in.o
 .rodata        0x0000000080853ab0       0x18 drivers/net/phy/built-in.o
 .rodata.CSWTCH.101
                0x0000000080853ac8       0x18 drivers/usb/musb-new/built-in.o
 .rodata.CSWTCH.200
                0x0000000080853ae0       0x74 common/built-in.o
 .rodata.CSWTCH.23
                0x0000000080853b54       0x1c drivers/usb/musb-new/built-in.o
 .rodata.CSWTCH.32
                0x0000000080853b70       0x20 common/built-in.o
 .rodata.CSWTCH.32
                0x0000000080853b90       0x20 disk/built-in.o
 .rodata.CSWTCH.45
                0x0000000080853bb0       0x14 cmd/built-in.o
 .rodata.am33xx_ctrl
                0x0000000080853bc4      0x1c8 arch/arm/mach-omap2/built-in.o
                0x0000000080853bc4                am33xx_ctrl
 .rodata.boot_os
                0x0000000080853d8c       0x74 common/built-in.o
 .rodata.bootm_args.6111
                0x0000000080853e00        0xc drivers/built-in.o
 .rodata.cdce913_chip_info
                0x0000000080853e0c        0x8 drivers/built-in.o
 .rodata.cdce925_chip_info
                0x0000000080853e14        0x8 drivers/built-in.o
 .rodata.cdce937_chip_info
                0x0000000080853e1c        0x8 drivers/built-in.o
 .rodata.cdce949_chip_info
                0x0000000080853e24        0x8 drivers/built-in.o
 .rodata.cdce9xx_clk_of_match
                0x0000000080853e2c       0x28 drivers/built-in.o
 .rodata.cdce9xx_clk_ops
                0x0000000080853e54       0x20 drivers/built-in.o
 .rodata.clk_fixed_factor_match
                0x0000000080853e74       0x10 drivers/built-in.o
 .rodata.clk_fixed_factor_ops
                0x0000000080853e84       0x20 drivers/built-in.o
                0x0000000080853e84                clk_fixed_factor_ops
 .rodata.clk_fixed_rate_match
                0x0000000080853ea4       0x10 drivers/built-in.o
 .rodata.clk_fixed_rate_ops
                0x0000000080853eb4       0x20 drivers/built-in.o
                0x0000000080853eb4                clk_fixed_rate_ops
 .rodata.clk_fixed_rate_raw_ops
                0x0000000080853ed4       0x20 drivers/built-in.o
                0x0000000080853ed4                clk_fixed_rate_raw_ops
 .rodata.color  0x0000000080853ef4       0x40 lib/built-in.o
 .rodata.commands
                0x0000000080853f34       0x60 drivers/built-in.o
 .rodata.cpsw_eth_ids
                0x0000000080853f94       0x18 drivers/net/built-in.o
 .rodata.cpsw_eth_ops
                0x0000000080853fac       0x20 drivers/net/built-in.o
 .rodata.dev_types
                0x0000000080853fcc       0x10 arch/arm/mach-omap2/built-in.o
 .rodata.dfu_state
                0x0000000080853fdc       0x2c drivers/usb/gadget/built-in.o
 .rodata.driver_ops
                0x0000000080854008        0xc lib/built-in.o
 .rodata.efi_blk_ops
                0x0000000080854014       0x10 lib/built-in.o
 .rodata.efi_device_path_to_text
                0x0000000080854024        0x8 lib/built-in.o
                0x0000000080854024                efi_device_path_to_text
 .rodata.efi_device_path_utilities
                0x000000008085402c       0x20 lib/built-in.o
                0x000000008085402c                efi_device_path_utilities
 .rodata.efi_hii_config_routing
                0x000000008085404c       0x18 lib/built-in.o
                0x000000008085404c                efi_hii_config_routing
 .rodata.efi_hii_database
                0x0000000080854064       0x2c lib/built-in.o
                0x0000000080854064                efi_hii_database
 .rodata.efi_hii_string
                0x0000000080854090       0x14 lib/built-in.o
                0x0000000080854090                efi_hii_string
 .rodata.efi_unicode_collation_protocol2
                0x00000000808540a4       0x1c lib/built-in.o
                0x00000000808540a4                efi_unicode_collation_protocol2
 .rodata.env_flags_varaccess_mask
                0x00000000808540c0       0x10 env/built-in.o
 .rodata.ext_csd_bus_width
                0x00000000808540d0       0x3c drivers/built-in.o
 .rodata.fbase  0x000000008085410c       0x10 drivers/built-in.o
 .rodata.fdt_errtable
                0x000000008085411c       0x4c lib/built-in.o
 .rodata.fdt_member_table
                0x0000000080854168       0x28 cmd/built-in.o
 .rodata.freqs.8666
                0x0000000080854190       0x34 drivers/built-in.o
 .rodata.generic_chip_i2c_ids
                0x00000000808541c4       0x10 drivers/i2c/built-in.o
 .rodata.generic_simple_bus_ids
                0x00000000808541d4       0x18 drivers/built-in.o
 .rodata.getvar_dispatch
                0x00000000808541ec       0x68 drivers/built-in.o
 .rodata.gpio_function
                0x0000000080854254       0x14 drivers/gpio/built-in.o
 .rodata.gpio_omap_ops
                0x0000000080854268       0x28 drivers/gpio/built-in.o
 .rodata.hub_id_table
                0x0000000080854290       0x30 common/built-in.o
 .rodata.hwcaps_pp2cmd.9193
                0x00000000808542c0       0x40 drivers/built-in.o
 .rodata.hwcaps_read2cmd.9189
                0x0000000080854300       0x80 drivers/built-in.o
 .rodata.if_type_uclass_id
                0x0000000080854380       0x38 drivers/built-in.o
 .rodata.if_typename_str
                0x00000000808543b8       0x38 drivers/built-in.o
 .rodata.init_sequence_f
                0x00000000808543f0       0xdc common/built-in.o
 .rodata.keywords
                0x00000000808544cc       0xa0 cmd/built-in.o
 .rodata.machines
                0x000000008085456c       0x10 lib/built-in.o
 .rodata.mass_storage_id_table
                0x000000008085457c       0x30 common/built-in.o
 .rodata.mii_reg_desc_tbl
                0x00000000808545ac       0x80 cmd/built-in.o
 .rodata.mmc_blk_ops
                0x000000008085462c       0x10 drivers/built-in.o
 .rodata.mmc_modes_by_pref
                0x000000008085463c       0x20 drivers/built-in.o
 .rodata.mmc_versions.9014
                0x000000008085465c       0x24 drivers/built-in.o
 .rodata.mod_exp_ops_sw
                0x0000000080854680        0x4 drivers/built-in.o
 .rodata.musb_ep_ops
                0x0000000080854684       0x28 drivers/usb/musb-new/built-in.o
 .rodata.musb_g_ep0_ops
                0x00000000808546ac       0x28 drivers/usb/musb-new/built-in.o
                0x00000000808546ac                musb_g_ep0_ops
 .rodata.musb_gadget_operations
                0x00000000808546d4       0x2c drivers/usb/musb-new/built-in.o
 .rodata.name_type
                0x0000000080854700       0x30 lib/built-in.o
 .rodata.names.8661
                0x0000000080854730       0x34 drivers/built-in.o
 .rodata.ns16550_serial_ids
                0x0000000080854764       0x30 drivers/serial/built-in.o
 .rodata.ns16550_serial_ops
                0x0000000080854794       0x20 drivers/serial/built-in.o
                0x0000000080854794                ns16550_serial_ops
 .rodata.oid_supported_list
                0x00000000808547b4       0x70 drivers/usb/gadget/built-in.o
 .rodata.omap3_spi_ids
                0x0000000080854824       0x18 drivers/spi/built-in.o
 .rodata.omap3_spi_ops
                0x000000008085483c       0x24 drivers/spi/built-in.o
 .rodata.omap3_wdt_ids
                0x0000000080854860       0x10 drivers/built-in.o
 .rodata.omap3_wdt_ops
                0x0000000080854870       0x10 drivers/built-in.o
 .rodata.omap_gpio_ids
                0x0000000080854880       0x20 drivers/gpio/built-in.o
 .rodata.omap_hsmmc_ids
                0x00000000808548a0       0x28 drivers/built-in.o
 .rodata.omap_hsmmc_ops
                0x00000000808548c8       0x28 drivers/built-in.o
 .rodata.omap_i2c_ids
                0x00000000808548f0       0x18 drivers/i2c/built-in.o
 .rodata.omap_i2c_ops
                0x0000000080854908       0x18 drivers/i2c/built-in.o
 .rodata.omap_serial_ids
                0x0000000080854920       0x40 drivers/serial/built-in.o
 .rodata.omap_timer_ids
                0x0000000080854960       0x20 drivers/built-in.o
 .rodata.omap_timer_ops
                0x0000000080854980        0x4 drivers/built-in.o
 .rodata.op_adv
                0x0000000080854984      0x100 cmd/built-in.o
                0x0000000080854984                op_adv
 .rodata.op_table
                0x0000000080854a84       0x68 cmd/built-in.o
 .rodata.phy_interface_strings
                0x0000000080854aec       0x64 drivers/net/phy/built-in.o
 .rodata.reg_0_desc_tbl
                0x0000000080854b50       0x78 cmd/built-in.o
 .rodata.reg_10_desc_tbl
                0x0000000080854bc8       0x60 cmd/built-in.o
 .rodata.reg_1_desc_tbl
                0x0000000080854c28       0xc0 cmd/built-in.o
 .rodata.reg_2_desc_tbl
                0x0000000080854ce8        0xc cmd/built-in.o
 .rodata.reg_3_desc_tbl
                0x0000000080854cf4       0x24 cmd/built-in.o
 .rodata.reg_4_desc_tbl
                0x0000000080854d18       0x90 cmd/built-in.o
 .rodata.reg_5_desc_tbl
                0x0000000080854da8       0x90 cmd/built-in.o
 .rodata.reg_9_desc_tbl
                0x0000000080854e38       0x60 cmd/built-in.o
 .rodata.sd_au_size.8894
                0x0000000080854e98       0x40 drivers/built-in.o
 .rodata.sd_modes_by_pref
                0x0000000080854ed8       0x10 drivers/built-in.o
 .rodata.smbios_write_funcs
                0x0000000080854ee8       0x38 lib/built-in.o
 .rodata.spi_flash_std_ids
                0x0000000080854f20       0x10 drivers/built-in.o
 .rodata.spi_flash_std_ops
                0x0000000080854f30        0xc drivers/built-in.o
 .rodata.spi_nor_ids
                0x0000000080854f3c      0x364 drivers/built-in.o
                0x0000000080854f3c                spi_nor_ids
 .rodata.subcmd_list
                0x00000000808552a0       0x10 cmd/built-in.o
 .rodata.ti_musb_ids
                0x00000000808552b0       0x10 drivers/usb/musb-new/built-in.o
 .rodata.uimage_arch
                0x00000000808552c0      0x144 common/built-in.o
 .rodata.uimage_comp
                0x0000000080855404       0x60 common/built-in.o
 .rodata.uimage_os
                0x0000000080855464       0xa8 common/built-in.o
 .rodata.uimage_type
                0x000000008085550c      0x1e0 common/built-in.o
 .rodata.usb_dr_modes
                0x00000000808556ec       0x10 drivers/usb/common/built-in.o
 .rodata.usb_eth_ops
                0x00000000808556fc       0x20 drivers/usb/gadget/built-in.o
 .rodata.usb_hub_ids
                0x000000008085571c       0x10 common/built-in.o
 .rodata.usb_mass_storage_ids
                0x000000008085572c       0x10 common/built-in.o
 .rodata.usb_storage_ops
                0x000000008085573c       0x10 common/built-in.o
 .rodata.codepage
                0x000000008085574c      0x100 lib/built-in.o
 .rodata.crc16_tab
                0x000000008085584c      0x200 lib/built-in.o
 .rodata.crc16_table
                0x0000000080855a4c      0x200 fs/built-in.o
 .rodata.dbase.6168
                0x0000000080855c4c       0x40 lib/built-in.o
 .rodata.dext.6169
                0x0000000080855c8c       0x40 lib/built-in.o
 .rodata.distfix
                0x0000000080855ccc       0x80 lib/built-in.o
 .rodata.efi_bootmgr_load.str2.2
                0x0000000080855d4c       0x26 lib/built-in.o
 .rodata.efi_init_obj_list.str2.2
                0x0000000080855d72       0x6c lib/built-in.o
 .rodata.efi_init_secure_state.str2.2
                0x0000000080855dde       0x74 lib/built-in.o
 .rodata.lbase.6166
                0x0000000080855e52       0x3e lib/built-in.o
 .rodata.lenfix
                0x0000000080855e90      0x800 lib/built-in.o
 .rodata.lext.6167
                0x0000000080856690       0x3e lib/built-in.o
 .rodata.order.6262
                0x00000000808566ce       0x26 lib/built-in.o
 .rodata.str2.2
                0x00000000808566f4       0x16 lib/built-in.o
 .rodata.string16.str2.2
                0x000000008085670a        0xe lib/built-in.o
 .rodata.try_load_entry.str2.2
                0x0000000080856718       0x4c lib/built-in.o
 .rodata        0x0000000080856764        0x3 env/built-in.o
 .rodata        0x0000000080856767       0x23 lib/built-in.o
 .rodata        0x000000008085678a        0x7 net/built-in.o
 .rodata.CSWTCH.102
                0x0000000080856791        0x6 drivers/usb/musb-new/built-in.o
 .rodata.CSWTCH.28
                0x0000000080856797        0x3 drivers/serial/built-in.o
 .rodata.CSWTCH.66
                0x000000008085679a       0x16 common/built-in.o
 .rodata.CSWTCH.97
                0x00000000808567b0        0x5 drivers/net/built-in.o
 .rodata.CSWTCH.98
                0x00000000808567b5        0x5 drivers/net/built-in.o
 .rodata.END    0x00000000808567ba        0x4 lib/built-in.o
 .rodata.ROOT   0x00000000808567be       0x14 lib/built-in.o
 .rodata.__FUNCTION__.7465
                0x00000000808567d2       0x17 common/built-in.o
 .rodata.__FUNCTION__.7638
                0x00000000808567e9       0x17 common/built-in.o
 .rodata.__assert_fail.str1.1
                0x0000000080856800       0x22 lib/built-in.o
 .rodata.__func__.10083
                0x0000000080856822        0xf drivers/usb/musb-new/built-in.o
 .rodata.__func__.10101
                0x0000000080856831       0x12 drivers/usb/musb-new/built-in.o
 .rodata.__func__.10107
                0x0000000080856843        0xf drivers/usb/musb-new/built-in.o
 .rodata.__func__.10119
                0x0000000080856852        0xf drivers/built-in.o
 .rodata.__func__.10152
                0x0000000080856861       0x10 drivers/usb/musb-new/built-in.o
 .rodata.__func__.10195
                0x0000000080856871       0x14 drivers/usb/musb-new/built-in.o
 .rodata.__func__.10229
                0x0000000080856885        0xf drivers/usb/musb-new/built-in.o
 .rodata.__func__.10341
                0x0000000080856894        0xd drivers/usb/musb-new/built-in.o
 .rodata.__func__.10444
                0x00000000808568a1        0xb cmd/built-in.o
 .rodata.__func__.10602
                0x00000000808568ac        0xf lib/built-in.o
 .rodata.__func__.10619
                0x00000000808568bb        0xe lib/built-in.o
 .rodata.__func__.10684
                0x00000000808568c9        0xe common/built-in.o
 .rodata.__func__.10830
                0x00000000808568d7        0xc drivers/built-in.o
 .rodata.__func__.10865
                0x00000000808568e3        0xa drivers/built-in.o
 .rodata.__func__.10888
                0x00000000808568ed        0x9 drivers/built-in.o
 .rodata.__func__.10897
                0x00000000808568f6       0x10 drivers/built-in.o
 .rodata.__func__.10916
                0x0000000080856906        0xc drivers/built-in.o
 .rodata.__func__.10945
                0x0000000080856912       0x15 drivers/built-in.o
 .rodata.__func__.10959
                0x0000000080856927       0x18 drivers/built-in.o
 .rodata.__func__.10980
                0x000000008085693f       0x14 drivers/built-in.o
 .rodata.__func__.11037
                0x0000000080856953       0x11 drivers/usb/gadget/built-in.o
 .rodata.__func__.11148
                0x0000000080856964        0xc lib/built-in.o
 .rodata.__func__.11185
                0x0000000080856970        0xf drivers/usb/gadget/built-in.o
 .rodata.__func__.11260
                0x000000008085697f        0xe drivers/built-in.o
 .rodata.__func__.11285
                0x000000008085698d       0x16 drivers/built-in.o
 .rodata.__func__.11300
                0x00000000808569a3       0x15 drivers/built-in.o
 .rodata.__func__.11308
                0x00000000808569b8       0x16 drivers/built-in.o
 .rodata.__func__.11325
                0x00000000808569ce       0x15 drivers/built-in.o
 .rodata.__func__.11494
                0x00000000808569e3       0x15 lib/built-in.o
 .rodata.__func__.13485
                0x00000000808569f8       0x15 board/ti/am335x/built-in.o
 .rodata.__func__.6260
                0x0000000080856a0d       0x10 cmd/built-in.o
 .rodata.__func__.6910
                0x0000000080856a1d        0xb fs/built-in.o
 .rodata.__func__.6994
                0x0000000080856a28       0x14 disk/built-in.o
 .rodata.__func__.6995
                0x0000000080856a3c        0xe drivers/built-in.o
 .rodata.__func__.7124
                0x0000000080856a4a       0x13 fs/built-in.o
 .rodata.__func__.7133
                0x0000000080856a5d       0x14 fs/built-in.o
 .rodata.__func__.7133
                0x0000000080856a71       0x13 lib/built-in.o
 .rodata.__func__.7341
                0x0000000080856a84       0x18 common/built-in.o
 .rodata.__func__.7382
                0x0000000080856a9c       0x12 disk/built-in.o
 .rodata.__func__.7384
                0x0000000080856aae        0xc drivers/i2c/built-in.o
 .rodata.__func__.7393
                0x0000000080856aba       0x13 disk/built-in.o
 .rodata.__func__.7395
                0x0000000080856acd        0xf drivers/i2c/built-in.o
 .rodata.__func__.7455
                0x0000000080856adc        0xc disk/built-in.o
 .rodata.__func__.7473
                0x0000000080856ae8       0x13 disk/built-in.o
 .rodata.__func__.7506
                0x0000000080856afb       0x1d disk/built-in.o
 .rodata.__func__.7523
                0x0000000080856b18        0xd disk/built-in.o
 .rodata.__func__.7533
                0x0000000080856b25        0xf disk/built-in.o
 .rodata.__func__.7542
                0x0000000080856b34       0x17 disk/built-in.o
 .rodata.__func__.7547
                0x0000000080856b4b        0xd disk/built-in.o
 .rodata.__func__.7829
                0x0000000080856b58       0x1c fs/built-in.o
 .rodata.__func__.7838
                0x0000000080856b74        0x7 cmd/built-in.o
 .rodata.__func__.8541
                0x0000000080856b7b        0xd drivers/built-in.o
 .rodata.__func__.8547
                0x0000000080856b88       0x11 drivers/built-in.o
 .rodata.__func__.8551
                0x0000000080856b99       0x18 drivers/built-in.o
 .rodata.__func__.8555
                0x0000000080856bb1       0x18 drivers/built-in.o
 .rodata.__func__.8559
                0x0000000080856bc9        0xd drivers/built-in.o
 .rodata.__func__.8563
                0x0000000080856bd6       0x14 drivers/built-in.o
 .rodata.__func__.8567
                0x0000000080856bea       0x14 drivers/built-in.o
 .rodata.__func__.8655
                0x0000000080856bfe        0xb drivers/built-in.o
 .rodata.__func__.8746
                0x0000000080856c09       0x11 drivers/built-in.o
 .rodata.__func__.8761
                0x0000000080856c1a       0x12 drivers/net/phy/built-in.o
 .rodata.__func__.8798
                0x0000000080856c2c       0x11 drivers/built-in.o
 .rodata.__func__.8829
                0x0000000080856c3d        0xf drivers/built-in.o
 .rodata.__func__.8868
                0x0000000080856c4c       0x11 drivers/built-in.o
 .rodata.__func__.8975
                0x0000000080856c5d        0xa drivers/built-in.o
 .rodata.__func__.9136
                0x0000000080856c67       0x15 common/built-in.o
 .rodata.__func__.9363
                0x0000000080856c7c       0x19 drivers/built-in.o
 .rodata.__func__.9368
                0x0000000080856c95       0x12 drivers/built-in.o
 .rodata.__func__.9661
                0x0000000080856ca7       0x1e drivers/built-in.o
 .rodata.__func__.9783
                0x0000000080856cc5       0x16 drivers/built-in.o
 .rodata.__func__.9839
                0x0000000080856cdb       0x19 drivers/built-in.o
 .rodata.__func__.9857
                0x0000000080856cf4       0x14 drivers/built-in.o
 .rodata.__func__.9900
                0x0000000080856d08        0xe drivers/built-in.o
 .rodata.__func__.9935
                0x0000000080856d16        0xf drivers/built-in.o
 .rodata.__func__.9973
                0x0000000080856d25       0x14 drivers/built-in.o
 .rodata.__func__.9990
                0x0000000080856d39       0x15 drivers/built-in.o
 .rodata.__of_translate_address.str1.1
                0x0000000080856d4e       0x1b common/built-in.o
 .rodata.__omap24_i2c_setspeed.str1.1
                0x0000000080856d69       0x4c drivers/i2c/built-in.o
 .rodata.__put_mtd_device.str1.1
                0x0000000080856db5       0x2f drivers/built-in.o
 .rodata._cpsw_register.str1.1
                0x0000000080856de4       0x33 drivers/net/built-in.o
 .rodata._ctype
                0x0000000080856e17      0x100 lib/built-in.o
                0x0000000080856e17                _ctype
 .rodata._do_env_set.isra.0.str1.1
                0x0000000080856f17       0x7c cmd/built-in.o
 .rodata._do_help.str1.1
                0x0000000080856f93       0x5f common/built-in.o
 .rodata._gpio_request_by_name_nodev.str1.1
                0x0000000080856ff2        0xc drivers/gpio/built-in.o
 .rodata.acm_descriptor
                0x0000000080856ffe        0x4 drivers/usb/gadget/built-in.o
 .rodata.add_mtd_device.str1.1
                0x0000000080857002       0x28 drivers/built-in.o
 .rodata.alloc_simple.str1.1
                0x000000008085702a       0x17 common/built-in.o
 .rodata.android_dt_get_fdt_by_index.str1.1
                0x0000000080857041       0x2b common/built-in.o
 .rodata.android_image_check_header.str1.1
                0x000000008085706c        0x9 common/built-in.o
 .rodata.android_image_get_dtb_by_index.str1.1
                0x0000000080857075       0x4f common/built-in.o
 .rodata.android_image_get_dtb_img_addr.str1.1
                0x00000000808570c4       0x6c common/built-in.o
 .rodata.android_image_get_kernel.str1.1
                0x0000000080857130       0x8b common/built-in.o
                                         0x96 (size before relaxing)
 .rodata.android_image_get_kernel_addr.str1.1
                0x00000000808571bb        0xe common/built-in.o
 .rodata.android_image_get_ramdisk.str1.1
                0x00000000808571bb       0x27 common/built-in.o
 .rodata.android_image_get_second.str1.1
                0x00000000808571e2       0x19 common/built-in.o
 .rodata.android_print_contents.str1.1
                0x00000000808571fb      0x1fe common/built-in.o
                                        0x202 (size before relaxing)
 .rodata.announce_dram_init.str1.1
                0x00000000808573f9        0x8 common/built-in.o
 .rodata.ar803x_config.str1.1
                0x0000000080857401       0x80 drivers/net/phy/built-in.o
 .rodata.arch_print_bdinfo.str1.1
                0x0000000080857481       0x44 arch/arm/lib/built-in.o
 .rodata.arp_receive.str1.1
                0x00000000808574c5       0x14 net/built-in.o
 .rodata.arp_request.str1.1
                0x00000000808574d9       0x2a net/built-in.o
 .rodata.arp_timeout_check.str1.1
                0x0000000080857503       0x2b net/built-in.o
 .rodata.autoboot_command.str1.1
                0x000000008085752e       0x31 common/built-in.o
 .rodata.b_addqchr.str1.1
                0x000000008085755f        0x5 common/built-in.o
 .rodata.bad_mode.str1.1
                0x0000000080857564       0x13 arch/arm/lib/built-in.o
 .rodata.bdinfo_print_num.str1.1
                0x0000000080857577       0x10 cmd/built-in.o
 .rodata.binary_test.str1.1
                0x0000000080857587       0x17 cmd/built-in.o
 .rodata.blk_common_cmd.str1.1
                0x000000008085759e      0x10c cmd/built-in.o
                                        0x123 (size before relaxing)
 .rodata.blk_create_devicef.str1.1
                0x00000000808576aa        0x6 drivers/built-in.o
 .rodata.blk_get_device_by_str.str1.1
                0x00000000808576b0       0x52 disk/built-in.o
 .rodata.blk_get_device_part_str.str1.1
                0x0000000080857702       0xfc disk/built-in.o
                                        0x109 (size before relaxing)
 .rodata.blk_list_devices.str1.1
                0x00000000808577fe        0xc drivers/built-in.o
 .rodata.blk_print_device_num.str1.1
                0x00000000808577fe       0x11 drivers/built-in.o
 .rodata.blk_show_device.str1.1
                0x000000008085780f       0x1d drivers/built-in.o
 .rodata.blkc_configure.str1.1
                0x000000008085782c       0x30 cmd/built-in.o
 .rodata.blkc_show.str1.1
                0x000000008085785c       0x4c cmd/built-in.o
 .rodata.board_init.str1.1
                0x00000000808578a8       0xf2 board/ti/am335x/built-in.o
                                         0xf4 (size before relaxing)
 .rodata.board_init_f.str1.1
                0x000000008085799a       0x31 common/built-in.o
 .rodata.board_init_r.str1.1
                0x00000000808579cb       0x31 common/built-in.o
 .rodata.board_late_init.str1.1
                0x00000000808579cb       0x94 board/ti/am335x/built-in.o
                                         0x9a (size before relaxing)
 .rodata.boot_fdt_add_mem_rsv_regions.str1.1
                0x0000000080857a5f       0x42 common/built-in.o
                                         0x56 (size before relaxing)
 .rodata.boot_get_fdt.str1.1
                0x0000000080857aa1      0x1be common/built-in.o
                                        0x1e5 (size before relaxing)
 .rodata.boot_get_fdt_fit.str1.1
                0x0000000080857c5f       0x4f common/built-in.o
 .rodata.boot_get_loadable.str1.1
                0x0000000080857cae       0x3e common/built-in.o
 .rodata.boot_get_ramdisk.str1.1
                0x0000000080857cec       0xb7 common/built-in.o
                                        0x11e (size before relaxing)
 .rodata.boot_get_setup_fit.str1.1
                0x0000000080857da3      0x20b common/built-in.o
                                          0x6 (size before relaxing)
 .rodata.boot_jump_linux.str1.1
                0x0000000080857da3       0x5c arch/arm/lib/built-in.o
                                         0x5d (size before relaxing)
 .rodata.boot_prep_linux.str1.1
                0x0000000080857dff       0x20 arch/arm/lib/built-in.o
                                         0x29 (size before relaxing)
 .rodata.boot_prep_vxworks.str1.1
                0x0000000080857e1f       0x2a arch/arm/lib/built-in.o
 .rodata.boot_ramdisk_high.str1.1
                0x0000000080857e49       0x54 common/built-in.o
 .rodata.boot_relocate_fdt.str1.1
                0x0000000080857e9d       0xcf common/built-in.o
                                         0xd3 (size before relaxing)
 .rodata.bootdelay_process.str1.1
                0x0000000080857f6c       0x8f common/built-in.o
                                         0x99 (size before relaxing)
 .rodata.bootm_find_images.str1.1
                0x0000000080857ffb       0xd7 common/built-in.o
 .rodata.bootm_maybe_autostart.str1.1
                0x00000000808580d2       0x3b cmd/built-in.o
 .rodata.bootp_request.str1.1
                0x000000008085810d       0x25 net/built-in.o
 .rodata.bootp_timeout_handler.str1.1
                0x0000000080858132       0x26 net/built-in.o
 .rodata.calculate_hash.str1.1
                0x0000000080858158        0x4 common/built-in.o
                                         0x16 (size before relaxing)
 .rodata.call_mgmt_descriptor
                0x000000008085815c        0x5 drivers/usb/gadget/built-in.o
 .rodata.cdce9xx_clk_probe.str1.1
                0x0000000080858161        0xd drivers/built-in.o
 .rodata.check_cache_range.str1.1
                0x000000008085816e       0x35 arch/arm/lib/built-in.o
 .rodata.check_reserved.str1.1
                0x00000000808581a3       0x27 drivers/gpio/built-in.o
                                         0x28 (size before relaxing)
 .rodata.cli_process_fdt.str1.1
                0x00000000808581ca        0xb common/built-in.o
                                         0x13 (size before relaxing)
 .rodata.cli_readline_into_buffer.str1.1
                0x00000000808581d5        0x7 common/built-in.o
                                          0x8 (size before relaxing)
 .rodata.cli_secure_boot_cmd.str1.1
                0x00000000808581dc       0x50 common/built-in.o
 .rodata.clk_fixed_factor_ofdata_to_platdata.str1.1
                0x000000008085822c       0x15 drivers/built-in.o
 .rodata.clk_fixed_rate_ofdata_to_platdata.str1.1
                0x0000000080858241       0x10 drivers/built-in.o
 .rodata.clk_get_by_index.str1.1
                0x0000000080858251        0xd drivers/built-in.o
                                         0x14 (size before relaxing)
 .rodata.clk_register_fixed_rate.str1.1
                0x000000008085825e       0x15 drivers/built-in.o
 .rodata.clk_set_defaults.str1.1
                0x0000000080858273       0x3c drivers/built-in.o
 .rodata.clk_synthesizer_reg_write.str1.1
                0x00000000808582af       0x33 arch/arm/mach-omap2/built-in.o
 .rodata.cmd_auto_complete.str1.1
                0x00000000808582e2       0x5f common/built-in.o
                                          0xb (size before relaxing)
 .rodata.cmd_process.str1.1
                0x00000000808582e2       0x48 common/built-in.o
 .rodata.cmd_process_error.str1.1
                0x000000008085832a       0x1f common/built-in.o
 .rodata.cmd_usage.str1.1
                0x0000000080858349       0x36 common/built-in.o
 .rodata.common_diskboot.str1.1
                0x000000008085837f       0x78 cmd/built-in.o
                                         0xbf (size before relaxing)
 .rodata.compile.str1.1
                0x00000000808583f7       0x4a lib/built-in.o
 .rodata.complete_subcmdv.str1.1
                0x0000000080858441       0x5f common/built-in.o
                                          0x4 (size before relaxing)
 .rodata.composite_unbind.str1.1
                0x0000000080858441        0xe drivers/usb/gadget/built-in.o
                                         0x10 (size before relaxing)
 .rodata.confirm_yesno.str1.1
                0x000000008085844f       0x10 common/built-in.o
 .rodata.cpsw_eth_ofdata_to_platdata.str1.1
                0x000000008085845f      0x13e drivers/net/built-in.o
                                        0x177 (size before relaxing)
 .rodata.cpsw_eth_probe.str1.1
                0x000000008085859d       0x45 drivers/net/built-in.o
 .rodata.cpsw_eth_send.str1.1
                0x00000000808585e2       0x17 drivers/net/built-in.o
 .rodata.cpsw_eth_start.str1.1
                0x00000000808585f9       0x5c drivers/net/built-in.o
                                         0x66 (size before relaxing)
 .rodata.cpsw_mdio_init.str1.1
                0x0000000080858655       0x48 drivers/net/built-in.o
                                          0x7 (size before relaxing)
 .rodata.cread_add_char.str1.1
                0x0000000080858655        0x5 common/built-in.o
 .rodata.current_save.str1.1
                0x000000008085865a        0x8 cmd/built-in.o
                                         0x12 (size before relaxing)
 .rodata.default_environment
                0x0000000080858662     0x2666 env/built-in.o
                0x0000000080858662                default_environment
 .rodata.dev_get_platdata.str1.1
                0x000000008085acc8       0x11 drivers/built-in.o
 .rodata.dev_print.str1.1
                0x000000008085acd9      0x165 disk/built-in.o
                                        0x176 (size before relaxing)
 .rodata.devfdt_get_addr_index.str1.1
                0x000000008085ae3e        0x4 drivers/built-in.o
 .rodata.device_bind_common.isra.0.str1.1
                0x000000008085ae3e       0x5b drivers/built-in.o
 .rodata.device_chld_unbind.str1.1
                0x000000008085ae99       0x1e drivers/built-in.o
 .rodata.device_parse.str1.1
                0x000000008085aeb7       0xee cmd/built-in.o
                                        0x118 (size before relaxing)
 .rodata.device_probe.str1.1
                0x000000008085afa5       0x30 drivers/built-in.o
 .rodata.device_remove.str1.1
                0x000000008085afd5       0x98 drivers/built-in.o
 .rodata.dfu_add.str1.1
                0x000000008085b06d        0x4 drivers/usb/gadget/built-in.o
 .rodata.dfu_alt_add.str1.1
                0x000000008085b06d       0x81 drivers/built-in.o
                                         0x93 (size before relaxing)
 .rodata.dfu_alt_init.str1.1
                0x000000008085b0ee        0xe drivers/built-in.o
                                         0x14 (size before relaxing)
 .rodata.dfu_bind.str1.1
                0x000000008085b0fc        0x8 drivers/usb/gadget/built-in.o
 .rodata.dfu_config_interfaces.str1.1
                0x000000008085b0fc        0x2 drivers/built-in.o
                                          0x6 (size before relaxing)
 .rodata.dfu_fill_entity_mmc.str1.1
                0x000000008085b0fe        0xd drivers/built-in.o
                                         0x23 (size before relaxing)
 .rodata.dfu_fill_entity_nand.str1.1
                0x000000008085b10b       0x46 drivers/built-in.o
                                         0x5e (size before relaxing)
 .rodata.dfu_fill_entity_ram.str1.1
                0x000000008085b151        0x6 drivers/built-in.o
 .rodata.dfu_flush.str1.1
                0x000000008085b151       0x1a drivers/built-in.o
 .rodata.dfu_flush_medium_nand.str1.1
                0x000000008085b16b       0x2c drivers/built-in.o
 .rodata.dfu_func
                0x000000008085b197        0x9 drivers/usb/gadget/built-in.o
 .rodata.dfu_get_buf.str1.1
                0x000000008085b1a0       0x2f drivers/built-in.o
 .rodata.dfu_init_env_entities.str1.1
                0x000000008085b1cf        0xd drivers/built-in.o
 .rodata.dfu_name
                0x000000008085b1dc       0x18 drivers/usb/gadget/built-in.o
 .rodata.dfu_read.str1.1
                0x000000008085b1f4       0x40 drivers/built-in.o
 .rodata.dfu_show_entities.str1.1
                0x000000008085b234       0x3d drivers/built-in.o
 .rodata.dfu_write.str1.1
                0x000000008085b271       0x26 drivers/built-in.o
 .rodata.dfu_write_buffer_drain.str1.1
                0x000000008085b297        0x2 drivers/built-in.o
 .rodata.dfu_write_by_name.str1.1
                0x000000008085b297       0x46 drivers/built-in.o
                                          0x2 (size before relaxing)
 .rodata.dfu_write_medium_nand.str1.1
                0x000000008085b297       0x26 drivers/built-in.o
 .rodata.dhcp_extended.str1.1
                0x000000008085b297       0x37 net/built-in.o
                                         0x48 (size before relaxing)
 .rodata.dhcp_handler.str1.1
                0x000000008085b2ce       0x41 net/built-in.o
                                         0x4a (size before relaxing)
 .rodata.dhcp_process_options.str1.1
                0x000000008085b30f       0x78 net/built-in.o
 .rodata.digits.10738
                0x000000008085b387       0x10 lib/built-in.o
 .rodata.disk_write.str1.1
                0x000000008085b397       0x18 fs/built-in.o
 .rodata.display_options.str1.1
                0x000000008085b397        0x3 lib/built-in.o
 .rodata.display_options_get_banner_priv.str1.1
                0x000000008085b397        0xc lib/built-in.o
                                         0x15 (size before relaxing)
 .rodata.dm_dump_all.str1.1
                0x000000008085b3a3       0x73 drivers/built-in.o
 .rodata.dm_dump_driver_compat.str1.1
                0x000000008085b416       0x39 drivers/built-in.o
                                         0x61 (size before relaxing)
 .rodata.dm_dump_drivers.str1.1
                0x000000008085b44f       0x7d drivers/built-in.o
                                         0xb9 (size before relaxing)
 .rodata.dm_dump_static_driver_info.str1.1
                0x000000008085b4cc       0x34 drivers/built-in.o
                                         0x57 (size before relaxing)
 .rodata.dm_dump_uclass.str1.1
                0x000000008085b500       0x35 drivers/built-in.o
                                         0x37 (size before relaxing)
 .rodata.dm_gpio_get_value.str1.1
                0x000000008085b535        0xa drivers/gpio/built-in.o
 .rodata.dm_gpio_set_dir_flags.str1.1
                0x000000008085b53f        0xe drivers/gpio/built-in.o
 .rodata.dm_gpio_set_value.str1.1
                0x000000008085b54d        0xa drivers/gpio/built-in.o
 .rodata.dm_init.str1.1
                0x000000008085b557       0x25 drivers/built-in.o
 .rodata.dm_root.str1.1
                0x000000008085b57c       0x25 drivers/built-in.o
 .rodata.dm_scan_fdt_node.str1.1
                0x000000008085b5a1       0x1d drivers/built-in.o
 .rodata.dm_scan_platdata.str1.1
                0x000000008085b5be       0x1d drivers/built-in.o
 .rodata.dm_timer_init.str1.1
                0x000000008085b5db        0xb drivers/built-in.o
 .rodata.do_bdinfo.str1.1
                0x000000008085b5e6       0xe1 cmd/built-in.o
                                         0xe9 (size before relaxing)
 .rodata.do_bootd.str1.1
                0x000000008085b6c7       0x2a cmd/built-in.o
                                          0x8 (size before relaxing)
 .rodata.do_bootefi.str1.1
                0x000000008085b6c7       0x6d cmd/built-in.o
 .rodata.do_bootefi_exec.str1.1
                0x000000008085b734       0x28 cmd/built-in.o
 .rodata.do_bootelf.str1.1
                0x000000008085b75c       0x4f cmd/built-in.o
                                         0x5c (size before relaxing)
 .rodata.do_bootm.str1.1
                0x000000008085b7ab       0x2a cmd/built-in.o
 .rodata.do_bootm_efi.str1.1
                0x000000008085b7d5       0x94 common/built-in.o
 .rodata.do_bootm_netbsd.str1.1
                0x000000008085b869       0x49 common/built-in.o
                                         0x4a (size before relaxing)
 .rodata.do_bootm_plan9.str1.1
                0x000000008085b8b2       0x43 common/built-in.o
 .rodata.do_bootm_qnxelf.str1.1
                0x000000008085b8f5        0x4 common/built-in.o
 .rodata.do_bootm_rtems.str1.1
                0x000000008085b8f5       0x39 common/built-in.o
 .rodata.do_bootm_standalone.str1.1
                0x000000008085b92e       0x16 common/built-in.o
 .rodata.do_bootm_states.str1.1
                0x000000008085b92e      0x316 common/built-in.o
                                        0x392 (size before relaxing)
 .rodata.do_bootm_vxworks.str1.1
                0x000000008085bc44       0x93 common/built-in.o
                                         0xba (size before relaxing)
 .rodata.do_bootvx.str1.1
                0x000000008085bcd7      0x1be cmd/built-in.o
                                        0x1d0 (size before relaxing)
 .rodata.do_chpart.str1.1
                0x000000008085be95       0x39 cmd/built-in.o
 .rodata.do_coninfo.str1.1
                0x000000008085bece       0x2c cmd/built-in.o
                                         0x30 (size before relaxing)
 .rodata.do_data_abort.str1.1
                0x000000008085befa        0xc arch/arm/lib/built-in.o
 .rodata.do_dfu.str1.1
                0x000000008085bf06        0xc cmd/built-in.o
                                         0x16 (size before relaxing)
 .rodata.do_echo.str1.1
                0x000000008085bf12        0x3 cmd/built-in.o
 .rodata.do_eeprom.str1.1
                0x000000008085bf15       0x3d cmd/built-in.o
                                         0x4e (size before relaxing)
 .rodata.do_env_ask.str1.1
                0x000000008085bf52       0x14 cmd/built-in.o
 .rodata.do_env_default.str1.1
                0x000000008085bf66       0x25 cmd/built-in.o
 .rodata.do_env_edit.part.0.str1.1
                0x000000008085bf8b        0x7 cmd/built-in.o
                                          0xa (size before relaxing)
 .rodata.do_env_export.str1.1
                0x000000008085bf92       0x3a cmd/built-in.o
                                         0x43 (size before relaxing)
 .rodata.do_env_import.str1.1
                0x000000008085bfcc      0x126 cmd/built-in.o
                                        0x128 (size before relaxing)
 .rodata.do_env_print.str1.1
                0x000000008085c0f2       0x3d cmd/built-in.o
 .rodata.do_fastboot.str1.1
                0x000000008085c12f       0x3d cmd/built-in.o
                                         0x41 (size before relaxing)
 .rodata.do_fat_fsinfo.str1.1
                0x000000008085c16c       0x56 cmd/built-in.o
 .rodata.do_fdt.str1.1
                0x000000008085c1c2      0x48e cmd/built-in.o
                                        0x4f0 (size before relaxing)
 .rodata.do_fiq.str1.1
                0x000000008085c650       0x18 arch/arm/lib/built-in.o
 .rodata.do_fixup_by_path.str1.1
                0x000000008085c668       0x29 common/built-in.o
 .rodata.do_fs_types.str1.1
                0x000000008085c691       0x16 fs/built-in.o
                                         0x25 (size before relaxing)
 .rodata.do_fs_uuid.str1.1
                0x000000008085c6a7        0x4 fs/built-in.o
 .rodata.do_get_any.str1.1
                0x000000008085c6a7        0x5 cmd/built-in.o
 .rodata.do_get_ext2.str1.1
                0x000000008085c6a7        0x9 cmd/built-in.o
 .rodata.do_get_fat.str1.1
                0x000000008085c6a7        0x8 cmd/built-in.o
 .rodata.do_get_tftp.str1.1
                0x000000008085c6a7        0x5 cmd/built-in.o
 .rodata.do_go.str1.1
                0x000000008085c6a7       0x4f cmd/built-in.o
 .rodata.do_gpio.str1.1
                0x000000008085c6f6       0xc4 cmd/built-in.o
                                         0xd2 (size before relaxing)
 .rodata.do_gpt.str1.1
                0x000000008085c7ba       0xc0 cmd/built-in.o
                                         0xef (size before relaxing)
 .rodata.do_i2c_bus_num.str1.1
                0x000000008085c87a       0x48 cmd/built-in.o
 .rodata.do_i2c_bus_speed.str1.1
                0x000000008085c8c2       0x53 cmd/built-in.o
 .rodata.do_i2c_crc.str1.1
                0x000000008085c915       0x1f cmd/built-in.o
                                         0x26 (size before relaxing)
 .rodata.do_i2c_md.str1.1
                0x000000008085c934        0xc cmd/built-in.o
                                         0x16 (size before relaxing)
 .rodata.do_i2c_olen.str1.1
                0x000000008085c940       0x1f cmd/built-in.o
                                         0x23 (size before relaxing)
 .rodata.do_i2c_probe.str1.1
                0x000000008085c95f       0x1c cmd/built-in.o
 .rodata.do_i2c_reset.str1.1
                0x000000008085c97b       0x24 cmd/built-in.o
 .rodata.do_i2c_show_bus.str1.1
                0x000000008085c99f       0x18 cmd/built-in.o
 .rodata.do_i2c_write.str1.1
                0x000000008085c9b7        0x3 cmd/built-in.o
 .rodata.do_imgextract.str1.1
                0x000000008085c9ba      0x1af cmd/built-in.o
                                        0x296 (size before relaxing)
 .rodata.do_irq.str1.1
                0x000000008085cb69       0x18 arch/arm/lib/built-in.o
                                         0x13 (size before relaxing)
 .rodata.do_itest.str1.1
                0x000000008085cb69       0x1e cmd/built-in.o
 .rodata.do_load.str1.1
                0x000000008085cb87       0x82 fs/built-in.o
                                         0xa5 (size before relaxing)
 .rodata.do_load_serial.str1.1
                0x000000008085cc09       0x6b cmd/built-in.o
 .rodata.do_load_serial_bin.str1.1
                0x000000008085cc74      0x159 cmd/built-in.o
 .rodata.do_ls.str1.1
                0x000000008085cdcd        0x2 fs/built-in.o
 .rodata.do_mdio.str1.1
                0x000000008085cdcd       0x78 cmd/built-in.o
 .rodata.do_mem_base.str1.1
                0x000000008085ce45       0x17 cmd/built-in.o
 .rodata.do_mem_cmp.str1.1
                0x000000008085ce5c       0x6e cmd/built-in.o
                                         0x73 (size before relaxing)
 .rodata.do_mem_cp.str1.1
                0x000000008085ceca       0x11 cmd/built-in.o
 .rodata.do_mem_crc.str1.1
                0x000000008085cedb        0x6 cmd/built-in.o
 .rodata.do_mii.str1.1
                0x000000008085cedb      0x231 cmd/built-in.o
                                        0x24a (size before relaxing)
 .rodata.do_mkdir.str1.1
                0x000000008085d10c       0x29 fs/built-in.o
 .rodata.do_mmc_boot_wp.str1.1
                0x000000008085d135       0x30 cmd/built-in.o
 .rodata.do_mmc_dev.str1.1
                0x000000008085d165       0x80 cmd/built-in.o
                                         0x83 (size before relaxing)
 .rodata.do_mmc_erase.str1.1
                0x000000008085d1e5       0x67 cmd/built-in.o
 .rodata.do_mmc_part.str1.1
                0x000000008085d24c       0x15 cmd/built-in.o
 .rodata.do_mmc_read.str1.1
                0x000000008085d261       0x43 cmd/built-in.o
 .rodata.do_mmc_setdsr.str1.1
                0x000000008085d2a4       0x37 cmd/built-in.o
                                         0x3d (size before relaxing)
 .rodata.do_mmc_write.str1.1
                0x000000008085d2db       0x47 cmd/built-in.o
 .rodata.do_mmcops.str1.1
                0x000000008085d322       0x19 cmd/built-in.o
 .rodata.do_mtdparts.str1.1
                0x000000008085d33b      0x1df cmd/built-in.o
                                        0x1ee (size before relaxing)
 .rodata.do_nand.str1.1
                0x000000008085d51a      0x342 cmd/built-in.o
                                        0x3d1 (size before relaxing)
 .rodata.do_nandboot.str1.1
                0x000000008085d85c       0x52 cmd/built-in.o
 .rodata.do_not_used.str1.1
                0x000000008085d8ae        0xa arch/arm/lib/built-in.o
 .rodata.do_panic.str1.1
                0x000000008085d8b8        0x1 cmd/built-in.o
 .rodata.do_part.str1.1
                0x000000008085d8b8       0x2a cmd/built-in.o
                                         0x4e (size before relaxing)
 .rodata.do_part_info.str1.1
                0x000000008085d8e2        0x9 cmd/built-in.o
                                          0xd (size before relaxing)
 .rodata.do_part_list.str1.1
                0x000000008085d8eb       0x22 cmd/built-in.o
                                         0x25 (size before relaxing)
 .rodata.do_ping.str1.1
                0x000000008085d90d       0x35 cmd/built-in.o
 .rodata.do_prefetch_abort.str1.1
                0x000000008085d942       0x10 arch/arm/lib/built-in.o
 .rodata.do_pxe_boot.str1.1
                0x000000008085d952       0x47 cmd/built-in.o
                                         0x48 (size before relaxing)
 .rodata.do_pxe_get.str1.1
                0x000000008085d999       0x32 cmd/built-in.o
                                         0x37 (size before relaxing)
 .rodata.do_random.str1.1
                0x000000008085d9cb       0x4c cmd/built-in.o
 .rodata.do_reset.str1.1
                0x000000008085da17        0xf arch/arm/lib/built-in.o
 .rodata.do_run.str1.1
                0x000000008085da26       0x1c common/built-in.o
 .rodata.do_save.str1.1
                0x000000008085da26       0x1d fs/built-in.o
 .rodata.do_showvar.str1.1
                0x000000008085da43        0xc common/built-in.o
                                         0x2f (size before relaxing)
 .rodata.do_size.str1.1
                0x000000008085da4f        0x9 fs/built-in.o
 .rodata.do_software_interrupt.str1.1
                0x000000008085da4f       0x14 arch/arm/lib/built-in.o
 .rodata.do_source.str1.1
                0x000000008085da63       0x1e cmd/built-in.o
 .rodata.do_spi.str1.1
                0x000000008085da81       0x6e cmd/built-in.o
                                         0x75 (size before relaxing)
 .rodata.do_spi_flash.str1.1
                0x000000008085daef      0x1ab cmd/built-in.o
                                        0x1de (size before relaxing)
 .rodata.do_spl.str1.1
                0x000000008085dc9a       0xc2 cmd/built-in.o
 .rodata.do_sysboot.str1.1
                0x000000008085dd5c       0x43 cmd/built-in.o
                                         0x93 (size before relaxing)
 .rodata.do_time.str1.1
                0x000000008085dd9f       0x29 cmd/built-in.o
 .rodata.do_undefined_instruction.str1.1
                0x000000008085ddc8       0x17 arch/arm/lib/built-in.o
 .rodata.do_usb.str1.1
                0x000000008085dddf      0x272 cmd/built-in.o
                                        0x293 (size before relaxing)
 .rodata.do_usbboot.str1.1
                0x000000008085e051      0x105 cmd/built-in.o
                                          0x4 (size before relaxing)
 .rodata.do_version.str1.1
                0x000000008085e051       0xd1 cmd/built-in.o
 .rodata.download.str1.1
                0x000000008085e122       0x5b drivers/built-in.o
                                         0x5e (size before relaxing)
 .rodata.dp_unknown.str1.1
                0x000000008085e17d       0x13 lib/built-in.o
 .rodata.dra7_mmc_of_data
                0x000000008085e190        0x1 drivers/built-in.o
 .rodata.driver_desc
                0x000000008085e191       0x10 drivers/usb/gadget/built-in.o
 .rodata.dump_field.str1.1
                0x000000008085e1a1       0x1b cmd/built-in.o
 .rodata.eeprom_rw.str1.1
                0x000000008085e1bc       0x23 cmd/built-in.o
 .rodata.efi_bl_bind.str1.1
                0x000000008085e1df       0x12 lib/built-in.o
 .rodata.efi_bootmgr_load.str1.1
                0x000000008085e1f1       0x8b lib/built-in.o
 .rodata.efi_console_register.str1.1
                0x000000008085e27c       0xb1 lib/built-in.o
                                         0xb8 (size before relaxing)
 .rodata.efi_convert_single_device_node_to_text.str1.1
                0x000000008085e32d      0x137 lib/built-in.o
                                        0x150 (size before relaxing)
 .rodata.efi_cout_clear_screen.str1.1
                0x000000008085e464        0xb lib/built-in.o
 .rodata.efi_cout_enable_cursor.str1.1
                0x000000008085e46f        0x8 lib/built-in.o
 .rodata.efi_cout_set_attribute.str1.1
                0x000000008085e477       0x17 lib/built-in.o
 .rodata.efi_cout_set_cursor_position.str1.1
                0x000000008085e48e        0x9 lib/built-in.o
 .rodata.efi_disk_create_partitions.str1.1
                0x000000008085e497       0x22 lib/built-in.o
 .rodata.efi_disk_register.str1.1
                0x000000008085e4b9       0x67 lib/built-in.o
 .rodata.efi_dp_from_name.str1.1
                0x000000008085e520        0x4 lib/built-in.o
                                          0x7 (size before relaxing)
 .rodata.efi_driver_init.str1.1
                0x000000008085e524       0x58 lib/built-in.o
 .rodata.efi_exit.str1.1
                0x000000008085e57c       0x17 lib/built-in.o
 .rodata.efi_file_from_path.str1.1
                0x000000008085e593       0x10 lib/built-in.o
 .rodata.efi_free_pages.str1.1
                0x000000008085e5a3       0x20 lib/built-in.o
 .rodata.efi_free_pool.str1.1
                0x000000008085e5c3       0x17 lib/built-in.o
 .rodata.efi_init_obj_list.str1.1
                0x000000008085e5da       0x39 lib/built-in.o
 .rodata.efi_init_secure_state.str1.1
                0x000000008085e613       0x27 lib/built-in.o
 .rodata.efi_install_fdt.str1.1
                0x000000008085e63a      0x11b cmd/built-in.o
                                        0x11f (size before relaxing)
 .rodata.efi_load_pe.str1.1
                0x000000008085e755       0xf2 lib/built-in.o
                                        0x101 (size before relaxing)
 .rodata.efi_net_register.str1.1
                0x000000008085e847       0x6d lib/built-in.o
                                         0x83 (size before relaxing)
 .rodata.efi_print_image_infos.str1.1
                0x000000008085e8b4       0x29 lib/built-in.o
                                         0x2b (size before relaxing)
 .rodata.efi_reserve_memory.str1.1
                0x000000008085e8dd       0x34 cmd/built-in.o
 .rodata.efi_run_image.str1.1
                0x000000008085e911       0x23 cmd/built-in.o
                                         0x2c (size before relaxing)
 .rodata.efi_set_blk_dev_to_system_partition.str1.1
                0x000000008085e934       0x41 lib/built-in.o
 .rodata.efi_set_code_and_data_type.str1.1
                0x000000008085e975       0x18 lib/built-in.o
 .rodata.efi_setup_loaded_image.str1.1
                0x000000008085e98d       0x36 lib/built-in.o
 .rodata.efi_uc_destroy.str1.1
                0x000000008085e9c3       0x18 lib/built-in.o
 .rodata.efi_uc_init.str1.1
                0x000000008085e9db       0x1e lib/built-in.o
 .rodata.efi_uc_stop.str1.1
                0x000000008085e9f9       0x1d lib/built-in.o
 .rodata.efi_var_from_file.str1.1
                0x000000008085ea16       0x1e lib/built-in.o
                                         0x2d (size before relaxing)
 .rodata.efi_var_restore.str1.1
                0x000000008085ea34       0x3c lib/built-in.o
 .rodata.efi_var_to_file.str1.1
                0x000000008085ea70       0x2e lib/built-in.o
 .rodata.efi_watchdog_register.str1.1
                0x000000008085ea9e       0x4f lib/built-in.o
 .rodata.efi_watchdog_timer_notify.str1.1
                0x000000008085eaed       0x18 lib/built-in.o
 .rodata.elm_check_error.str1.1
                0x000000008085eb05       0x27 drivers/built-in.o
 .rodata.emit.str1.1
                0x000000008085eb2c       0x1f lib/built-in.o
 .rodata.env_callback_init.str1.1
                0x000000008085eb4b        0xb env/built-in.o
 .rodata.env_complete.str1.1
                0x000000008085eb56        0x7 env/built-in.o
                                         0x10 (size before relaxing)
 .rodata.env_fat_device_and_part.str1.1
                0x000000008085eb5d        0x5 env/built-in.o
                                          0xd (size before relaxing)
 .rodata.env_fat_load.str1.1
                0x000000008085eb62       0x25 env/built-in.o
 .rodata.env_fat_save.str1.1
                0x000000008085eb87       0x4b env/built-in.o
 .rodata.env_flags_init.str1.1
                0x000000008085ebd2        0x7 env/built-in.o
 .rodata.env_flags_parse_varaccess.str1.1
                0x000000008085ebd9       0x3d env/built-in.o
 .rodata.env_flags_parse_vartype.str1.1
                0x000000008085ec16       0x34 env/built-in.o
 .rodata.env_flags_validate.str1.1
                0x000000008085ec4a       0xb2 env/built-in.o
                                         0xb3 (size before relaxing)
 .rodata.env_flags_varaccess_rep
                0x000000008085ecfc        0x5 env/built-in.o
 .rodata.env_flags_vartype_rep
                0x000000008085ed01        0x7 env/built-in.o
 .rodata.env_get_bootm_low.str1.1
                0x000000008085ed08        0xa common/built-in.o
 .rodata.env_get_bootm_mapsize.str1.1
                0x000000008085ed12        0xe common/built-in.o
 .rodata.env_get_bootm_size.str1.1
                0x000000008085ed20        0xb common/built-in.o
 .rodata.env_get_f.str1.1
                0x000000008085ed2b       0x30 cmd/built-in.o
 .rodata.env_get_mtdparts.str1.1
                0x000000008085ed5b        0x9 cmd/built-in.o
 .rodata.env_import.str1.1
                0x000000008085ed64       0x16 env/built-in.o
 .rodata.env_load.str1.1
                0x000000008085ed7a       0x20 env/built-in.o
                                         0x24 (size before relaxing)
 .rodata.env_print.str1.1
                0x000000008085ed9a       0x2c cmd/built-in.o
 .rodata.env_reload.str1.1
                0x000000008085edc6       0x1e env/built-in.o
 .rodata.env_save.str1.1
                0x000000008085ede4       0x2b env/built-in.o
 .rodata.env_set.str1.1
                0x000000008085ee0f        0x7 cmd/built-in.o
 .rodata.env_set_default.str1.1
                0x000000008085ee16       0x2e env/built-in.o
 .rodata.env_set_hex.str1.1
                0x000000008085ee44        0x4 cmd/built-in.o
 .rodata.erase_seq
                0x000000008085ee44        0x4 common/built-in.o
 .rodata.eth_bind.str1.1
                0x000000008085ee48       0x97 drivers/usb/gadget/built-in.o
                                         0xa1 (size before relaxing)
 .rodata.eth_current_changed.str1.1
                0x000000008085eedf       0x14 net/built-in.o
 .rodata.eth_env_get_enetaddr_by_index.str1.1
                0x000000008085eedf       0x10 net/built-in.o
 .rodata.eth_env_set_enetaddr.str1.1
                0x000000008085eeef        0x4 cmd/built-in.o
 .rodata.eth_get_name.str1.1
                0x000000008085eef3        0x8 net/built-in.o
 .rodata.eth_init.str1.1
                0x000000008085eef3       0x11 net/built-in.o
                                         0x28 (size before relaxing)
 .rodata.eth_initialize.str1.1
                0x000000008085ef04       0x1c net/built-in.o
                                         0x1f (size before relaxing)
 .rodata.eth_mac_skip.str1.1
                0x000000008085ef20       0x18 net/built-in.o
 .rodata.eth_post_bind.str1.1
                0x000000008085ef38       0x2b net/built-in.o
 .rodata.eth_post_probe.str1.1
                0x000000008085ef63       0x7c net/built-in.o
                                         0xa5 (size before relaxing)
 .rodata.eth_set_current.str1.1
                0x000000008085efdf        0x9 net/built-in.o
 .rodata.eth_setup.str1.1
                0x000000008085efdf       0x3d drivers/usb/gadget/built-in.o
                                         0x49 (size before relaxing)
 .rodata.eth_write_hwaddr.str1.1
                0x000000008085f01c       0x4e net/built-in.o
 .rodata.ext4_read_file.str1.1
                0x000000008085f06a       0x19 fs/built-in.o
 .rodata.ext4_write_file.str1.1
                0x000000008085f083       0x42 fs/built-in.o
 .rodata.ext4fs_allocate_blocks.str1.1
                0x000000008085f0c5       0x61 fs/built-in.o
 .rodata.ext4fs_check_journal_state.str1.1
                0x000000008085f126       0x2e fs/built-in.o
 .rodata.ext4fs_filename_unlink.str1.1
                0x000000008085f154       0x16 fs/built-in.o
 .rodata.ext4fs_get_bgdtable.str1.1
                0x000000008085f16a       0x19 fs/built-in.o
 .rodata.ext4fs_get_parent_inode_num.str1.1
                0x000000008085f183       0x3e fs/built-in.o
                                         0x40 (size before relaxing)
 .rodata.ext4fs_init.str1.1
                0x000000008085f1c1       0x33 fs/built-in.o
 .rodata.ext4fs_iterate_dir.str1.1
                0x000000008085f1f4       0x43 fs/built-in.o
                                         0x4a (size before relaxing)
 .rodata.ext4fs_log_journal.str1.1
                0x000000008085f237       0x1c fs/built-in.o
 .rodata.ext4fs_ls.str1.1
                0x000000008085f253       0x1f fs/built-in.o
 .rodata.ext4fs_mount.str1.1
                0x000000008085f272       0x24 fs/built-in.o
 .rodata.ext4fs_push_revoke_blk.str1.1
                0x000000008085f296       0x2e fs/built-in.o
 .rodata.ext4fs_update_journal.str1.1
                0x000000008085f2c4       0x19 fs/built-in.o
 .rodata.ext4fs_update_parent_dentry.str1.1
                0x000000008085f2dd       0x86 fs/built-in.o
 .rodata.ext4fs_write.str1.1
                0x000000008085f363       0xaf fs/built-in.o
 .rodata.extract_env.str1.1
                0x000000008085f412        0x3 cmd/built-in.o
 .rodata.extract_val.str1.1
                0x000000008085f415        0xc cmd/built-in.o
                                          0x4 (size before relaxing)
 .rodata.fastboot_add.str1.1
                0x000000008085f415        0xb drivers/usb/gadget/built-in.o
 .rodata.fastboot_bind.str1.1
                0x000000008085f420        0x8 drivers/usb/gadget/built-in.o
 .rodata.fastboot_boot.str1.1
                0x000000008085f420       0x2c drivers/built-in.o
                                         0x31 (size before relaxing)
 .rodata.fastboot_complete.str1.1
                0x000000008085f44c       0x1e drivers/usb/gadget/built-in.o
 .rodata.fastboot_data_complete.str1.1
                0x000000008085f46a       0x23 drivers/built-in.o
                                         0x2c (size before relaxing)
 .rodata.fastboot_data_download.str1.1
                0x000000008085f48d       0x1d drivers/built-in.o
 .rodata.fastboot_fail.str1.1
                0x000000008085f4aa        0x5 drivers/built-in.o
                                          0x8 (size before relaxing)
 .rodata.fastboot_getvar.str1.1
                0x000000008085f4af       0x31 drivers/built-in.o
                                         0x36 (size before relaxing)
 .rodata.fastboot_handle_command.str1.1
                0x000000008085f4e0       0x15 drivers/built-in.o
                                         0x17 (size before relaxing)
 .rodata.fastboot_mmc_erase.str1.1
                0x000000008085f4f5       0x6c drivers/built-in.o
 .rodata.fastboot_mmc_flash_write.str1.1
                0x000000008085f561      0x3c5 drivers/built-in.o
                                        0x3ce (size before relaxing)
 .rodata.fastboot_mmc_get_part_info.str1.1
                0x000000008085f926       0x3f drivers/built-in.o
                                         0x44 (size before relaxing)
 .rodata.fastboot_name
                0x000000008085f965       0x11 drivers/usb/gadget/built-in.o
 .rodata.fastboot_okay.str1.1
                0x000000008085f976        0x5 drivers/built-in.o
 .rodata.fastboot_set_alt.str1.1
                0x000000008085f97b       0x5f drivers/usb/gadget/built-in.o
 .rodata.fastboot_tx_write_str.str1.1
                0x000000008085f9da       0x13 drivers/usb/gadget/built-in.o
 .rodata.fat_itr_resolve.str1.1
                0x000000008085f9ed        0xa fs/built-in.o
                                          0x5 (size before relaxing)
 .rodata.fat_itr_root.str1.1
                0x000000008085f9ed       0x85 fs/built-in.o
 .rodata.fat_mkdir.str1.1
                0x000000008085fa72       0x26 fs/built-in.o
                                         0x2a (size before relaxing)
 .rodata.fat_read_file.str1.1
                0x000000008085fa98       0x1e fs/built-in.o
 .rodata.fat_set_blk_dev.str1.1
                0x000000008085fab6        0x3 fs/built-in.o
                                          0xd (size before relaxing)
 .rodata.fat_unlink.str1.1
                0x000000008085fab9       0x8b fs/built-in.o
                                         0x8c (size before relaxing)
 .rodata.fb_mmc_blk_write.str1.1
                0x000000008085fb44        0x8 drivers/built-in.o
                                         0x10 (size before relaxing)
 .rodata.fdt_address_cells.str1.1
                0x000000008085fb4c        0xf lib/built-in.o
 .rodata.fdt_chosen.str1.1
                0x000000008085fb5b       0x35 common/built-in.o
                                         0x3e (size before relaxing)
 .rodata.fdt_error.str1.1
                0x000000008085fb90       0x2d common/built-in.o
 .rodata.fdt_find_or_add_subnode.str1.1
                0x000000008085fbbd        0xc common/built-in.o
 .rodata.fdt_fixup_ethernet.str1.1
                0x000000008085fbc9       0x2e common/built-in.o
                                         0x42 (size before relaxing)
 .rodata.fdt_fixup_memory_banks.str1.1
                0x000000008085fbf7       0x81 common/built-in.o
                                         0x94 (size before relaxing)
 .rodata.fdt_get_alias_namelen.str1.1
                0x000000008085fc78        0x9 lib/built-in.o
 .rodata.fdt_get_phandle.str1.1
                0x000000008085fc78        0xe lib/built-in.o
                                         0x16 (size before relaxing)
 .rodata.fdt_initrd.str1.1
                0x000000008085fc86       0x90 common/built-in.o
                                         0x97 (size before relaxing)
 .rodata.fdt_node_check_compatible.str1.1
                0x000000008085fd16        0xb lib/built-in.o
 .rodata.fdt_overlay_apply.str1.1
                0x000000008085fd16       0x39 lib/built-in.o
                                         0x5f (size before relaxing)
 .rodata.fdt_overlay_apply_verbose.str1.1
                0x000000008085fd4f       0x83 common/built-in.o
 .rodata.fdt_root.str1.1
                0x000000008085fdd2       0x46 common/built-in.o
                                         0x4e (size before relaxing)
 .rodata.fdt_size_cells.str1.1
                0x000000008085fe18        0xc lib/built-in.o
 .rodata.fdt_strerror.str1.1
                0x000000008085fe18       0x31 lib/built-in.o
 .rodata.fdt_support_default_count_cells.str1.1
                0x000000008085fe49        0xc common/built-in.o
 .rodata.fdt_translate_address.str1.1
                0x000000008085fe55        0x7 common/built-in.o
 .rodata.fdt_valid.str1.1
                0x000000008085fe5c       0x79 cmd/built-in.o
                                         0x7b (size before relaxing)
 .rodata.fdtdec_add_aliases_for_id.str1.1
                0x000000008085fed5        0x9 lib/built-in.o
 .rodata.fdtdec_get_chosen_prop.str1.1
                0x000000008085fed5        0x8 lib/built-in.o
 .rodata.fdtdec_get_config_int.str1.1
                0x000000008085fed5        0x8 lib/built-in.o
 .rodata.fdtdec_get_is_enabled.str1.1
                0x000000008085fedd        0x5 lib/built-in.o
                                          0xc (size before relaxing)
 .rodata.fdtdec_prepare_fdt.str1.1
                0x000000008085fee2       0x96 lib/built-in.o
 .rodata.fdtdec_setup.str1.1
                0x000000008085ff78        0xf lib/built-in.o
 .rodata.file_fat_detectfs.str1.1
                0x000000008085ff78       0x5c fs/built-in.o
                                         0x84 (size before relaxing)
 .rodata.file_fat_read_at.str1.1
                0x000000008085ffd4       0x2a fs/built-in.o
 .rodata.file_fat_write_at.str1.1
                0x000000008085fffe       0xa7 fs/built-in.o
 .rodata.file_get.str1.1
                0x00000000808600a5       0x1e common/built-in.o
                                          0x7 (size before relaxing)
 .rodata.file_open.str1.1
                0x00000000808600a5        0xa lib/built-in.o
                                          0xb (size before relaxing)
 .rodata.find_dev_and_part.str1.1
                0x00000000808600af       0x6b cmd/built-in.o
 .rodata.find_mmc_device.str1.1
                0x000000008086011a       0x19 drivers/built-in.o
 .rodata.find_valid_gpt.str1.1
                0x0000000080860133       0x6c disk/built-in.o
 .rodata.fit_all_image_verify.str1.1
                0x000000008086019f       0x51 common/built-in.o
 .rodata.fit_get_desc.str1.1
                0x00000000808601f0        0xc common/built-in.o
 .rodata.fit_get_timestamp.str1.1
                0x00000000808601fc        0xa common/built-in.o
 .rodata.fit_image_get_address.str1.1
                0x0000000080860206       0x1d common/built-in.o
 .rodata.fit_image_get_arch.str1.1
                0x0000000080860223        0xa common/built-in.o
                                          0x5 (size before relaxing)
 .rodata.fit_image_get_comp.str1.1
                0x0000000080860223        0xc common/built-in.o
 .rodata.fit_image_get_data.str1.1
                0x0000000080860223        0x6 common/built-in.o
                                          0x5 (size before relaxing)
 .rodata.fit_image_get_data_offset.str1.1
                0x0000000080860223        0xc common/built-in.o
 .rodata.fit_image_get_data_position.str1.1
                0x000000008086022f        0xe common/built-in.o
 .rodata.fit_image_get_data_size.str1.1
                0x000000008086023d        0xa common/built-in.o
 .rodata.fit_image_get_entry.str1.1
                0x0000000080860247        0x6 common/built-in.o
 .rodata.fit_image_get_load.str1.1
                0x000000008086024d        0x5 common/built-in.o
 .rodata.fit_image_get_node.str1.1
                0x000000008086024d        0x8 common/built-in.o
 .rodata.fit_image_get_os.str1.1
                0x000000008086024d        0xa common/built-in.o
                                          0x3 (size before relaxing)
 .rodata.fit_image_get_type.str1.1
                0x000000008086024d        0xa common/built-in.o
                                          0x5 (size before relaxing)
 .rodata.fit_image_hash_get_algo.str1.1
                0x000000008086024d        0xa common/built-in.o
                                          0x5 (size before relaxing)
 .rodata.fit_image_hash_get_value.str1.1
                0x000000008086024d        0xa common/built-in.o
                                          0x6 (size before relaxing)
 .rodata.fit_image_load.str1.1
                0x000000008086024d      0x20b common/built-in.o
                                        0x226 (size before relaxing)
 .rodata.fit_image_print.str1.1
                0x0000000080860458       0xe5 common/built-in.o
                                         0xf2 (size before relaxing)
 .rodata.fit_image_print_data.str1.1
                0x000000008086053d       0x96 common/built-in.o
                                         0xa4 (size before relaxing)
 .rodata.fit_image_print_verification_data.str1.1
                0x00000000808605d3       0x19 common/built-in.o
 .rodata.fit_image_verify.str1.1
                0x00000000808605ec       0x1a common/built-in.o
                                         0x4b (size before relaxing)
 .rodata.fit_image_verify_with_data.str1.1
                0x0000000080860606       0xe0 common/built-in.o
 .rodata.fit_print_contents.str1.1
                0x00000000808606e6      0x13b common/built-in.o
                                        0x172 (size before relaxing)
 .rodata.format_mac_pxe.str1.1
                0x0000000080860821       0x45 cmd/built-in.o
 .rodata.from_env.str1.1
                0x0000000080860866       0x22 cmd/built-in.o
 .rodata.fs_devread.str1.1
                0x0000000080860888       0x98 fs/built-in.o
 .rodata.fs_ln.str1.1
                0x0000000080860920       0x26 fs/built-in.o
 .rodata.fs_ls_generic.str1.1
                0x0000000080860946       0x47 fs/built-in.o
 .rodata.fs_probe_unsupported.str1.1
                0x000000008086098d       0x24 fs/built-in.o
 .rodata.fs_write.str1.1
                0x00000000808609b1       0x1f fs/built-in.o
 .rodata.ft_board_setup.str1.1
                0x00000000808609d0       0x9b board/ti/am335x/built-in.o
                                         0x9e (size before relaxing)
 .rodata.g_dnl_bind.str1.1
                0x0000000080860a6b       0x15 drivers/usb/gadget/built-in.o
 .rodata.g_dnl_register.str1.1
                0x0000000080860a80       0x18 drivers/usb/gadget/built-in.o
 .rodata.genimg_get_arch_id.str1.1
                0x0000000080860a98       0xe1 common/built-in.o
                                          0x4 (size before relaxing)
 .rodata.genimg_get_arch_name.str1.1
                0x0000000080860a98       0x15 common/built-in.o
 .rodata.genimg_get_comp_id.str1.1
                0x0000000080860aad       0xe1 common/built-in.o
                                          0xc (size before relaxing)
 .rodata.genimg_get_comp_name.str1.1
                0x0000000080860aad       0x14 common/built-in.o
 .rodata.genimg_get_os_id.str1.1
                0x0000000080860ac1       0xe1 common/built-in.o
                                          0x3 (size before relaxing)
 .rodata.genimg_get_os_name.str1.1
                0x0000000080860ac1        0xb common/built-in.o
 .rodata.genimg_get_type_id.str1.1
                0x0000000080860acc       0xe1 common/built-in.o
                                          0x6 (size before relaxing)
 .rodata.genimg_get_type_name.str1.1
                0x0000000080860acc        0xe common/built-in.o
 .rodata.genimg_print_size.str1.1
                0x0000000080860ada        0xc common/built-in.o
                                          0xe (size before relaxing)
 .rodata.genimg_print_time.str1.1
                0x0000000080860ae6       0x22 common/built-in.o
 .rodata.genphy_update_link.str1.1
                0x0000000080860b08       0x54 drivers/net/phy/built-in.o
                                         0x56 (size before relaxing)
 .rodata.get_descriptor_len.str1.1
                0x0000000080860b5c       0x64 common/built-in.o
 .rodata.get_fatent.str1.1
                0x0000000080860bc0       0x22 fs/built-in.o
 .rodata.get_local_var.str1.1
                0x0000000080860be2        0x5 common/built-in.o
                                          0x3 (size before relaxing)
 .rodata.get_mtd_info.constprop.0.str1.1
                0x0000000080860be2       0x16 cmd/built-in.o
                                         0x1b (size before relaxing)
 .rodata.get_phy_device_by_mask.str1.1
                0x0000000080860bf8       0x4a drivers/net/phy/built-in.o
 .rodata.get_pxelinux_path.str1.1
                0x0000000080860c42       0x3e cmd/built-in.o
 .rodata.get_relfile.str1.1
                0x0000000080860c80       0x56 cmd/built-in.o
                                         0x63 (size before relaxing)
 .rodata.get_ticks.str1.1
                0x0000000080860cd6       0x4f lib/built-in.o
 .rodata.getvar_current_slot.str1.1
                0x0000000080860d25        0x7 drivers/built-in.o
                                          0x2 (size before relaxing)
 .rodata.getvar_downloadsize.str1.1
                0x0000000080860d25        0x7 drivers/built-in.o
                                          0xc (size before relaxing)
 .rodata.getvar_has_slot.str1.1
                0x0000000080860d2c       0x1a drivers/built-in.o
                                         0x1e (size before relaxing)
 .rodata.getvar_is_userspace.str1.1
                0x0000000080860d46        0x3 drivers/built-in.o
 .rodata.getvar_partition_size.str1.1
                0x0000000080860d46        0x9 drivers/built-in.o
 .rodata.getvar_partition_type.str1.1
                0x0000000080860d4f       0x18 drivers/built-in.o
 .rodata.getvar_platform.str1.1
                0x0000000080860d67       0x1a drivers/built-in.o
 .rodata.getvar_product.str1.1
                0x0000000080860d81        0xe drivers/built-in.o
                                         0x14 (size before relaxing)
 .rodata.getvar_serialno.str1.1
                0x0000000080860d8f        0xe drivers/built-in.o
                                         0x16 (size before relaxing)
 .rodata.getvar_version.str1.1
                0x0000000080860d9d        0x4 drivers/built-in.o
 .rodata.getvar_version_baseband.str1.1
                0x0000000080860da1        0x4 drivers/built-in.o
 .rodata.getvar_version_bootloader.str1.1
                0x0000000080860da5       0x21 drivers/built-in.o
 .rodata.gpio_direction_input.str1.1
                0x0000000080860dc6        0xa drivers/gpio/built-in.o
 .rodata.gpio_direction_output.str1.1
                0x0000000080860dd0        0xb drivers/gpio/built-in.o
 .rodata.gpio_get_description.str1.1
                0x0000000080860ddb        0xa cmd/built-in.o
                                         0x18 (size before relaxing)
 .rodata.gpio_get_status.str1.1
                0x0000000080860de5       0x17 drivers/gpio/built-in.o
                                         0x19 (size before relaxing)
 .rodata.gpio_request_tail.str1.1
                0x0000000080860dfc        0x8 drivers/gpio/built-in.o
                                          0xe (size before relaxing)
 .rodata.gpmc_nand_init.str1.1
                0x0000000080860e04       0x4c drivers/built-in.o
 .rodata.gpt_fill_header.str1.1
                0x0000000080860e50       0x24 disk/built-in.o
 .rodata.gpt_fill_pte.str1.1
                0x0000000080860e74       0x5b disk/built-in.o
 .rodata.gzip_parse_header.str1.1
                0x0000000080860ecf       0x3e lib/built-in.o
 .rodata.handle_include.str1.1
                0x0000000080860f0d       0x33 cmd/built-in.o
 .rodata.handle_pxe_menu.str1.1
                0x0000000080860f40       0x15 cmd/built-in.o
                                         0x18 (size before relaxing)
 .rodata.hang.str1.1
                0x0000000080860f55       0x2a lib/built-in.o
 .rodata.hash_command.str1.1
                0x0000000080860f7f       0x58 common/built-in.o
                                         0x5f (size before relaxing)
 .rodata.header_desc
                0x0000000080860fd7        0x5 drivers/usb/gadget/built-in.o
 .rodata.hex_asc
                0x0000000080860fdc       0x11 lib/built-in.o
                0x0000000080860fdc                hex_asc
 .rodata.hexport_r.str1.1
                0x0000000080860fed       0x30 lib/built-in.o
 .rodata.himport_r.str1.1
                0x000000008086101d       0x99 lib/built-in.o
 .rodata.i2c_chip_ofdata_to_platdata.str1.1
                0x00000000808610b6       0x16 drivers/i2c/built-in.o
                                         0x1a (size before relaxing)
 .rodata.i2c_deblock.str1.1
                0x00000000808610cc       0x20 drivers/i2c/built-in.o
                                          0x6 (size before relaxing)
 .rodata.i2c_get_chip.str1.1
                0x00000000808610cc       0x20 drivers/i2c/built-in.o
 .rodata.i2c_get_cur_bus.str1.1
                0x00000000808610ec       0x15 cmd/built-in.o
 .rodata.i2c_post_probe.str1.1
                0x0000000080861101       0x10 drivers/i2c/built-in.o
 .rodata.i2c_pre_probe.str1.1
                0x0000000080861101       0x1d drivers/i2c/built-in.o
 .rodata.i2c_uclass_init.str1.1
                0x000000008086111e        0x4 drivers/i2c/built-in.o
 .rodata.illegal
                0x000000008086111e       0x11 lib/built-in.o
 .rodata.image_decomp.str1.1
                0x000000008086112f       0x2b common/built-in.o
                                         0x4e (size before relaxing)
 .rodata.image_info.str1.1
                0x000000008086115a      0x107 cmd/built-in.o
 .rodata.image_print_contents.str1.1
                0x0000000080861261       0xe1 common/built-in.o
                                         0xe5 (size before relaxing)
 .rodata.image_setup_libfdt.str1.1
                0x0000000080861342       0xbb common/built-in.o
 .rodata.image_source_script.str1.1
                0x00000000808613fd       0xff cmd/built-in.o
                                        0x124 (size before relaxing)
 .rodata.index_partitions.str1.1
                0x00000000808614fc       0x15 cmd/built-in.o
 .rodata.inflate.str1.1
                0x0000000080861511      0x158 lib/built-in.o
 .rodata.inflate_fast.str1.1
                0x0000000080861669       0x50 lib/built-in.o
 .rodata.init_baud_rate.str1.1
                0x00000000808616b9        0x9 common/built-in.o
 .rodata.init_peripheral_ep.str1.1
                0x00000000808616c2        0x7 drivers/usb/musb-new/built-in.o
                                          0xf (size before relaxing)
 .rodata.initr_env.str1.1
                0x00000000808616c9       0x11 common/built-in.o
                                         0x29 (size before relaxing)
 .rodata.initr_ethaddr.str1.1
                0x00000000808616da        0x8 common/built-in.o
 .rodata.initr_mmc.str1.1
                0x00000000808616da        0x8 common/built-in.o
 .rodata.initr_nand.str1.1
                0x00000000808616e2       0x11 common/built-in.o
 .rodata.initr_net.str1.1
                0x00000000808616f3        0x8 common/built-in.o
 .rodata.initr_watchdog.str1.1
                0x00000000808616fb       0x5b drivers/built-in.o
                                         0x5c (size before relaxing)
 .rodata.insert_var_value_sub.str1.1
                0x0000000080861756        0x6 common/built-in.o
 .rodata.ip_to_string.str1.1
                0x000000008086175c        0xc net/built-in.o
 .rodata.is_gpt_valid.str1.1
                0x0000000080861768       0xea disk/built-in.o
 .rodata.label_boot.str1.1
                0x0000000080861852      0x170 cmd/built-in.o
                                        0x1c5 (size before relaxing)
 .rodata.label_print.str1.1
                0x00000000808619c2        0x8 cmd/built-in.o
 .rodata.list_sort.str1.1
                0x00000000808619ca       0x34 lib/built-in.o
 .rodata.lists_bind_drivers.str1.1
                0x00000000808619fe       0x1a drivers/built-in.o
 .rodata.lists_bind_fdt.str1.1
                0x0000000080861a18       0x4a drivers/built-in.o
 .rodata.lmb_alloc_base.str1.1
                0x0000000080861a62       0x34 lib/built-in.o
 .rodata.lmb_dump_all_force.str1.1
                0x0000000080861a96      0x102 lib/built-in.o
 .rodata.load_serial.str1.1
                0x0000000080861b98       0x65 cmd/built-in.o
 .rodata.load_serial_ymodem.str1.1
                0x0000000080861bfd       0x28 cmd/built-in.o
                                         0x35 (size before relaxing)
 .rodata.lzop_magic
                0x0000000080861c25        0x9 lib/built-in.o
 .rodata.main_loop.str1.1
                0x0000000080861c2e       0x11 common/built-in.o
                                         0x15 (size before relaxing)
 .rodata.manufacturer
                0x0000000080861c3f       0x12 drivers/usb/gadget/built-in.o
 .rodata.match.str1.1
                0x0000000080861c51       0x18 lib/built-in.o
 .rodata.match_entry.str1.1
                0x0000000080861c69       0x1b lib/built-in.o
 .rodata.match_string.str1.1
                0x0000000080861c69       0x2c lib/built-in.o
 .rodata.mdio_list_devices.str1.1
                0x0000000080861c95       0x12 common/built-in.o
                                         0x19 (size before relaxing)
 .rodata.mdio_phydev_for_ethname.str1.1
                0x0000000080861ca7       0x1c common/built-in.o
 .rodata.mdio_register.str1.1
                0x0000000080861cc3       0x2c common/built-in.o
 .rodata.memsize_format.str1.1
                0x0000000080861cef       0x17 cmd/built-in.o
 .rodata.menu_get_choice.str1.1
                0x0000000080861d06        0xf common/built-in.o
                                         0x2a (size before relaxing)
 .rodata.miiphy_duplex.str1.1
                0x0000000080861d15       0x4f common/built-in.o
 .rodata.miiphy_get_dev_by_name.str1.1
                0x0000000080861d64       0x13 common/built-in.o
 .rodata.miiphy_listdev.str1.1
                0x0000000080861d77       0x2a common/built-in.o
 .rodata.miiphy_set_current_dev.str1.1
                0x0000000080861da1       0x14 common/built-in.o
 .rodata.miiphy_speed.str1.1
                0x0000000080861db5       0x49 common/built-in.o
 .rodata.mmc_berase.str1.1
                0x0000000080861dfe       0x6f drivers/built-in.o
 .rodata.mmc_bind.str1.1
                0x0000000080861e6d        0x8 drivers/built-in.o
                                          0xc (size before relaxing)
 .rodata.mmc_block_op.str1.1
                0x0000000080861e75       0x27 drivers/built-in.o
 .rodata.mmc_bwrite.str1.1
                0x0000000080861e9c       0x59 drivers/built-in.o
 .rodata.mmc_file_op.str1.1
                0x0000000080861ef5       0x82 drivers/built-in.o
                                         0x8c (size before relaxing)
 .rodata.mmc_mode_name.str1.1
                0x0000000080861f77        0xd drivers/built-in.o
 .rodata.mmc_of_parse.str1.1
                0x0000000080861f84      0x102 drivers/built-in.o
                                        0x11a (size before relaxing)
 .rodata.mmc_reset_controller_fsm.str1.1
                0x0000000080862086       0x2d drivers/built-in.o
 .rodata.mmc_startup.str1.1
                0x00000000808620b3       0x55 drivers/built-in.o
                                         0x5b (size before relaxing)
 .rodata.mod_i2c_mem.isra.0.part.0.str1.1
                0x0000000080862108       0x21 cmd/built-in.o
                                         0x28 (size before relaxing)
 .rodata.mod_mem.isra.0.part.0.str1.1
                0x0000000080862129       0x12 cmd/built-in.o
                                         0x23 (size before relaxing)
 .rodata.mtd_arg_off.str1.1
                0x000000008086213b       0x34 cmd/built-in.o
 .rodata.mtd_arg_off_size.str1.1
                0x000000008086216f       0x71 cmd/built-in.o
 .rodata.mtd_id_parse.str1.1
                0x00000000808621e0       0x3c cmd/built-in.o
 .rodata.mtd_part_info.str1.1
                0x000000008086221c       0x43 cmd/built-in.o
                                         0x4c (size before relaxing)
 .rodata.mtdparts_init.str1.1
                0x000000008086225f      0x25b cmd/built-in.o
 .rodata.multipliers
                0x00000000808624ba       0x10 drivers/built-in.o
 .rodata.musb_create_int_queue.str1.1
                0x00000000808624ca       0x83 drivers/usb/musb-new/built-in.o
 .rodata.musb_driver_name
                0x000000008086254d        0xa drivers/usb/musb-new/built-in.o
                0x000000008086254d                musb_driver_name
 .rodata.musb_g_ep0_irq.str1.1
                0x0000000080862557       0x70 drivers/usb/musb-new/built-in.o
                                         0x78 (size before relaxing)
 .rodata.musb_h_ep0_irq.str1.1
                0x00000000808625c7       0x34 drivers/usb/musb-new/built-in.o
 .rodata.musb_h_tx_flush_fifo.str1.1
                0x00000000808625fb       0x2b drivers/usb/musb-new/built-in.o
 .rodata.musb_host_rx.str1.1
                0x0000000080862626       0x2f drivers/usb/musb-new/built-in.o
 .rodata.musb_init_controller.str1.1
                0x0000000080862655       0x97 drivers/usb/musb-new/built-in.o
                                         0x9d (size before relaxing)
 .rodata.musb_lowlevel_init.str1.1
                0x00000000808626ec       0x1d drivers/usb/musb-new/built-in.o
 .rodata.musb_start_urb.str1.1
                0x0000000080862709       0x48 drivers/usb/musb-new/built-in.o
 .rodata.musb_test_packet
                0x0000000080862751       0x35 drivers/usb/musb-new/built-in.o
 .rodata.names.6210
                0x0000000080862786        0x6 lib/built-in.o
 .rodata.nand_block_op.part.0.str1.1
                0x000000008086278c       0x2b drivers/built-in.o
                                         0x36 (size before relaxing)
 .rodata.nand_ecc_precalc_table
                0x00000000808627b7      0x100 drivers/built-in.o
 .rodata.nand_erase_opts.str1.1
                0x00000000808628b7      0x136 drivers/built-in.o
                                        0x138 (size before relaxing)
 .rodata.nand_fill_oob.str1.1
                0x00000000808629ed       0x21 drivers/built-in.o
                                         0x3a (size before relaxing)
 .rodata.nand_get_flash_type.str1.1
                0x0000000080862a0e       0x10 drivers/built-in.o
 .rodata.nand_load_image.str1.1
                0x0000000080862a1e       0xa2 cmd/built-in.o
 .rodata.nand_print_and_set_info.constprop.0.str1.1
                0x0000000080862ac0       0xc8 cmd/built-in.o
                                         0xd4 (size before relaxing)
 .rodata.nand_read_skip_bad.str1.1
                0x0000000080862b88       0xc2 drivers/built-in.o
 .rodata.nand_register.str1.1
                0x0000000080862c4a        0x7 drivers/built-in.o
 .rodata.nand_scan_ident.str1.1
                0x0000000080862c51       0x90 drivers/built-in.o
                                         0x95 (size before relaxing)
 .rodata.nand_wait.str1.1
                0x0000000080862ce1       0x18 drivers/built-in.o
 .rodata.nand_write_skip_bad.str1.1
                0x0000000080862cf9       0xc0 drivers/built-in.o
 .rodata.net_auto_load.str1.1
                0x0000000080862db9       0x45 net/built-in.o
 .rodata.net_bcast_ethaddr
                0x0000000080862dfe        0x6 net/built-in.o
                0x0000000080862dfe                net_bcast_ethaddr
 .rodata.net_check_prereq.str1.1
                0x0000000080862e04       0xbc net/built-in.o
 .rodata.net_loop.str1.1
                0x0000000080862ec0       0x29 net/built-in.o
                                         0x3b (size before relaxing)
 .rodata.net_null_ethaddr
                0x0000000080862ee9        0x6 net/built-in.o
                0x0000000080862ee9                net_null_ethaddr
 .rodata.net_process_received_packet.str1.1
                0x0000000080862eef       0x1d net/built-in.o
 .rodata.net_start_again.str1.1
                0x0000000080862f0c        0x5 net/built-in.o
                                         0x15 (size before relaxing)
 .rodata.netboot_common.str1.1
                0x0000000080862f11       0x1d cmd/built-in.o
                                         0x5a (size before relaxing)
 .rodata.nfs_handler.str1.1
                0x0000000080862f2e       0x56 net/built-in.o
 .rodata.nfs_lookup_reply.str1.1
                0x0000000080862f84       0x25 net/built-in.o
                                         0x27 (size before relaxing)
 .rodata.nfs_read_reply.str1.1
                0x0000000080862fa9        0x4 net/built-in.o
 .rodata.nfs_readlink_reply.str1.1
                0x0000000080862fad        0x2 net/built-in.o
 .rodata.nfs_start.str1.1
                0x0000000080862fad      0x104 net/built-in.o
                                        0x105 (size before relaxing)
 .rodata.nfs_timeout_handler.str1.1
                0x00000000808630b1       0x2a net/built-in.o
 .rodata.normalize_longname.str1.1
                0x00000000808630db        0xa fs/built-in.o
 .rodata.ns16550_serial_ofdata_to_platdata.str1.1
                0x00000000808630e5       0x22 drivers/serial/built-in.o
                                         0x32 (size before relaxing)
 .rodata.oem_format.str1.1
                0x0000000080863107       0x30 drivers/built-in.o
                                         0x3c (size before relaxing)
 .rodata.ofnode_get_addr_size_index.str1.1
                0x0000000080863137        0x4 drivers/built-in.o
 .rodata.ofnode_pre_reloc.str1.1
                0x0000000080863137       0x45 drivers/built-in.o
 .rodata.ofnode_read_chosen_prop.str1.1
                0x000000008086317c        0x8 drivers/built-in.o
 .rodata.omap3_spi_ofdata_to_platdata.str1.1
                0x000000008086317c       0x17 drivers/spi/built-in.o
 .rodata.omap3_spi_xfer.str1.1
                0x0000000080863193       0x63 drivers/spi/built-in.o
 .rodata.omap_correct_data_bch.str1.1
                0x00000000808631f6       0x28 drivers/built-in.o
 .rodata.omap_gpio_probe.str1.1
                0x000000008086321e        0xa drivers/gpio/built-in.o
 .rodata.omap_hsmmc_ofdata_to_platdata.str1.1
                0x0000000080863228        0xd drivers/built-in.o
                                         0x16 (size before relaxing)
 .rodata.omap_hsmmc_probe.str1.1
                0x0000000080863235       0x65 drivers/built-in.o
 .rodata.omap_hsmmc_send_cmd.str1.1
                0x000000008086329a       0x70 drivers/built-in.o
 .rodata.omap_hsmmc_set_ios.str1.1
                0x000000008086330a       0x1f drivers/built-in.o
 .rodata.omap_i2c_ofdata_to_platdata.str1.1
                0x0000000080863329       0x10 drivers/i2c/built-in.o
 .rodata.omap_i2c_probe.str1.1
                0x0000000080863329       0x45 drivers/i2c/built-in.o
 .rodata.omap_i2c_probe_chip.str1.1
                0x000000008086336e       0x3e drivers/i2c/built-in.o
 .rodata.omap_i2c_xfer.str1.1
                0x00000000808633ac      0x191 drivers/i2c/built-in.o
 .rodata.omap_serial_ofdata_to_platdata.str1.1
                0x000000008086353d       0x1b drivers/serial/built-in.o
 .rodata.on_baudrate.str1.1
                0x000000008086353d       0x42 drivers/serial/built-in.o
                                         0x74 (size before relaxing)
 .rodata.on_callbacks.str1.1
                0x000000008086357f      0x105 env/built-in.o
 .rodata.on_console.str1.1
                0x0000000080863684       0x10 common/built-in.o
                                         0x27 (size before relaxing)
 .rodata.on_flags.str1.1
                0x0000000080863684       0x50 env/built-in.o
 .rodata.overlay_adjust_node_phandles.str1.1
                0x00000000808636d4       0x16 lib/built-in.o
 .rodata.overlay_get_target.str1.1
                0x00000000808636d4       0x13 lib/built-in.o
 .rodata.parse_integer.str1.1
                0x00000000808636e7       0x17 cmd/built-in.o
 .rodata.parse_pxefile_top.str1.1
                0x00000000808636fe       0x89 cmd/built-in.o
                                         0x8b (size before relaxing)
 .rodata.parse_sliteral.str1.1
                0x0000000080863787       0x1f cmd/built-in.o
 .rodata.parse_stream_outer.str1.1
                0x00000000808637a6       0x4d common/built-in.o
 .rodata.parse_string_outer.str1.1
                0x00000000808637f3        0x2 common/built-in.o
 .rodata.part_get_info_by_name_or_alias.str1.1
                0x00000000808637f3       0x1a drivers/built-in.o
 .rodata.part_get_info_efi.str1.1
                0x000000008086380d        0xa disk/built-in.o
 .rodata.part_get_info_extended.str1.1
                0x000000008086380d       0x8b disk/built-in.o
                                         0x92 (size before relaxing)
 .rodata.part_get_info_iso_verb.str1.1
                0x0000000080863898      0x1bf disk/built-in.o
                                        0x1c6 (size before relaxing)
 .rodata.part_get_info_whole_disk.str1.1
                0x0000000080863a57        0xb disk/built-in.o
                                         0x12 (size before relaxing)
 .rodata.part_print.str1.1
                0x0000000080863a62       0x97 disk/built-in.o
                                         0xa0 (size before relaxing)
 .rodata.part_print_dos.str1.1
                0x0000000080863af9       0x2a disk/built-in.o
 .rodata.part_print_efi.str1.1
                0x0000000080863b23       0x8d disk/built-in.o
 .rodata.part_print_iso.str1.1
                0x0000000080863bb0       0x68 disk/built-in.o
 .rodata.part_set_generic_name.str1.1
                0x0000000080863c18        0x7 disk/built-in.o
                                          0xa (size before relaxing)
 .rodata.part_sort_add.str1.1
                0x0000000080863c1f       0x29 cmd/built-in.o
 .rodata.part_validate.str1.1
                0x0000000080863c48      0x110 cmd/built-in.o
 .rodata.phy_connect.str1.1
                0x0000000080863d58       0x23 drivers/net/phy/built-in.o
 .rodata.phy_connect_dev.str1.1
                0x0000000080863d7b       0x2f drivers/net/phy/built-in.o
 .rodata.phy_reset.str1.1
                0x0000000080863daa       0x15 drivers/net/phy/built-in.o
 .rodata.ping_start.str1.1
                0x0000000080863dbf       0x11 net/built-in.o
 .rodata.print_buffer.str1.1
                0x0000000080863dbf        0x7 lib/built-in.o
                                         0x18 (size before relaxing)
 .rodata.print_cpuinfo.str1.1
                0x0000000080863dc6       0x3b arch/arm/mach-omap2/built-in.o
                                         0x3d (size before relaxing)
 .rodata.print_data.part.0.str1.1
                0x0000000080863e01       0x34 cmd/built-in.o
                                         0x3f (size before relaxing)
 .rodata.print_freq.str1.1
                0x0000000080863e35       0x1b lib/built-in.o
 .rodata.print_jrnl_status.str1.1
                0x0000000080863e50       0x34 fs/built-in.o
 .rodata.print_mmc_devices.str1.1
                0x0000000080863e84        0xd drivers/built-in.o
                                         0x1c (size before relaxing)
 .rodata.print_mmcinfo.str1.1
                0x0000000080863e91      0x1d1 cmd/built-in.o
                                        0x1ea (size before relaxing)
 .rodata.print_partition_extended.str1.1
                0x0000000080864062       0x32 disk/built-in.o
                                         0x33 (size before relaxing)
 .rodata.print_size.str1.1
                0x0000000080864094       0x15 lib/built-in.o
 .rodata.product
                0x00000000808640a9       0x14 drivers/usb/gadget/built-in.o
 .rodata.put_ext4.str1.1
                0x00000000808640bd       0x42 fs/built-in.o
 .rodata.quantifier.str1.1
                0x00000000808640ff       0x17 lib/built-in.o
 .rodata.raw_part_get_info_by_name.isra.0.str1.1
                0x0000000080864116       0x18 drivers/built-in.o
                                         0x22 (size before relaxing)
 .rodata.read_allocated_block.str1.1
                0x000000008086412e      0x240 fs/built-in.o
 .rodata.read_bootsectandvi.str1.1
                0x000000008086436e       0x1b fs/built-in.o
 .rodata.realloc.str1.1
                0x0000000080864389       0x25 common/built-in.o
 .rodata.reboot_bootloader.str1.1
                0x00000000808643ae       0x17 drivers/built-in.o
 .rodata.reboot_fastbootd.str1.1
                0x00000000808643c5       0x19 drivers/built-in.o
 .rodata.reboot_recovery.str1.1
                0x00000000808643de       0x19 drivers/built-in.o
 .rodata.reg_map_ip_v1
                0x00000000808643f7       0x11 drivers/i2c/built-in.o
 .rodata.reg_map_ip_v2
                0x0000000080864408       0x16 drivers/i2c/built-in.o
 .rodata.regex_callback.str1.1
                0x000000008086441e       0x20 env/built-in.o
 .rodata.request_and_set_gpio.str1.1
                0x000000008086443e       0x3b board/ti/am335x/built-in.o
 .rodata.rndis_control_ack_complete.str1.1
                0x0000000080864479       0x17 drivers/usb/gadget/built-in.o
 .rodata.rndis_control_intf
                0x0000000080864490        0x9 drivers/usb/gadget/built-in.o
 .rodata.rndis_data_intf
                0x0000000080864499        0x9 drivers/usb/gadget/built-in.o
 .rodata.rtc_days_in_month
                0x00000000808644a2        0xc drivers/built-in.o
 .rodata.run_list_real.str1.1
                0x00000000808644ae       0x45 common/built-in.o
                                         0x4b (size before relaxing)
 .rodata.rx_handler_command.str1.1
                0x00000000808644f3       0x10 drivers/usb/gadget/built-in.o
                                         0x1a (size before relaxing)
 .rodata.rx_handler_dl_image.str1.1
                0x0000000080864503       0x10 drivers/usb/gadget/built-in.o
 .rodata.search_dir.str1.1
                0x0000000080864513       0x1b fs/built-in.o
 .rodata.serial_init.str1.1
                0x000000008086452e       0x23 drivers/serial/built-in.o
                                         0x2b (size before relaxing)
 .rodata.set_board_info_env.str1.1
                0x0000000080864551       0x15 board/ti/common/built-in.o
                                         0x2a (size before relaxing)
 .rodata.set_contents.str1.1
                0x0000000080864566       0x3b fs/built-in.o
 .rodata.set_dev.str1.1
                0x00000000808645a1        0xe cmd/built-in.o
                                         0x29 (size before relaxing)
 .rodata.set_gpt_info.isra.0.constprop.0.str1.1
                0x00000000808645af       0x8e cmd/built-in.o
                                         0xb0 (size before relaxing)
 .rodata.set_local_var.str1.1
                0x000000008086463d       0x16 common/built-in.o
 .rodata.set_working_fdt_addr.str1.1
                0x0000000080864653        0x8 cmd/built-in.o
 .rodata.setup_clock_synthesizer.str1.1
                0x000000008086465b       0x63 arch/arm/mach-omap2/built-in.o
 .rodata.sha1_padding
                0x00000000808646be       0x40 lib/built-in.o
 .rodata.show_board_info.str1.1
                0x00000000808646fe       0x11 common/built-in.o
 .rodata.show_bus.str1.1
                0x000000008086470f       0x3f cmd/built-in.o
                                         0x41 (size before relaxing)
 .rodata.show_devices.str1.1
                0x000000008086474e       0x33 drivers/built-in.o
                                         0x3c (size before relaxing)
 .rodata.show_dram_config.str1.1
                0x0000000080864781        0x1 common/built-in.o
 .rodata.show_regs.str1.1
                0x0000000080864781      0x119 arch/arm/lib/built-in.o
                                        0x145 (size before relaxing)
 .rodata.simple_bus_post_bind.str1.1
                0x000000008086489a        0x7 drivers/built-in.o
 .rodata.smbios_add_string.str1.1
                0x000000008086489a        0x8 lib/built-in.o
 .rodata.smbios_write_type0.str1.1
                0x000000008086489a        0xb lib/built-in.o
                                         0x2c (size before relaxing)
 .rodata.smbios_write_type1.str1.1
                0x00000000808648a5        0xb lib/built-in.o
                                         0x22 (size before relaxing)
 .rodata.smbios_write_type2.str1.1
                0x00000000808648b0        0xa lib/built-in.o
                                         0x12 (size before relaxing)
 .rodata.smbios_write_type3.str1.1
                0x00000000808648ba        0xd lib/built-in.o
 .rodata.spi_flash_probe_bus_cs.str1.1
                0x00000000808648c7       0x10 drivers/built-in.o
                                         0x1e (size before relaxing)
 .rodata.spi_flash_std_probe.str1.1
                0x00000000808648d7       0x1c drivers/built-in.o
 .rodata.spi_get_bus_and_cs.str1.1
                0x00000000808648f3       0x19 drivers/spi/built-in.o
 .rodata.spi_nor_3to4_erase.8943
                0x000000008086490c        0x6 drivers/built-in.o
 .rodata.spi_nor_3to4_program.8939
                0x0000000080864912        0xa drivers/built-in.o
 .rodata.spi_nor_3to4_read.8935
                0x000000008086491c       0x16 drivers/built-in.o
 .rodata.spi_nor_scan.str1.1
                0x0000000080864932       0x37 drivers/built-in.o
                                         0x3a (size before relaxing)
 .rodata.spi_post_probe.str1.1
                0x0000000080864969       0x12 drivers/spi/built-in.o
 .rodata.spi_slave_ofdata_to_platdata.str1.1
                0x000000008086497b       0xa0 drivers/spi/built-in.o
                                         0xa4 (size before relaxing)
 .rodata.split_filename.str1.1
                0x0000000080864a1b        0x2 fs/built-in.o
 .rodata.state_dfu_manifest.str1.1
                0x0000000080864a1b       0x24 drivers/usb/gadget/built-in.o
 .rodata.stdio_add_devices.str1.1
                0x0000000080864a3f        0x7 common/built-in.o
 .rodata.store_char_in_data.str1.1
                0x0000000080864a3f       0x1f lib/built-in.o
 .rodata.str1.1
                0x0000000080864a5e       0xeb arch/arm/lib/built-in.o
 .rodata.str1.1
                0x0000000080864b49       0x1e arch/arm/mach-omap2/built-in.o
                                         0x2c (size before relaxing)
 .rodata.str1.1
                0x0000000080864b67     0x41d5 cmd/built-in.o
                                       0x4576 (size before relaxing)
 .rodata.str1.1
                0x0000000080868d3c      0x906 common/built-in.o
                                        0x98e (size before relaxing)
 .rodata.str1.1
                0x0000000080869642       0x1f disk/built-in.o
                                         0x22 (size before relaxing)
 .rodata.str1.1
                0x0000000080869661      0xb52 drivers/built-in.o
                                        0xbac (size before relaxing)
 .rodata.str1.1
                0x000000008086a1b3       0x41 drivers/gpio/built-in.o
                                         0x5b (size before relaxing)
 .rodata.str1.1
                0x000000008086a1f4       0x38 drivers/i2c/built-in.o
 .rodata.str1.1
                0x000000008086a22c       0x20 drivers/net/built-in.o
 .rodata.str1.1
                0x000000008086a24c      0x107 drivers/net/phy/built-in.o
                                        0x12b (size before relaxing)
 .rodata.str1.1
                0x000000008086a353       0xca drivers/serial/built-in.o
                                         0xda (size before relaxing)
 .rodata.str1.1
                0x000000008086a41d       0x34 drivers/spi/built-in.o
                                         0x48 (size before relaxing)
 .rodata.str1.1
                0x000000008086a451       0x4a drivers/usb/common/built-in.o
                                         0x62 (size before relaxing)
 .rodata.str1.1
                0x000000008086a49b       0x2b drivers/usb/gadget/built-in.o
                                         0x51 (size before relaxing)
 .rodata.str1.1
                0x000000008086a4c6        0x4 drivers/usb/gadget/udc/built-in.o
 .rodata.str1.1
                0x000000008086a4c6       0x10 drivers/usb/host/built-in.o
                                         0x14 (size before relaxing)
 .rodata.str1.1
                0x000000008086a4d6       0x3d drivers/usb/musb-new/built-in.o
                                         0x4a (size before relaxing)
 .rodata.str1.1
                0x000000008086a513       0xb2 env/built-in.o
                                         0x14 (size before relaxing)
 .rodata.str1.1
                0x000000008086a513        0xc fs/built-in.o
                                         0x15 (size before relaxing)
 .rodata.str1.1
                0x000000008086a51f      0x4be lib/built-in.o
                                        0x4e2 (size before relaxing)
 .rodata.str1.1
                0x000000008086a9dd        0x6 net/built-in.o
                                         0x35 (size before relaxing)
 .rodata.string.str1.1
                0x000000008086a9e3        0x7 lib/built-in.o
 .rodata.syntax_err.str1.1
                0x000000008086a9ea        0xe common/built-in.o
 .rodata.tab_seq
                0x000000008086a9f8        0x9 common/built-in.o
 .rodata.test_block_type.str1.1
                0x000000008086aa01        0xa disk/built-in.o
 .rodata.tftp_handler.str1.1
                0x000000008086aa0b       0xcd net/built-in.o
                                         0xe6 (size before relaxing)
 .rodata.tftp_send.str1.1
                0x000000008086aad8       0x61 net/built-in.o
                                         0x6d (size before relaxing)
 .rodata.tftp_start.str1.1
                0x000000008086ab39       0xf7 net/built-in.o
                                        0x190 (size before relaxing)
 .rodata.tftp_timeout_handler.str1.1
                0x000000008086ac30       0x2a net/built-in.o
                                         0x2d (size before relaxing)
 .rodata.ti_cm_get_macid.str1.1
                0x000000008086ac5a       0x19 drivers/net/built-in.o
 .rodata.ti_cm_get_macid_addr.str1.1
                0x000000008086ac73       0x48 drivers/net/built-in.o
 .rodata.ti_musb_ofdata_to_platdata.str1.1
                0x000000008086acbb       0x50 drivers/usb/musb-new/built-in.o
                                         0x59 (size before relaxing)
 .rodata.ti_musb_wrapper_bind.str1.1
                0x000000008086ad0b       0x25 drivers/usb/musb-new/built-in.o
 .rodata.timer_pre_probe.str1.1
                0x000000008086ad30       0x10 drivers/built-in.o
 .rodata.try_load_entry.str1.1
                0x000000008086ad30       0x5d lib/built-in.o
 .rodata.u_boot_hush_start.str1.1
                0x000000008086ad8d       0x12 common/built-in.o
 .rodata.uclass_resolve_seq.str1.1
                0x000000008086ad9f       0x27 drivers/built-in.o
 .rodata.union_desc
                0x000000008086adc6        0x5 drivers/usb/gadget/built-in.o
 .rodata.update_tftp.str1.1
                0x000000008086adcb      0x13f common/built-in.o
                                        0x155 (size before relaxing)
 .rodata.us_direction
                0x000000008086af0a       0x20 common/built-in.o
 .rodata.usb_child_post_bind.str1.1
                0x000000008086af2a       0x25 drivers/usb/host/built-in.o
 .rodata.usb_composite_register.str1.1
                0x000000008086af4f        0xa drivers/usb/gadget/built-in.o
 .rodata.usb_display_class_sub.str1.1
                0x000000008086af59       0xb6 cmd/built-in.o
                                         0xbc (size before relaxing)
 .rodata.usb_display_config.str1.1
                0x000000008086b00f      0x105 cmd/built-in.o
                                        0x118 (size before relaxing)
 .rodata.usb_display_desc.str1.1
                0x000000008086b114       0xac cmd/built-in.o
                                         0xae (size before relaxing)
 .rodata.usb_display_string.str1.1
                0x000000008086b1c0        0xd cmd/built-in.o
 .rodata.usb_eth_probe.str1.1
                0x000000008086b1cd       0x21 drivers/usb/gadget/built-in.o
 .rodata.usb_eth_send.str1.1
                0x000000008086b1ee       0x29 drivers/usb/gadget/built-in.o
 .rodata.usb_eth_start.str1.1
                0x000000008086b217       0x36 drivers/usb/gadget/built-in.o
 .rodata.usb_ether_init.str1.1
                0x000000008086b24d        0xa drivers/usb/gadget/built-in.o
 .rodata.usb_find_usb2_hub_address_port.str1.1
                0x000000008086b257       0x36 common/built-in.o
 .rodata.usb_gadget_probe_driver.str1.1
                0x000000008086b28d       0x20 drivers/usb/gadget/udc/built-in.o
 .rodata.usb_get_class_desc.str1.1
                0x000000008086b2ad       0x64 cmd/built-in.o
                                         0x65 (size before relaxing)
 .rodata.usb_get_configuration_len.str1.1
                0x000000008086b311       0x58 common/built-in.o
 .rodata.usb_get_dr_mode.str1.1
                0x000000008086b369        0x8 drivers/usb/common/built-in.o
 .rodata.usb_get_phy_mode.str1.1
                0x000000008086b371       0x18 drivers/usb/common/built-in.o
                                         0x19 (size before relaxing)
 .rodata.usb_hub_configure.str1.1
                0x000000008086b389       0x5f common/built-in.o
 .rodata.usb_hub_port_connect_change.str1.1
                0x000000008086b3e8       0x18 common/built-in.o
 .rodata.usb_init.str1.1
                0x000000008086b400       0x54 drivers/usb/host/built-in.o
 .rodata.usb_mass_storage_probe.str1.1
                0x000000008086b454       0x16 common/built-in.o
 .rodata.usb_scan_bus.isra.0.str1.1
                0x000000008086b46a       0x4d drivers/usb/host/built-in.o
                                         0x5f (size before relaxing)
 .rodata.usb_scan_device.str1.1
                0x000000008086b4b7       0x2a drivers/usb/host/built-in.o
                                         0x2e (size before relaxing)
 .rodata.usb_select_config.str1.1
                0x000000008086b4e1      0x220 common/built-in.o
 .rodata.usb_set_interface.str1.1
                0x000000008086b701       0x1f common/built-in.o
 .rodata.usb_setup_descriptor.str1.1
                0x000000008086b720       0x1d common/built-in.o
 .rodata.usb_setup_device.str1.1
                0x000000008086b73d       0x68 common/built-in.o
 .rodata.usb_show_tree_graph.str1.1
                0x000000008086b7a5       0x2b cmd/built-in.o
                                         0x3a (size before relaxing)
 .rodata.usb_stor_CBI_get_status.isra.0.str1.1
                0x000000008086b7d0       0x1f common/built-in.o
 .rodata.usb_stor_CB_transport.str1.1
                0x000000008086b7ef       0x6e common/built-in.o
 .rodata.usb_stor_get_info.str1.1
                0x000000008086b85d       0x5d common/built-in.o
 .rodata.usb_stor_info.str1.1
                0x000000008086b8ba       0x32 common/built-in.o
                                         0x40 (size before relaxing)
 .rodata.usb_stor_scan.str1.1
                0x000000008086b8ec       0x48 common/built-in.o
 .rodata.usb_storage_probe.str1.1
                0x000000008086b934       0x5c common/built-in.o
 .rodata.uuid_bin_to_str.str1.1
                0x000000008086b990        0xa lib/built-in.o
 .rodata.valid_elf_image.str1.1
                0x000000008086b990       0x52 lib/built-in.o
 .rodata.validate_gpt_entries.str1.1
                0x000000008086b9e2       0x40 disk/built-in.o
 .rodata.validate_gpt_header.str1.1
                0x000000008086ba22       0xe1 disk/built-in.o
 .rodata.var_complete.str1.1
                0x000000008086bb03        0x1 common/built-in.o
 .rodata.verify_bbt_descr.str1.1
                0x000000008086bb03       0x20 drivers/built-in.o
                                         0x39 (size before relaxing)
 .rodata.version_string
                0x000000008086bb23       0x40 cmd/built-in.o
                0x000000008086bb23                version_string
 .rodata.wait_for_bb.str1.1
                0x000000008086bb63       0x1e drivers/i2c/built-in.o
 .rodata.wait_for_event.str1.1
                0x000000008086bb81       0x37 drivers/i2c/built-in.o
 .rodata.write_gpt_table.str1.1
                0x000000008086bbb8       0x34 disk/built-in.o
 .rodata.write_mbr_and_gpt_partitions.str1.1
                0x000000008086bbec       0x78 disk/built-in.o
                                         0x7c (size before relaxing)
 .rodata.write_mbr_partition.str1.1
                0x000000008086bc64       0x2d disk/built-in.o
 .rodata.write_smbios_table.str1.1
                0x000000008086bc91       0x12 lib/built-in.o
 .rodata.write_sparse_image.str1.1
                0x000000008086bca3      0x1f9 lib/built-in.o
 .rodata.xmalloc.str1.1
                0x000000008086be9c       0x1e common/built-in.o
 .rodata.xyzModem_error.str1.1
                0x000000008086beba        0xe common/built-in.o
 .rodata.xyzModem_stream_close.str1.1
                0x000000008086bec8       0x47 common/built-in.o
                                         0x4b (size before relaxing)
 .rodata.xyzModem_stream_open.str1.1
                0x000000008086bf0f        0x2 common/built-in.o
 .rodata.zunzip.str1.1
                0x000000008086bf0f       0x47 lib/built-in.o
                0x000000008086bf58                . = ALIGN (0x4)

.data           0x000000008086bf58     0x8410
 *(.data*)
 .data.rel.ro   0x000000008086bf58        0x0 arch/arm/cpu/armv7/start.o
 .data.cdce913_data
                0x000000008086bf58       0x14 board/ti/am335x/built-in.o
 .data.prueth_is_mii
                0x000000008086bf6c        0x1 board/ti/am335x/built-in.o
 *fill*         0x000000008086bf6d        0x3 
 .data.cpu_revs
                0x000000008086bf70        0xc arch/arm/mach-omap2/built-in.o
 .data.cpu_revs_am43xx
                0x000000008086bf7c        0xc arch/arm/mach-omap2/built-in.o
 .data.ctrl     0x000000008086bf88        0x4 arch/arm/mach-omap2/built-in.o
                0x000000008086bf88                ctrl
 .data.gpmc_cfg
                0x000000008086bf8c        0x4 arch/arm/mach-omap2/built-in.o
                0x000000008086bf8c                gpmc_cfg
 .data.gpmc_cs0_flash
                0x000000008086bf90        0x1 arch/arm/mach-omap2/built-in.o
                0x000000008086bf90                gpmc_cs0_flash
 .data.bootm_help_text
                0x000000008086bf91      0x4d2 cmd/built-in.o
 *fill*         0x000000008086c463        0x1 
 .data.cmd_bootm_sub
                0x000000008086c464       0xfc cmd/built-in.o
 .data.source_help_text
                0x000000008086c560       0xac cmd/built-in.o
 .data.cmd_blkc_sub
                0x000000008086c60c       0x38 cmd/built-in.o
 .data.bootefi_help_text
                0x000000008086c644      0x18b cmd/built-in.o
 .data.bootz_help_text
                0x000000008086c7cf      0x208 cmd/built-in.o
 *fill*         0x000000008086c9d7        0x1 
 .data.test_commands
                0x000000008086c9d8       0xa8 cmd/built-in.o
 .data.fdt_help_text
                0x000000008086ca80      0x6e4 cmd/built-in.o
 .data.root.7551
                0x000000008086d164        0x2 cmd/built-in.o
 .data.tabs.7641
                0x000000008086d166       0x21 cmd/built-in.o
 *fill*         0x000000008086d187        0x1 
 .data.cmd_i2c_sub
                0x000000008086d188      0x1a4 cmd/built-in.o
 .data.i2c_dp_last_length
                0x000000008086d32c        0x4 cmd/built-in.o
 .data.i2c_help_text
                0x000000008086d330      0x3ed cmd/built-in.o
 *fill*         0x000000008086d71d        0x3 
 .data.do_echo  0x000000008086d720        0x4 cmd/built-in.o
 .data.dp_last_length
                0x000000008086d724        0x4 cmd/built-in.o
 .data.cmd_mmc  0x000000008086d728      0x118 cmd/built-in.o
 .data.curr_device
                0x000000008086d840        0x4 cmd/built-in.o
 .data.mtdparts_help_text
                0x000000008086d844      0x4de cmd/built-in.o
 .data.nand_help_text
                0x000000008086dd22      0x3ee cmd/built-in.o
 .data.cmd_pxe_sub
                0x000000008086e110       0x38 cmd/built-in.o
 .data.pxe_default_paths
                0x000000008086e148       0x14 cmd/built-in.o
                0x000000008086e148                pxe_default_paths
 .data.usb_stor_curr_dev
                0x000000008086e15c        0x4 cmd/built-in.o
 .data.fastboot_help_text
                0x000000008086e160       0xab cmd/built-in.o
 .data.imgextract_help_text
                0x000000008086e20b       0xb2 cmd/built-in.o
 *fill*         0x000000008086e2bd        0x3 
 .data.__compound_literal.0
                0x000000008086e2c0       0x20 cmd/built-in.o
 .data.__compound_literal.1
                0x000000008086e2e0       0x1c cmd/built-in.o
 .data.cmd_spl_export_sub
                0x000000008086e2fc       0x38 cmd/built-in.o
 .data.cmd_spl_sub
                0x000000008086e334       0x1c cmd/built-in.o
 .data.cmd_env_sub
                0x000000008086e350      0x134 cmd/built-in.o
 .data.env_help_text
                0x000000008086e484      0x296 cmd/built-in.o
 *fill*         0x000000008086e71a        0x2 
 .data.env_id   0x000000008086e71c        0x4 cmd/built-in.o
 .data.hash_algo
                0x000000008086e720       0x70 common/built-in.o
 .data.reserved_list
                0x000000008086e790       0x84 common/built-in.o
 .data.init_sequence_r
                0x000000008086e814       0xa4 common/built-in.o
 .data.of_busses
                0x000000008086e8b8       0x18 common/built-in.o
 .data.usb_scan_list
                0x000000008086e8d0        0x8 common/built-in.o
 .data.hist_cur
                0x000000008086e8d8        0x4 common/built-in.o
 .data.av_      0x000000008086e8dc      0x408 common/built-in.o
 .data.sbrk_base
                0x000000008086ece4        0x4 common/built-in.o
 .data.trim_threshold
                0x000000008086ece8        0x4 common/built-in.o
 .data.image_load_addr
                0x000000008086ecec        0x4 common/built-in.o
                0x000000008086ecec                image_load_addr
 .data.stdio_names
                0x000000008086ecf0        0xc common/built-in.o
                0x000000008086ecf0                stdio_names
 .data.root_info
                0x000000008086ecfc        0x8 drivers/built-in.o
 .data.dfu_list
                0x000000008086ed04        0x8 drivers/built-in.o
                0x000000008086ed04                dfu_list
 .data.nand_curr_device
                0x000000008086ed0c        0x4 drivers/built-in.o
                0x000000008086ed0c                nand_curr_device
 .data.bbt_main_descr
                0x000000008086ed10       0x24 drivers/built-in.o
 .data.bbt_main_no_oob_descr
                0x000000008086ed34       0x24 drivers/built-in.o
 .data.bbt_mirror_descr
                0x000000008086ed58       0x24 drivers/built-in.o
 .data.bbt_mirror_no_oob_descr
                0x000000008086ed7c       0x24 drivers/built-in.o
 .data.bbt_pattern
                0x000000008086eda0        0x4 drivers/built-in.o
 .data.mirror_pattern
                0x000000008086eda4        0x4 drivers/built-in.o
 .data.scan_ff_pattern
                0x000000008086eda8        0x2 drivers/built-in.o
 *fill*         0x000000008086edaa        0x2 
 .data.nand_flash_ids
                0x000000008086edac      0xd98 drivers/built-in.o
                0x000000008086edac                nand_flash_ids
 .data.nand_oob_128
                0x000000008086fb44      0xba8 drivers/built-in.o
 .data.nand_oob_16
                0x00000000808706ec      0xba8 drivers/built-in.o
 .data.nand_oob_64
                0x0000000080871294      0xba8 drivers/built-in.o
 .data.nand_oob_8
                0x0000000080871e3c      0xba8 drivers/built-in.o
 .data._stats   0x00000000808729e4       0x14 drivers/built-in.o
 .data.block_cache
                0x00000000808729f8        0x8 drivers/built-in.o
 .data.reset_period
                0x0000000080872a00        0x4 drivers/built-in.o
 .data.genphy_driver
                0x0000000080872a04       0x40 drivers/net/phy/built-in.o
 .data.phy_drivers
                0x0000000080872a44        0x8 drivers/net/phy/built-in.o
 .data.AR8021_driver
                0x0000000080872a4c       0x40 drivers/net/phy/built-in.o
 .data.AR8031_driver
                0x0000000080872a8c       0x40 drivers/net/phy/built-in.o
 .data.AR8035_driver
                0x0000000080872acc       0x40 drivers/net/phy/built-in.o
 .data.lan8700_driver
                0x0000000080872b0c       0x40 drivers/net/phy/built-in.o
 .data.lan8710_driver
                0x0000000080872b4c       0x40 drivers/net/phy/built-in.o
 .data.lan8740_driver
                0x0000000080872b8c       0x40 drivers/net/phy/built-in.o
 .data.lan8741_driver
                0x0000000080872bcc       0x40 drivers/net/phy/built-in.o
 .data.lan8742_driver
                0x0000000080872c0c       0x40 drivers/net/phy/built-in.o
 .data.lan911x_driver
                0x0000000080872c4c       0x40 drivers/net/phy/built-in.o
 .data.omap4_pdata
                0x0000000080872c8c        0x4 drivers/spi/built-in.o
 .data.composite_driver
                0x0000000080872c90       0x24 drivers/usb/gadget/built-in.o
 .data.device_desc
                0x0000000080872cb4       0x24 drivers/usb/gadget/built-in.o
 .data.g_dnl_composite_strings
                0x0000000080872cd8        0x8 drivers/usb/gadget/built-in.o
 .data.g_dnl_driver
                0x0000000080872ce0       0x20 drivers/usb/gadget/built-in.o
 .data.g_dnl_string_defs
                0x0000000080872d00       0x20 drivers/usb/gadget/built-in.o
 .data.g_dnl_string_tab
                0x0000000080872d20        0x8 drivers/usb/gadget/built-in.o
 .data.dfu_generic_strings
                0x0000000080872d28        0x8 drivers/usb/gadget/built-in.o
 .data.dfu_intf_runtime
                0x0000000080872d30        0x9 drivers/usb/gadget/built-in.o
 *fill*         0x0000000080872d39        0x3 
 .data.dfu_runtime_descs
                0x0000000080872d3c        0x8 drivers/usb/gadget/built-in.o
 .data.dfu_strings
                0x0000000080872d44        0x8 drivers/usb/gadget/built-in.o
 .data.strings_dfu_generic
                0x0000000080872d4c       0x10 drivers/usb/gadget/built-in.o
 .data.stringtab_dfu
                0x0000000080872d5c        0x8 drivers/usb/gadget/built-in.o
 .data.stringtab_dfu_generic
                0x0000000080872d64        0x8 drivers/usb/gadget/built-in.o
 .data.fastboot_string_defs
                0x0000000080872d6c       0x10 drivers/usb/gadget/built-in.o
 .data.fastboot_strings
                0x0000000080872d7c        0x8 drivers/usb/gadget/built-in.o
 .data.fb_fs_function
                0x0000000080872d84        0xc drivers/usb/gadget/built-in.o
 .data.fb_hs_function
                0x0000000080872d90       0x10 drivers/usb/gadget/built-in.o
 .data.fs_ep_in
                0x0000000080872da0        0x9 drivers/usb/gadget/built-in.o
 .data.fs_ep_out
                0x0000000080872da9        0x9 drivers/usb/gadget/built-in.o
 .data.hs_ep_in
                0x0000000080872db2        0x9 drivers/usb/gadget/built-in.o
 .data.hs_ep_out
                0x0000000080872dbb        0x9 drivers/usb/gadget/built-in.o
 .data.interface_desc
                0x0000000080872dc4        0x9 drivers/usb/gadget/built-in.o
 *fill*         0x0000000080872dcd        0x3 
 .data.stringtab_fastboot
                0x0000000080872dd0        0x8 drivers/usb/gadget/built-in.o
 .data.dev_qualifier
                0x0000000080872dd8        0xa drivers/usb/gadget/built-in.o
 .data.eth_config
                0x0000000080872de2        0x9 drivers/usb/gadget/built-in.o
 *fill*         0x0000000080872deb        0x1 
 .data.fs_eth_function
                0x0000000080872dec       0x2c drivers/usb/gadget/built-in.o
 .data.fs_rndis_function
                0x0000000080872e18       0x2c drivers/usb/gadget/built-in.o
 .data.fs_sink_desc
                0x0000000080872e44        0x9 drivers/usb/gadget/built-in.o
 .data.fs_source_desc
                0x0000000080872e4d        0x9 drivers/usb/gadget/built-in.o
 .data.fs_status_desc
                0x0000000080872e56        0x9 drivers/usb/gadget/built-in.o
 *fill*         0x0000000080872e5f        0x1 
 .data.hs_eth_function
                0x0000000080872e60       0x2c drivers/usb/gadget/built-in.o
 .data.hs_rndis_function
                0x0000000080872e8c       0x2c drivers/usb/gadget/built-in.o
 .data.hs_sink_desc
                0x0000000080872eb8        0x9 drivers/usb/gadget/built-in.o
 .data.hs_source_desc
                0x0000000080872ec1        0x9 drivers/usb/gadget/built-in.o
 .data.hs_status_desc
                0x0000000080872eca        0x9 drivers/usb/gadget/built-in.o
 *fill*         0x0000000080872ed3        0x1 
 .data.l_priv   0x0000000080872ed4        0x4 drivers/usb/gadget/built-in.o
                0x0000000080872ed4                l_priv
 .data.otg_descriptor
                0x0000000080872ed8        0x3 drivers/usb/gadget/built-in.o
 .data.product_desc
                0x0000000080872edb       0x28 drivers/usb/gadget/built-in.o
 .data.rndis_config
                0x0000000080872f03        0x9 drivers/usb/gadget/built-in.o
 .data.strings  0x0000000080872f0c       0x40 drivers/usb/gadget/built-in.o
 .data.stringtab
                0x0000000080872f4c        0x8 drivers/usb/gadget/built-in.o
 .data.udc_list
                0x0000000080872f54        0x8 drivers/usb/gadget/udc/built-in.o
 .data.ep0_cfg  0x0000000080872f5c        0x6 drivers/usb/musb-new/built-in.o
 .data.fifo_mode
                0x0000000080872f62        0x2 drivers/usb/musb-new/built-in.o
 .data.mode_0_cfg
                0x0000000080872f64       0x1e drivers/usb/musb-new/built-in.o
 .data.mode_1_cfg
                0x0000000080872f82       0x1e drivers/usb/musb-new/built-in.o
 .data.mode_2_cfg
                0x0000000080872fa0       0x24 drivers/usb/musb-new/built-in.o
 .data.mode_3_cfg
                0x0000000080872fc4       0x24 drivers/usb/musb-new/built-in.o
 .data.mode_4_cfg
                0x0000000080872fe8       0xa2 drivers/usb/musb-new/built-in.o
 .data.mode_5_cfg
                0x000000008087308a       0xa2 drivers/usb/musb-new/built-in.o
 .data.musb_usb_ops
                0x000000008087312c       0x2c drivers/usb/musb-new/built-in.o
                0x000000008087312c                musb_usb_ops
 .data.musb_dsps_ops
                0x0000000080873158       0x2c drivers/usb/musb-new/built-in.o
                0x0000000080873158                musb_dsps_ops
 .data.env_htab
                0x0000000080873184       0x10 env/built-in.o
                0x0000000080873184                env_htab
 .data.first_call
                0x0000000080873194        0x8 env/built-in.o
 .data.fstypes  0x000000008087319c       0xcc fs/built-in.o
 .data.ext4fs_indir1_blkno
                0x0000000080873268        0x4 fs/built-in.o
                0x0000000080873268                ext4fs_indir1_blkno
 .data.ext4fs_indir2_blkno
                0x000000008087326c        0x4 fs/built-in.o
                0x000000008087326c                ext4fs_indir2_blkno
 .data.ext4fs_indir3_blkno
                0x0000000080873270        0x4 fs/built-in.o
                0x0000000080873270                ext4fs_indir3_blkno
 .data.prev_bg_bitmap_index.7752
                0x0000000080873274        0x4 fs/built-in.o
 .data.prev_inode_bitmap_index.7776
                0x0000000080873278        0x4 fs/built-in.o
 .data.prev_bg_bmap_idx.7430
                0x000000008087327c        0x4 fs/built-in.o
 .data.prev_bg_bmap_idx.7445
                0x0000000080873280        0x4 fs/built-in.o
 .data.prev_bg_bmap_idx.7467
                0x0000000080873284        0x4 fs/built-in.o
 .data.prev_bg_bmap_idx.7502
                0x0000000080873288        0x4 fs/built-in.o
 .data.first_node
                0x000000008087328c        0x4 fs/built-in.o
 .data.efi_boot_services
                0x0000000080873290       0xc8 lib/built-in.o
 .data.efi_event_queue
                0x0000000080873358        0x8 lib/built-in.o
                0x0000000080873358                efi_event_queue
 .data.efi_obj_list
                0x0000000080873360        0x8 lib/built-in.o
                0x0000000080873360                efi_obj_list
 .data.efi_register_notify_events
                0x0000000080873368        0x8 lib/built-in.o
                0x0000000080873368                efi_register_notify_events
 .data.efi_tpl  0x0000000080873370        0x4 lib/built-in.o
 .data.entry_count
                0x0000000080873374        0x4 lib/built-in.o
 .data.timers_enabled
                0x0000000080873378        0x1 lib/built-in.o
 *fill*         0x0000000080873379        0x3 
 .data.cin_notify_functions
                0x000000008087337c        0x8 lib/built-in.o
 .data.efi_con_in
                0x0000000080873384        0xc lib/built-in.o
                0x0000000080873384                efi_con_in
 .data.efi_con_in_ex
                0x0000000080873390       0x18 lib/built-in.o
 .data.efi_con_mode
                0x00000000808733a8       0x18 lib/built-in.o
 .data.efi_con_out
                0x00000000808733c0       0x28 lib/built-in.o
                0x00000000808733c0                efi_con_out
 .data.efi_cout_modes
                0x00000000808733e8       0x24 lib/built-in.o
 .data.efi_keyboard_layout_list
                0x000000008087340c        0x8 lib/built-in.o
 .data.efi_package_lists
                0x0000000080873414        0x8 lib/built-in.o
 .data.efi_mem  0x000000008087341c        0x8 lib/built-in.o
                0x000000008087341c                efi_mem
 .data.lastoff.11493
                0x0000000080873424        0x4 lib/built-in.o
 .data.efi_obj_list_initialized
                0x0000000080873428        0x4 lib/built-in.o
                0x0000000080873428                efi_obj_list_initialized
 .data.capitalization_table
                0x000000008087342c      0xed0 lib/built-in.o
 .data.sha256_padding
                0x00000000808742fc       0x40 lib/built-in.o
 .data.y        0x000000008087433c        0x4 lib/built-in.o
 .data.first_call.8748
                0x0000000080874340        0x4 net/built-in.o
 .data.net_native_vlan
                0x0000000080874344        0x2 net/built-in.o
                0x0000000080874344                net_native_vlan
 .data.net_our_vlan
                0x0000000080874346        0x2 net/built-in.o
                0x0000000080874346                net_our_vlan
 .data.nfs_offset
                0x0000000080874348        0x4 net/built-in.o
 .data.supported_nfs_versions
                0x000000008087434c        0x1 net/built-in.o
 *fill*         0x000000008087434d        0x1 
 .data.tftp_block_size
                0x000000008087434e        0x2 net/built-in.o
 .data.tftp_block_size_option
                0x0000000080874350        0x2 net/built-in.o
 *fill*         0x0000000080874352        0x2 
 .data.tftp_timeout_count_max
                0x0000000080874354        0x4 net/built-in.o
                0x0000000080874354                tftp_timeout_count_max
 .data.tftp_timeout_ms
                0x0000000080874358        0x4 net/built-in.o
                0x0000000080874358                tftp_timeout_ms
 .data.tftp_window_size_option
                0x000000008087435c        0x2 net/built-in.o
 *fill*         0x000000008087435e        0x2 
 .data.timeout_count_max
                0x0000000080874360        0x4 net/built-in.o
 .data.timeout_ms
                0x0000000080874364        0x4 net/built-in.o

.got            0x0000000080874368        0x0
 .got           0x0000000080874368        0x0 arch/arm/cpu/armv7/start.o

.got.plt        0x0000000080874368        0xc
 .got.plt       0x0000000080874368        0xc arch/arm/cpu/armv7/start.o
                0x0000000080874368                _GLOBAL_OFFSET_TABLE_

.igot.plt       0x0000000080874374        0x0
 .igot.plt      0x0000000080874374        0x0 arch/arm/cpu/armv7/start.o
                0x0000000080874374                . = ALIGN (0x4)
                0x0000000080874374                . = .
                0x0000000080874374                . = ALIGN (0x4)

.u_boot_list    0x0000000080874374     0x1ac0
 *(SORT_BY_NAME(.u_boot_list*))
 .u_boot_list_2_cmd_1
                0x0000000080874374        0x0 cmd/built-in.o
 .u_boot_list_2_cmd_1
                0x0000000080874374        0x0 common/built-in.o
 .u_boot_list_2_cmd_2_askenv
                0x0000000080874374       0x1c cmd/built-in.o
                0x0000000080874374                _u_boot_list_2_cmd_2_askenv
 .u_boot_list_2_cmd_2_base
                0x0000000080874390       0x1c cmd/built-in.o
                0x0000000080874390                _u_boot_list_2_cmd_2_base
 .u_boot_list_2_cmd_2_bdinfo
                0x00000000808743ac       0x1c cmd/built-in.o
                0x00000000808743ac                _u_boot_list_2_cmd_2_bdinfo
 .u_boot_list_2_cmd_2_blkcache
                0x00000000808743c8       0x1c cmd/built-in.o
                0x00000000808743c8                _u_boot_list_2_cmd_2_blkcache
 .u_boot_list_2_cmd_2_boot
                0x00000000808743e4       0x1c cmd/built-in.o
                0x00000000808743e4                _u_boot_list_2_cmd_2_boot
 .u_boot_list_2_cmd_2_bootd
                0x0000000080874400       0x1c cmd/built-in.o
                0x0000000080874400                _u_boot_list_2_cmd_2_bootd
 .u_boot_list_2_cmd_2_bootefi
                0x000000008087441c       0x1c cmd/built-in.o
                0x000000008087441c                _u_boot_list_2_cmd_2_bootefi
 .u_boot_list_2_cmd_2_bootelf
                0x0000000080874438       0x1c cmd/built-in.o
                0x0000000080874438                _u_boot_list_2_cmd_2_bootelf
 .u_boot_list_2_cmd_2_bootm
                0x0000000080874454       0x1c cmd/built-in.o
                0x0000000080874454                _u_boot_list_2_cmd_2_bootm
 .u_boot_list_2_cmd_2_bootp
                0x0000000080874470       0x1c cmd/built-in.o
                0x0000000080874470                _u_boot_list_2_cmd_2_bootp
 .u_boot_list_2_cmd_2_bootvx
                0x000000008087448c       0x1c cmd/built-in.o
                0x000000008087448c                _u_boot_list_2_cmd_2_bootvx
 .u_boot_list_2_cmd_2_bootz
                0x00000000808744a8       0x1c cmd/built-in.o
                0x00000000808744a8                _u_boot_list_2_cmd_2_bootz
 .u_boot_list_2_cmd_2_chpart
                0x00000000808744c4       0x1c cmd/built-in.o
                0x00000000808744c4                _u_boot_list_2_cmd_2_chpart
 .u_boot_list_2_cmd_2_cmp
                0x00000000808744e0       0x1c cmd/built-in.o
                0x00000000808744e0                _u_boot_list_2_cmd_2_cmp
 .u_boot_list_2_cmd_2_coninfo
                0x00000000808744fc       0x1c cmd/built-in.o
                0x00000000808744fc                _u_boot_list_2_cmd_2_coninfo
 .u_boot_list_2_cmd_2_cp
                0x0000000080874518       0x1c cmd/built-in.o
                0x0000000080874518                _u_boot_list_2_cmd_2_cp
 .u_boot_list_2_cmd_2_crc32
                0x0000000080874534       0x1c cmd/built-in.o
                0x0000000080874534                _u_boot_list_2_cmd_2_crc32
 .u_boot_list_2_cmd_2_dfu
                0x0000000080874550       0x1c cmd/built-in.o
                0x0000000080874550                _u_boot_list_2_cmd_2_dfu
 .u_boot_list_2_cmd_2_dhcp
                0x000000008087456c       0x1c cmd/built-in.o
                0x000000008087456c                _u_boot_list_2_cmd_2_dhcp
 .u_boot_list_2_cmd_2_dm
                0x0000000080874588       0x1c cmd/built-in.o
                0x0000000080874588                _u_boot_list_2_cmd_2_dm
 .u_boot_list_2_cmd_2_echo
                0x00000000808745a4       0x1c cmd/built-in.o
                0x00000000808745a4                _u_boot_list_2_cmd_2_echo
 .u_boot_list_2_cmd_2_editenv
                0x00000000808745c0       0x1c cmd/built-in.o
                0x00000000808745c0                _u_boot_list_2_cmd_2_editenv
 .u_boot_list_2_cmd_2_eeprom
                0x00000000808745dc       0x1c cmd/built-in.o
                0x00000000808745dc                _u_boot_list_2_cmd_2_eeprom
 .u_boot_list_2_cmd_2_env
                0x00000000808745f8       0x1c cmd/built-in.o
                0x00000000808745f8                _u_boot_list_2_cmd_2_env
 .u_boot_list_2_cmd_2_exit
                0x0000000080874614       0x1c cmd/built-in.o
                0x0000000080874614                _u_boot_list_2_cmd_2_exit
 .u_boot_list_2_cmd_2_ext2load
                0x0000000080874630       0x1c cmd/built-in.o
                0x0000000080874630                _u_boot_list_2_cmd_2_ext2load
 .u_boot_list_2_cmd_2_ext2ls
                0x000000008087464c       0x1c cmd/built-in.o
                0x000000008087464c                _u_boot_list_2_cmd_2_ext2ls
 .u_boot_list_2_cmd_2_ext4load
                0x0000000080874668       0x1c cmd/built-in.o
                0x0000000080874668                _u_boot_list_2_cmd_2_ext4load
 .u_boot_list_2_cmd_2_ext4ls
                0x0000000080874684       0x1c cmd/built-in.o
                0x0000000080874684                _u_boot_list_2_cmd_2_ext4ls
 .u_boot_list_2_cmd_2_ext4size
                0x00000000808746a0       0x1c cmd/built-in.o
                0x00000000808746a0                _u_boot_list_2_cmd_2_ext4size
 .u_boot_list_2_cmd_2_ext4write
                0x00000000808746bc       0x1c cmd/built-in.o
                0x00000000808746bc                _u_boot_list_2_cmd_2_ext4write
 .u_boot_list_2_cmd_2_false
                0x00000000808746d8       0x1c cmd/built-in.o
                0x00000000808746d8                _u_boot_list_2_cmd_2_false
 .u_boot_list_2_cmd_2_fastboot
                0x00000000808746f4       0x1c cmd/built-in.o
                0x00000000808746f4                _u_boot_list_2_cmd_2_fastboot
 .u_boot_list_2_cmd_2_fatinfo
                0x0000000080874710       0x1c cmd/built-in.o
                0x0000000080874710                _u_boot_list_2_cmd_2_fatinfo
 .u_boot_list_2_cmd_2_fatload
                0x000000008087472c       0x1c cmd/built-in.o
                0x000000008087472c                _u_boot_list_2_cmd_2_fatload
 .u_boot_list_2_cmd_2_fatls
                0x0000000080874748       0x1c cmd/built-in.o
                0x0000000080874748                _u_boot_list_2_cmd_2_fatls
 .u_boot_list_2_cmd_2_fatmkdir
                0x0000000080874764       0x1c cmd/built-in.o
                0x0000000080874764                _u_boot_list_2_cmd_2_fatmkdir
 .u_boot_list_2_cmd_2_fatrm
                0x0000000080874780       0x1c cmd/built-in.o
                0x0000000080874780                _u_boot_list_2_cmd_2_fatrm
 .u_boot_list_2_cmd_2_fatsize
                0x000000008087479c       0x1c cmd/built-in.o
                0x000000008087479c                _u_boot_list_2_cmd_2_fatsize
 .u_boot_list_2_cmd_2_fatwrite
                0x00000000808747b8       0x1c cmd/built-in.o
                0x00000000808747b8                _u_boot_list_2_cmd_2_fatwrite
 .u_boot_list_2_cmd_2_fdt
                0x00000000808747d4       0x1c cmd/built-in.o
                0x00000000808747d4                _u_boot_list_2_cmd_2_fdt
 .u_boot_list_2_cmd_2_fstype
                0x00000000808747f0       0x1c cmd/built-in.o
                0x00000000808747f0                _u_boot_list_2_cmd_2_fstype
 .u_boot_list_2_cmd_2_fstypes
                0x000000008087480c       0x1c cmd/built-in.o
                0x000000008087480c                _u_boot_list_2_cmd_2_fstypes
 .u_boot_list_2_cmd_2_go
                0x0000000080874828       0x1c cmd/built-in.o
                0x0000000080874828                _u_boot_list_2_cmd_2_go
 .u_boot_list_2_cmd_2_gpio
                0x0000000080874844       0x1c cmd/built-in.o
                0x0000000080874844                _u_boot_list_2_cmd_2_gpio
 .u_boot_list_2_cmd_2_gpt
                0x0000000080874860       0x1c cmd/built-in.o
                0x0000000080874860                _u_boot_list_2_cmd_2_gpt
 .u_boot_list_2_cmd_2_help
                0x000000008087487c       0x1c cmd/built-in.o
                0x000000008087487c                _u_boot_list_2_cmd_2_help
 .u_boot_list_2_cmd_2_i2c
                0x0000000080874898       0x1c cmd/built-in.o
                0x0000000080874898                _u_boot_list_2_cmd_2_i2c
 .u_boot_list_2_cmd_2_iminfo
                0x00000000808748b4       0x1c cmd/built-in.o
                0x00000000808748b4                _u_boot_list_2_cmd_2_iminfo
 .u_boot_list_2_cmd_2_imxtract
                0x00000000808748d0       0x1c cmd/built-in.o
                0x00000000808748d0                _u_boot_list_2_cmd_2_imxtract
 .u_boot_list_2_cmd_2_itest
                0x00000000808748ec       0x1c cmd/built-in.o
                0x00000000808748ec                _u_boot_list_2_cmd_2_itest
 .u_boot_list_2_cmd_2_ln
                0x0000000080874908       0x1c cmd/built-in.o
                0x0000000080874908                _u_boot_list_2_cmd_2_ln
 .u_boot_list_2_cmd_2_load
                0x0000000080874924       0x1c cmd/built-in.o
                0x0000000080874924                _u_boot_list_2_cmd_2_load
 .u_boot_list_2_cmd_2_loadb
                0x0000000080874940       0x1c cmd/built-in.o
                0x0000000080874940                _u_boot_list_2_cmd_2_loadb
 .u_boot_list_2_cmd_2_loads
                0x000000008087495c       0x1c cmd/built-in.o
                0x000000008087495c                _u_boot_list_2_cmd_2_loads
 .u_boot_list_2_cmd_2_loadx
                0x0000000080874978       0x1c cmd/built-in.o
                0x0000000080874978                _u_boot_list_2_cmd_2_loadx
 .u_boot_list_2_cmd_2_loady
                0x0000000080874994       0x1c cmd/built-in.o
                0x0000000080874994                _u_boot_list_2_cmd_2_loady
 .u_boot_list_2_cmd_2_loop
                0x00000000808749b0       0x1c cmd/built-in.o
                0x00000000808749b0                _u_boot_list_2_cmd_2_loop
 .u_boot_list_2_cmd_2_ls
                0x00000000808749cc       0x1c cmd/built-in.o
                0x00000000808749cc                _u_boot_list_2_cmd_2_ls
 .u_boot_list_2_cmd_2_md
                0x00000000808749e8       0x1c cmd/built-in.o
                0x00000000808749e8                _u_boot_list_2_cmd_2_md
 .u_boot_list_2_cmd_2_mdio
                0x0000000080874a04       0x1c cmd/built-in.o
                0x0000000080874a04                _u_boot_list_2_cmd_2_mdio
 .u_boot_list_2_cmd_2_mii
                0x0000000080874a20       0x1c cmd/built-in.o
                0x0000000080874a20                _u_boot_list_2_cmd_2_mii
 .u_boot_list_2_cmd_2_mm
                0x0000000080874a3c       0x1c cmd/built-in.o
                0x0000000080874a3c                _u_boot_list_2_cmd_2_mm
 .u_boot_list_2_cmd_2_mmc
                0x0000000080874a58       0x1c cmd/built-in.o
                0x0000000080874a58                _u_boot_list_2_cmd_2_mmc
 .u_boot_list_2_cmd_2_mmcinfo
                0x0000000080874a74       0x1c cmd/built-in.o
                0x0000000080874a74                _u_boot_list_2_cmd_2_mmcinfo
 .u_boot_list_2_cmd_2_mtdparts
                0x0000000080874a90       0x1c cmd/built-in.o
                0x0000000080874a90                _u_boot_list_2_cmd_2_mtdparts
 .u_boot_list_2_cmd_2_mw
                0x0000000080874aac       0x1c cmd/built-in.o
                0x0000000080874aac                _u_boot_list_2_cmd_2_mw
 .u_boot_list_2_cmd_2_nand
                0x0000000080874ac8       0x1c cmd/built-in.o
                0x0000000080874ac8                _u_boot_list_2_cmd_2_nand
 .u_boot_list_2_cmd_2_nboot
                0x0000000080874ae4       0x1c cmd/built-in.o
                0x0000000080874ae4                _u_boot_list_2_cmd_2_nboot
 .u_boot_list_2_cmd_2_nfs
                0x0000000080874b00       0x1c cmd/built-in.o
                0x0000000080874b00                _u_boot_list_2_cmd_2_nfs
 .u_boot_list_2_cmd_2_nm
                0x0000000080874b1c       0x1c cmd/built-in.o
                0x0000000080874b1c                _u_boot_list_2_cmd_2_nm
 .u_boot_list_2_cmd_2_panic
                0x0000000080874b38       0x1c cmd/built-in.o
                0x0000000080874b38                _u_boot_list_2_cmd_2_panic
 .u_boot_list_2_cmd_2_part
                0x0000000080874b54       0x1c cmd/built-in.o
                0x0000000080874b54                _u_boot_list_2_cmd_2_part
 .u_boot_list_2_cmd_2_ping
                0x0000000080874b70       0x1c cmd/built-in.o
                0x0000000080874b70                _u_boot_list_2_cmd_2_ping
 .u_boot_list_2_cmd_2_printenv
                0x0000000080874b8c       0x1c cmd/built-in.o
                0x0000000080874b8c                _u_boot_list_2_cmd_2_printenv
 .u_boot_list_2_cmd_2_pxe
                0x0000000080874ba8       0x1c cmd/built-in.o
                0x0000000080874ba8                _u_boot_list_2_cmd_2_pxe
 .u_boot_list_2_cmd_2_question_mark
                0x0000000080874bc4       0x1c cmd/built-in.o
                0x0000000080874bc4                _u_boot_list_2_cmd_2_question_mark
 .u_boot_list_2_cmd_2_random
                0x0000000080874be0       0x1c cmd/built-in.o
                0x0000000080874be0                _u_boot_list_2_cmd_2_random
 .u_boot_list_2_cmd_2_reset
                0x0000000080874bfc       0x1c cmd/built-in.o
                0x0000000080874bfc                _u_boot_list_2_cmd_2_reset
 .u_boot_list_2_cmd_2_run
                0x0000000080874c18       0x1c cmd/built-in.o
                0x0000000080874c18                _u_boot_list_2_cmd_2_run
 .u_boot_list_2_cmd_2_save
                0x0000000080874c34       0x1c cmd/built-in.o
                0x0000000080874c34                _u_boot_list_2_cmd_2_save
 .u_boot_list_2_cmd_2_saveenv
                0x0000000080874c50       0x1c cmd/built-in.o
                0x0000000080874c50                _u_boot_list_2_cmd_2_saveenv
 .u_boot_list_2_cmd_2_setenv
                0x0000000080874c6c       0x1c cmd/built-in.o
                0x0000000080874c6c                _u_boot_list_2_cmd_2_setenv
 .u_boot_list_2_cmd_2_sf
                0x0000000080874c88       0x1c cmd/built-in.o
                0x0000000080874c88                _u_boot_list_2_cmd_2_sf
 .u_boot_list_2_cmd_2_showvar
                0x0000000080874ca4       0x1c common/built-in.o
                0x0000000080874ca4                _u_boot_list_2_cmd_2_showvar
 .u_boot_list_2_cmd_2_size
                0x0000000080874cc0       0x1c cmd/built-in.o
                0x0000000080874cc0                _u_boot_list_2_cmd_2_size
 .u_boot_list_2_cmd_2_sleep
                0x0000000080874cdc       0x1c cmd/built-in.o
                0x0000000080874cdc                _u_boot_list_2_cmd_2_sleep
 .u_boot_list_2_cmd_2_source
                0x0000000080874cf8       0x1c cmd/built-in.o
                0x0000000080874cf8                _u_boot_list_2_cmd_2_source
 .u_boot_list_2_cmd_2_spl
                0x0000000080874d14       0x1c cmd/built-in.o
                0x0000000080874d14                _u_boot_list_2_cmd_2_spl
 .u_boot_list_2_cmd_2_sspi
                0x0000000080874d30       0x1c cmd/built-in.o
                0x0000000080874d30                _u_boot_list_2_cmd_2_sspi
 .u_boot_list_2_cmd_2_sysboot
                0x0000000080874d4c       0x1c cmd/built-in.o
                0x0000000080874d4c                _u_boot_list_2_cmd_2_sysboot
 .u_boot_list_2_cmd_2_test
                0x0000000080874d68       0x1c cmd/built-in.o
                0x0000000080874d68                _u_boot_list_2_cmd_2_test
 .u_boot_list_2_cmd_2_tftpboot
                0x0000000080874d84       0x1c cmd/built-in.o
                0x0000000080874d84                _u_boot_list_2_cmd_2_tftpboot
 .u_boot_list_2_cmd_2_time
                0x0000000080874da0       0x1c cmd/built-in.o
                0x0000000080874da0                _u_boot_list_2_cmd_2_time
 .u_boot_list_2_cmd_2_true
                0x0000000080874dbc       0x1c cmd/built-in.o
                0x0000000080874dbc                _u_boot_list_2_cmd_2_true
 .u_boot_list_2_cmd_2_usb
                0x0000000080874dd8       0x1c cmd/built-in.o
                0x0000000080874dd8                _u_boot_list_2_cmd_2_usb
 .u_boot_list_2_cmd_2_usbboot
                0x0000000080874df4       0x1c cmd/built-in.o
                0x0000000080874df4                _u_boot_list_2_cmd_2_usbboot
 .u_boot_list_2_cmd_2_version
                0x0000000080874e10       0x1c cmd/built-in.o
                0x0000000080874e10                _u_boot_list_2_cmd_2_version
 .u_boot_list_2_cmd_3
                0x0000000080874e2c        0x0 cmd/built-in.o
 .u_boot_list_2_cmd_3
                0x0000000080874e2c        0x0 common/built-in.o
 .u_boot_list_2_driver_1
                0x0000000080874e2c        0x0 drivers/built-in.o
 .u_boot_list_2_driver_1
                0x0000000080874e2c        0x0 lib/built-in.o
 .u_boot_list_2_driver_2_cdce9xx_clk
                0x0000000080874e2c       0x44 drivers/built-in.o
                0x0000000080874e2c                _u_boot_list_2_driver_2_cdce9xx_clk
 .u_boot_list_2_driver_2_clk_fixed_factor
                0x0000000080874e70       0x44 drivers/built-in.o
                0x0000000080874e70                _u_boot_list_2_driver_2_clk_fixed_factor
 .u_boot_list_2_driver_2_clk_fixed_rate_raw
                0x0000000080874eb4       0x44 drivers/built-in.o
                0x0000000080874eb4                _u_boot_list_2_driver_2_clk_fixed_rate_raw
 .u_boot_list_2_driver_2_efi_blk
                0x0000000080874ef8       0x44 lib/built-in.o
                0x0000000080874ef8                _u_boot_list_2_driver_2_efi_blk
 .u_boot_list_2_driver_2_efi_block
                0x0000000080874f3c       0x44 lib/built-in.o
                0x0000000080874f3c                _u_boot_list_2_driver_2_efi_block
 .u_boot_list_2_driver_2_eth_cpsw
                0x0000000080874f80       0x44 drivers/net/built-in.o
                0x0000000080874f80                _u_boot_list_2_driver_2_eth_cpsw
 .u_boot_list_2_driver_2_eth_usb
                0x0000000080874fc4       0x44 drivers/usb/gadget/built-in.o
                0x0000000080874fc4                _u_boot_list_2_driver_2_eth_usb
 .u_boot_list_2_driver_2_fixed_clock
                0x0000000080875008       0x44 drivers/built-in.o
                0x0000000080875008                _u_boot_list_2_driver_2_fixed_clock
 .u_boot_list_2_driver_2_gpio_omap
                0x000000008087504c       0x44 drivers/gpio/built-in.o
                0x000000008087504c                _u_boot_list_2_driver_2_gpio_omap
 .u_boot_list_2_driver_2_i2c_generic_chip_drv
                0x0000000080875090       0x44 drivers/i2c/built-in.o
                0x0000000080875090                _u_boot_list_2_driver_2_i2c_generic_chip_drv
 .u_boot_list_2_driver_2_i2c_omap
                0x00000000808750d4       0x44 drivers/i2c/built-in.o
                0x00000000808750d4                _u_boot_list_2_driver_2_i2c_omap
 .u_boot_list_2_driver_2_jedec_spi_nor
                0x0000000080875118       0x44 drivers/built-in.o
                0x0000000080875118                _u_boot_list_2_driver_2_jedec_spi_nor
 .u_boot_list_2_driver_2_mmc_blk
                0x000000008087515c       0x44 drivers/built-in.o
                0x000000008087515c                _u_boot_list_2_driver_2_mmc_blk
 .u_boot_list_2_driver_2_mod_exp_sw
                0x00000000808751a0       0x44 drivers/built-in.o
                0x00000000808751a0                _u_boot_list_2_driver_2_mod_exp_sw
 .u_boot_list_2_driver_2_ns16550_serial
                0x00000000808751e4       0x44 drivers/serial/built-in.o
                0x00000000808751e4                _u_boot_list_2_driver_2_ns16550_serial
 .u_boot_list_2_driver_2_omap3_spi
                0x0000000080875228       0x44 drivers/spi/built-in.o
                0x0000000080875228                _u_boot_list_2_driver_2_omap3_spi
 .u_boot_list_2_driver_2_omap3_wdt
                0x000000008087526c       0x44 drivers/built-in.o
                0x000000008087526c                _u_boot_list_2_driver_2_omap3_wdt
 .u_boot_list_2_driver_2_omap_hsmmc
                0x00000000808752b0       0x44 drivers/built-in.o
                0x00000000808752b0                _u_boot_list_2_driver_2_omap_hsmmc
 .u_boot_list_2_driver_2_omap_serial
                0x00000000808752f4       0x44 drivers/serial/built-in.o
                0x00000000808752f4                _u_boot_list_2_driver_2_omap_serial
 .u_boot_list_2_driver_2_omap_timer
                0x0000000080875338       0x44 drivers/built-in.o
                0x0000000080875338                _u_boot_list_2_driver_2_omap_timer
 .u_boot_list_2_driver_2_root_driver
                0x000000008087537c       0x44 drivers/built-in.o
                0x000000008087537c                _u_boot_list_2_driver_2_root_driver
 .u_boot_list_2_driver_2_simple_bus
                0x00000000808753c0       0x44 drivers/built-in.o
                0x00000000808753c0                _u_boot_list_2_driver_2_simple_bus
 .u_boot_list_2_driver_2_spi_generic_drv
                0x0000000080875404       0x44 drivers/spi/built-in.o
                0x0000000080875404                _u_boot_list_2_driver_2_spi_generic_drv
 .u_boot_list_2_driver_2_ti_musb_host
                0x0000000080875448       0x44 drivers/usb/musb-new/built-in.o
                0x0000000080875448                _u_boot_list_2_driver_2_ti_musb_host
 .u_boot_list_2_driver_2_ti_musb_peripheral
                0x000000008087548c       0x44 drivers/usb/musb-new/built-in.o
                0x000000008087548c                _u_boot_list_2_driver_2_ti_musb_peripheral
 .u_boot_list_2_driver_2_ti_musb_wrapper
                0x00000000808754d0       0x44 drivers/usb/musb-new/built-in.o
                0x00000000808754d0                _u_boot_list_2_driver_2_ti_musb_wrapper
 .u_boot_list_2_driver_2_usb_dev_generic_drv
                0x0000000080875514       0x44 drivers/usb/host/built-in.o
                0x0000000080875514                _u_boot_list_2_driver_2_usb_dev_generic_drv
 .u_boot_list_2_driver_2_usb_generic_hub
                0x0000000080875558       0x44 common/built-in.o
                0x0000000080875558                _u_boot_list_2_driver_2_usb_generic_hub
 .u_boot_list_2_driver_2_usb_mass_storage
                0x000000008087559c       0x44 common/built-in.o
                0x000000008087559c                _u_boot_list_2_driver_2_usb_mass_storage
 .u_boot_list_2_driver_2_usb_storage_blk
                0x00000000808755e0       0x44 common/built-in.o
                0x00000000808755e0                _u_boot_list_2_driver_2_usb_storage_blk
 .u_boot_list_2_driver_3
                0x0000000080875624        0x0 drivers/built-in.o
 .u_boot_list_2_driver_3
                0x0000000080875624        0x0 lib/built-in.o
 .u_boot_list_2_driver_info_1
                0x0000000080875624        0x0 drivers/built-in.o
 .u_boot_list_2_driver_info_2_mod_exp_sw
                0x0000000080875624        0x8 drivers/built-in.o
                0x0000000080875624                _u_boot_list_2_driver_info_2_mod_exp_sw
 .u_boot_list_2_driver_info_3
                0x000000008087562c        0x0 drivers/built-in.o
 .u_boot_list_2_env_clbk_1
                0x000000008087562c        0x0 env/built-in.o
 .u_boot_list_2_env_clbk_2_baudrate
                0x000000008087562c        0x8 drivers/serial/built-in.o
                0x000000008087562c                _u_boot_list_2_env_clbk_2_baudrate
 .u_boot_list_2_env_clbk_2_callbacks
                0x0000000080875634        0x8 env/built-in.o
                0x0000000080875634                _u_boot_list_2_env_clbk_2_callbacks
 .u_boot_list_2_env_clbk_2_console
                0x000000008087563c        0x8 common/built-in.o
                0x000000008087563c                _u_boot_list_2_env_clbk_2_console
 .u_boot_list_2_env_clbk_2_ethaddr
                0x0000000080875644        0x8 net/built-in.o
                0x0000000080875644                _u_boot_list_2_env_clbk_2_ethaddr
 .u_boot_list_2_env_clbk_2_flags
                0x000000008087564c        0x8 env/built-in.o
                0x000000008087564c                _u_boot_list_2_env_clbk_2_flags
 .u_boot_list_2_env_clbk_2_gatewayip
                0x0000000080875654        0x8 net/built-in.o
                0x0000000080875654                _u_boot_list_2_env_clbk_2_gatewayip
 .u_boot_list_2_env_clbk_2_ipaddr
                0x000000008087565c        0x8 net/built-in.o
                0x000000008087565c                _u_boot_list_2_env_clbk_2_ipaddr
 .u_boot_list_2_env_clbk_2_loadaddr
                0x0000000080875664        0x8 common/built-in.o
                0x0000000080875664                _u_boot_list_2_env_clbk_2_loadaddr
 .u_boot_list_2_env_clbk_2_netmask
                0x000000008087566c        0x8 net/built-in.o
                0x000000008087566c                _u_boot_list_2_env_clbk_2_netmask
 .u_boot_list_2_env_clbk_2_nvlan
                0x0000000080875674        0x8 net/built-in.o
                0x0000000080875674                _u_boot_list_2_env_clbk_2_nvlan
 .u_boot_list_2_env_clbk_2_serialno
                0x000000008087567c        0x8 drivers/usb/gadget/built-in.o
                0x000000008087567c                _u_boot_list_2_env_clbk_2_serialno
 .u_boot_list_2_env_clbk_2_serverip
                0x0000000080875684        0x8 net/built-in.o
                0x0000000080875684                _u_boot_list_2_env_clbk_2_serverip
 .u_boot_list_2_env_clbk_2_vlan
                0x000000008087568c        0x8 net/built-in.o
                0x000000008087568c                _u_boot_list_2_env_clbk_2_vlan
 .u_boot_list_2_env_clbk_3
                0x0000000080875694        0x0 env/built-in.o
 .u_boot_list_2_env_driver_1
                0x0000000080875694        0x0 env/built-in.o
 .u_boot_list_2_env_driver_2_fat
                0x0000000080875694       0x18 env/built-in.o
                0x0000000080875694                _u_boot_list_2_env_driver_2_fat
 .u_boot_list_2_env_driver_3
                0x00000000808756ac        0x0 env/built-in.o
 .u_boot_list_2_fit_loadable_1
                0x00000000808756ac        0x0 common/built-in.o
 .u_boot_list_2_fit_loadable_3
                0x00000000808756ac        0x0 common/built-in.o
 .u_boot_list_2_g_dnl_bind_callbacks_1
                0x00000000808756ac        0x0 drivers/usb/gadget/built-in.o
 .u_boot_list_2_g_dnl_bind_callbacks_2___usb_function_name_usb_dnl_dfu
                0x00000000808756ac        0x8 drivers/usb/gadget/built-in.o
                0x00000000808756ac                _u_boot_list_2_g_dnl_bind_callbacks_2___usb_function_name_usb_dnl_dfu
 .u_boot_list_2_g_dnl_bind_callbacks_2___usb_function_name_usb_dnl_fastboot
                0x00000000808756b4        0x8 drivers/usb/gadget/built-in.o
                0x00000000808756b4                _u_boot_list_2_g_dnl_bind_callbacks_2___usb_function_name_usb_dnl_fastboot
 .u_boot_list_2_part_driver_1
                0x00000000808756bc        0x0 cmd/built-in.o
 .u_boot_list_2_part_driver_1
                0x00000000808756bc        0x0 disk/built-in.o
 .u_boot_list_2_part_driver_2_a_efi
                0x00000000808756bc       0x18 disk/built-in.o
                0x00000000808756bc                _u_boot_list_2_part_driver_2_a_efi
 .u_boot_list_2_part_driver_2_dos
                0x00000000808756d4       0x18 disk/built-in.o
                0x00000000808756d4                _u_boot_list_2_part_driver_2_dos
 .u_boot_list_2_part_driver_2_iso
                0x00000000808756ec       0x18 disk/built-in.o
                0x00000000808756ec                _u_boot_list_2_part_driver_2_iso
 .u_boot_list_2_part_driver_3
                0x0000000080875704        0x0 cmd/built-in.o
 .u_boot_list_2_part_driver_3
                0x0000000080875704        0x0 disk/built-in.o
 .u_boot_list_2_uclass_1
                0x0000000080875704        0x0 drivers/built-in.o
 .u_boot_list_2_uclass_2_blk
                0x0000000080875704       0x4c drivers/built-in.o
                0x0000000080875704                _u_boot_list_2_uclass_2_blk
 .u_boot_list_2_uclass_2_clk
                0x0000000080875750       0x4c drivers/built-in.o
                0x0000000080875750                _u_boot_list_2_uclass_2_clk
 .u_boot_list_2_uclass_2_efi
                0x000000008087579c       0x4c lib/built-in.o
                0x000000008087579c                _u_boot_list_2_uclass_2_efi
 .u_boot_list_2_uclass_2_eth
                0x00000000808757e8       0x4c net/built-in.o
                0x00000000808757e8                _u_boot_list_2_uclass_2_eth
 .u_boot_list_2_uclass_2_gpio
                0x0000000080875834       0x4c drivers/gpio/built-in.o
                0x0000000080875834                _u_boot_list_2_uclass_2_gpio
 .u_boot_list_2_uclass_2_i2c
                0x0000000080875880       0x4c drivers/i2c/built-in.o
                0x0000000080875880                _u_boot_list_2_uclass_2_i2c
 .u_boot_list_2_uclass_2_i2c_generic
                0x00000000808758cc       0x4c drivers/i2c/built-in.o
                0x00000000808758cc                _u_boot_list_2_uclass_2_i2c_generic
 .u_boot_list_2_uclass_2_misc
                0x0000000080875918       0x4c drivers/built-in.o
                0x0000000080875918                _u_boot_list_2_uclass_2_misc
 .u_boot_list_2_uclass_2_mmc
                0x0000000080875964       0x4c drivers/built-in.o
                0x0000000080875964                _u_boot_list_2_uclass_2_mmc
 .u_boot_list_2_uclass_2_mod_exp
                0x00000000808759b0       0x4c drivers/built-in.o
                0x00000000808759b0                _u_boot_list_2_uclass_2_mod_exp
 .u_boot_list_2_uclass_2_nop
                0x00000000808759fc       0x4c drivers/built-in.o
                0x00000000808759fc                _u_boot_list_2_uclass_2_nop
 .u_boot_list_2_uclass_2_root
                0x0000000080875a48       0x4c drivers/built-in.o
                0x0000000080875a48                _u_boot_list_2_uclass_2_root
 .u_boot_list_2_uclass_2_serial
                0x0000000080875a94       0x4c drivers/serial/built-in.o
                0x0000000080875a94                _u_boot_list_2_uclass_2_serial
 .u_boot_list_2_uclass_2_simple_bus
                0x0000000080875ae0       0x4c drivers/built-in.o
                0x0000000080875ae0                _u_boot_list_2_uclass_2_simple_bus
 .u_boot_list_2_uclass_2_spi
                0x0000000080875b2c       0x4c drivers/spi/built-in.o
                0x0000000080875b2c                _u_boot_list_2_uclass_2_spi
 .u_boot_list_2_uclass_2_spi_generic
                0x0000000080875b78       0x4c drivers/spi/built-in.o
                0x0000000080875b78                _u_boot_list_2_uclass_2_spi_generic
 .u_boot_list_2_uclass_2_spi_nor
                0x0000000080875bc4       0x4c drivers/built-in.o
                0x0000000080875bc4                _u_boot_list_2_uclass_2_spi_nor
 .u_boot_list_2_uclass_2_timer
                0x0000000080875c10       0x4c drivers/built-in.o
                0x0000000080875c10                _u_boot_list_2_uclass_2_timer
 .u_boot_list_2_uclass_2_usb
                0x0000000080875c5c       0x4c drivers/usb/host/built-in.o
                0x0000000080875c5c                _u_boot_list_2_uclass_2_usb
 .u_boot_list_2_uclass_2_usb_dev_generic
                0x0000000080875ca8       0x4c drivers/usb/host/built-in.o
                0x0000000080875ca8                _u_boot_list_2_uclass_2_usb_dev_generic
 .u_boot_list_2_uclass_2_usb_gadget_generic
                0x0000000080875cf4       0x4c drivers/usb/gadget/udc/built-in.o
                0x0000000080875cf4                _u_boot_list_2_uclass_2_usb_gadget_generic
 .u_boot_list_2_uclass_2_usb_hub
                0x0000000080875d40       0x4c common/built-in.o
                0x0000000080875d40                _u_boot_list_2_uclass_2_usb_hub
 .u_boot_list_2_uclass_2_usb_mass_storage
                0x0000000080875d8c       0x4c common/built-in.o
                0x0000000080875d8c                _u_boot_list_2_uclass_2_usb_mass_storage
 .u_boot_list_2_uclass_2_wdt
                0x0000000080875dd8       0x4c drivers/built-in.o
                0x0000000080875dd8                _u_boot_list_2_uclass_2_wdt
 .u_boot_list_2_uclass_3
                0x0000000080875e24        0x0 drivers/built-in.o
 .u_boot_list_2_usb_driver_entry_1
                0x0000000080875e24        0x0 drivers/usb/host/built-in.o
 .u_boot_list_2_usb_driver_entry_2_usb_generic_hub
                0x0000000080875e24        0x8 common/built-in.o
                0x0000000080875e24                _u_boot_list_2_usb_driver_entry_2_usb_generic_hub
 .u_boot_list_2_usb_driver_entry_2_usb_mass_storage
                0x0000000080875e2c        0x8 common/built-in.o
                0x0000000080875e2c                _u_boot_list_2_usb_driver_entry_2_usb_mass_storage
 .u_boot_list_2_usb_driver_entry_3
                0x0000000080875e34        0x0 drivers/usb/host/built-in.o
                0x0000000080875e34                . = ALIGN (0x4)

.efi_runtime_rel_start
                0x0000000080875e34        0x0
 *(.__efi_runtime_rel_start)
 .__efi_runtime_rel_start
                0x0000000080875e34        0x0 arch/arm/lib/built-in.o

.efi_runtime_rel
                0x0000000080875e34       0xd8
 *(.rel*.efi_runtime)
 .rel.text.efi_runtime
                0x0000000080875e34       0x48 arch/arm/cpu/armv7/start.o
 .rel.data.efi_runtime
                0x0000000080875e7c       0x90 arch/arm/cpu/armv7/start.o
 *(.rel*.efi_runtime.*)

.efi_runtime_rel_stop
                0x0000000080875f0c        0x0
 *(.__efi_runtime_rel_stop)
 .__efi_runtime_rel_stop
                0x0000000080875f0c        0x0 arch/arm/lib/built-in.o
                0x0000000080875f0c                . = ALIGN (0x4)

.image_copy_end
                0x0000000080875f0c        0x0
 *(.__image_copy_end)
 .__image_copy_end
                0x0000000080875f0c        0x0 arch/arm/lib/built-in.o

.rel_dyn_start  0x0000000080875f0c        0x0
 *(.__rel_dyn_start)
 .__rel_dyn_start
                0x0000000080875f0c        0x0 arch/arm/lib/built-in.o

.rel.dyn        0x0000000080875f0c     0xf160
 *(.rel*)
 .rel.got       0x0000000080875f0c        0x0 arch/arm/cpu/armv7/start.o
 .rel.plt       0x0000000080875f0c        0x0 arch/arm/cpu/armv7/start.o
 .rel.bss       0x0000000080875f0c        0x0 arch/arm/cpu/armv7/start.o
 .rel.data.rel.ro
                0x0000000080875f0c        0x0 arch/arm/cpu/armv7/start.o
 .rel.iplt      0x0000000080875f0c        0x0 arch/arm/cpu/armv7/start.o
 .rel.text      0x0000000080875f0c       0x20 arch/arm/cpu/armv7/start.o
 .rel.text.request_and_set_gpio
                0x0000000080875f2c       0x18 arch/arm/cpu/armv7/start.o
 .rel.text.ft_board_setup
                0x0000000080875f44       0x58 arch/arm/cpu/armv7/start.o
 .rel.text.board_init
                0x0000000080875f9c       0x78 arch/arm/cpu/armv7/start.o
 .rel.text.board_late_init
                0x0000000080876014       0xb0 arch/arm/cpu/armv7/start.o
 .rel.vectors   0x00000000808760c4       0x38 arch/arm/cpu/armv7/start.o
 .rel.text.relocate_vectors
                0x00000000808760fc       0x20 arch/arm/cpu/armv7/start.o
 .rel.text.setup_initrd_tag.isra.0
                0x000000008087611c        0x8 arch/arm/cpu/armv7/start.o
 .rel.text.boot_jump_linux
                0x0000000080876124       0x28 arch/arm/cpu/armv7/start.o
 .rel.text.boot_prep_linux
                0x000000008087614c       0x18 arch/arm/cpu/armv7/start.o
 .rel.text.boot_prep_vxworks
                0x0000000080876164       0x10 arch/arm/cpu/armv7/start.o
 .rel.text.arch_print_bdinfo
                0x0000000080876174       0x28 arch/arm/cpu/armv7/start.o
 .rel.text.interrupt_init
                0x000000008087619c        0x8 arch/arm/cpu/armv7/start.o
 .rel.text.bad_mode
                0x00000000808761a4        0x8 arch/arm/cpu/armv7/start.o
 .rel.text.show_regs
                0x00000000808761ac       0x88 arch/arm/cpu/armv7/start.o
 .rel.text.do_undefined_instruction
                0x0000000080876234        0x8 arch/arm/cpu/armv7/start.o
 .rel.text.do_software_interrupt
                0x000000008087623c        0x8 arch/arm/cpu/armv7/start.o
 .rel.text.do_prefetch_abort
                0x0000000080876244        0x8 arch/arm/cpu/armv7/start.o
 .rel.text.do_data_abort
                0x000000008087624c        0x8 arch/arm/cpu/armv7/start.o
 .rel.text.do_not_used
                0x0000000080876254        0x8 arch/arm/cpu/armv7/start.o
 .rel.text.do_fiq
                0x000000008087625c        0x8 arch/arm/cpu/armv7/start.o
 .rel.text.do_irq
                0x0000000080876264        0x8 arch/arm/cpu/armv7/start.o
 .rel.text.do_reset
                0x000000008087626c        0x8 arch/arm/cpu/armv7/start.o
 .rel.text.check_cache_range
                0x0000000080876274        0x8 arch/arm/cpu/armv7/start.o
 .rel.rodata    0x000000008087627c      0x180 arch/arm/cpu/armv7/start.o
 .rel.text.print_cpuinfo
                0x00000000808763fc       0x48 arch/arm/cpu/armv7/start.o
 .rel.text.hw_data_init
                0x0000000080876444       0x10 arch/arm/cpu/armv7/start.o
 .rel.text.clk_synthesizer_reg_write
                0x0000000080876454        0x8 arch/arm/cpu/armv7/start.o
 .rel.text.setup_clock_synthesizer
                0x000000008087645c       0x10 arch/arm/cpu/armv7/start.o
 .rel.text.get_device_type
                0x000000008087646c        0x8 arch/arm/cpu/armv7/start.o
 .rel.text.set_gpmc_cs0
                0x0000000080876474       0x10 arch/arm/cpu/armv7/start.o
 .rel.text.gpmc_init
                0x0000000080876484       0x10 arch/arm/cpu/armv7/start.o
 .rel.rodata.dev_types
                0x0000000080876494       0x20 arch/arm/cpu/armv7/start.o
 .rel.data.cpu_revs
                0x00000000808764b4       0x18 arch/arm/cpu/armv7/start.o
 .rel.data.cpu_revs_am43xx
                0x00000000808764cc       0x18 arch/arm/cpu/armv7/start.o
 .rel.text.set_board_info_env
                0x00000000808764e4       0x20 arch/arm/cpu/armv7/start.o
 .rel.text.do_go
                0x0000000080876504       0x10 arch/arm/cpu/armv7/start.o
 .rel.text.do_bootm
                0x0000000080876514       0x18 arch/arm/cpu/armv7/start.o
 .rel.text.do_bootd
                0x000000008087652c        0x8 arch/arm/cpu/armv7/start.o
 .rel.text.image_info
                0x0000000080876534       0x60 arch/arm/cpu/armv7/start.o
 .rel.text.do_iminfo
                0x0000000080876594        0x8 arch/arm/cpu/armv7/start.o
 .rel.text.bootm_maybe_autostart
                0x000000008087659c       0x20 arch/arm/cpu/armv7/start.o
 .rel.text.do_help
                0x00000000808765bc       0x10 arch/arm/cpu/armv7/start.o
 .rel.text.do_panic
                0x00000000808765cc        0x8 arch/arm/cpu/armv7/start.o
 .rel.text.do_version
                0x00000000808765d4       0x10 arch/arm/cpu/armv7/start.o
 .rel.text.blk_common_cmd
                0x00000000808765e4       0x78 arch/arm/cpu/armv7/start.o
 .rel.text.image_source_script
                0x000000008087665c       0x78 arch/arm/cpu/armv7/start.o
 .rel.text.do_source
                0x00000000808766d4       0x10 arch/arm/cpu/armv7/start.o
 .rel.text.bdinfo_print_num
                0x00000000808766e4        0x8 arch/arm/cpu/armv7/start.o
 .rel.text.do_bdinfo
                0x00000000808766ec       0xa8 arch/arm/cpu/armv7/start.o
 .rel.text.do_blkcache
                0x0000000080876794        0x8 arch/arm/cpu/armv7/start.o
 .rel.text.blkc_configure
                0x000000008087679c        0x8 arch/arm/cpu/armv7/start.o
 .rel.text.blkc_show
                0x00000000808767a4        0x8 arch/arm/cpu/armv7/start.o
 .rel.text.efi_reserve_memory
                0x00000000808767ac        0x8 arch/arm/cpu/armv7/start.o
 .rel.text.do_bootefi_exec
                0x00000000808767b4       0x10 arch/arm/cpu/armv7/start.o
 .rel.text.efi_install_fdt
                0x00000000808767c4       0x70 arch/arm/cpu/armv7/start.o
 .rel.text.efi_run_image
                0x0000000080876834       0x38 arch/arm/cpu/armv7/start.o
 .rel.text.do_bootefi
                0x000000008087686c       0x20 arch/arm/cpu/armv7/start.o
 .rel.text.efi_set_bootdev
                0x000000008087688c       0x10 arch/arm/cpu/armv7/start.o
 .rel.text.do_bootz
                0x000000008087689c       0x18 arch/arm/cpu/armv7/start.o
 .rel.text.do_coninfo
                0x00000000808768b4       0x30 arch/arm/cpu/armv7/start.o
 .rel.text.do_dm
                0x00000000808768e4        0x8 arch/arm/cpu/armv7/start.o
 .rel.text.do_echo
                0x00000000808768ec        0x8 arch/arm/cpu/armv7/start.o
 .rel.text.eeprom_rw
                0x00000000808768f4       0x18 arch/arm/cpu/armv7/start.o
 .rel.text.do_eeprom
                0x000000008087690c       0x28 arch/arm/cpu/armv7/start.o
 .rel.text.do_bootelf
                0x0000000080876934       0x28 arch/arm/cpu/armv7/start.o
 .rel.text.do_bootvx
                0x000000008087695c       0xe0 arch/arm/cpu/armv7/start.o
 .rel.text.do_fat_fsinfo
                0x0000000080876a3c       0x10 arch/arm/cpu/armv7/start.o
 .rel.text.fdt_valid
                0x0000000080876a4c       0x28 arch/arm/cpu/armv7/start.o
 .rel.text.is_printable_string
                0x0000000080876a74        0x8 arch/arm/cpu/armv7/start.o
 .rel.text.print_data.part.0
                0x0000000080876a7c       0x60 arch/arm/cpu/armv7/start.o
 .rel.text.set_working_fdt_addr
                0x0000000080876adc       0x10 arch/arm/cpu/armv7/start.o
 .rel.text.do_fdt
                0x0000000080876aec      0x290 arch/arm/cpu/armv7/start.o
 .rel.text.gpio_get_description
                0x0000000080876d7c       0x18 arch/arm/cpu/armv7/start.o
 .rel.text.do_gpio
                0x0000000080876d94       0x50 arch/arm/cpu/armv7/start.o
 .rel.text.do_i2c
                0x0000000080876de4        0x8 arch/arm/cpu/armv7/start.o
 .rel.text.i2c_get_cur_bus
                0x0000000080876dec       0x10 arch/arm/cpu/armv7/start.o
 .rel.text.do_i2c_bus_speed
                0x0000000080876dfc       0x18 arch/arm/cpu/armv7/start.o
 .rel.text.do_i2c_reset
                0x0000000080876e14        0x8 arch/arm/cpu/armv7/start.o
 .rel.text.do_i2c_probe
                0x0000000080876e1c       0x10 arch/arm/cpu/armv7/start.o
 .rel.text.do_i2c_bus_num
                0x0000000080876e2c       0x20 arch/arm/cpu/armv7/start.o
 .rel.text.show_bus
                0x0000000080876e4c       0x20 arch/arm/cpu/armv7/start.o
 .rel.text.do_i2c_olen
                0x0000000080876e6c       0x18 arch/arm/cpu/armv7/start.o
 .rel.text.do_i2c_flags
                0x0000000080876e84       0x18 arch/arm/cpu/armv7/start.o
 .rel.text.do_i2c_show_bus
                0x0000000080876e9c        0x8 arch/arm/cpu/armv7/start.o
 .rel.text.do_i2c_crc
                0x0000000080876ea4       0x20 arch/arm/cpu/armv7/start.o
 .rel.text.mod_i2c_mem.isra.0.part.0
                0x0000000080876ec4       0x60 arch/arm/cpu/armv7/start.o
 .rel.text.do_i2c_md
                0x0000000080876f24       0x58 arch/arm/cpu/armv7/start.o
 .rel.text.do_i2c_read
                0x0000000080876f7c       0x10 arch/arm/cpu/armv7/start.o
 .rel.text.do_i2c_mw
                0x0000000080876f8c       0x10 arch/arm/cpu/armv7/start.o
 .rel.text.do_i2c_write
                0x0000000080876f9c       0x18 arch/arm/cpu/armv7/start.o
 .rel.text.do_i2c_loop
                0x0000000080876fb4       0x18 arch/arm/cpu/armv7/start.o
 .rel.text.binary_test
                0x0000000080876fcc       0x18 arch/arm/cpu/armv7/start.o
 .rel.text.do_itest
                0x0000000080876fe4        0x8 arch/arm/cpu/armv7/start.o
 .rel.text.bin_data_init
                0x0000000080876fec       0x18 arch/arm/cpu/armv7/start.o
 .rel.text.k_data_save
                0x0000000080877004       0x30 arch/arm/cpu/armv7/start.o
 .rel.text.k_data_restore
                0x0000000080877034       0x30 arch/arm/cpu/armv7/start.o
 .rel.text.load_serial_ymodem
                0x0000000080877064       0x20 arch/arm/cpu/armv7/start.o
 .rel.text.bin_data_char
                0x0000000080877084       0x10 arch/arm/cpu/armv7/start.o
 .rel.text.chk1.constprop.0
                0x0000000080877094        0x8 arch/arm/cpu/armv7/start.o
 .rel.text.s1_sendpacket.constprop.0
                0x000000008087709c       0x18 arch/arm/cpu/armv7/start.o
 .rel.text.load_serial
                0x00000000808770b4       0x20 arch/arm/cpu/armv7/start.o
 .rel.text.do_load_serial
                0x00000000808770d4       0x30 arch/arm/cpu/armv7/start.o
 .rel.text.do_load_serial_bin
                0x0000000080877104      0x110 arch/arm/cpu/armv7/start.o
 .rel.text.do_mem_md
                0x0000000080877214       0x20 arch/arm/cpu/armv7/start.o
 .rel.text.do_mem_base
                0x0000000080877234       0x10 arch/arm/cpu/armv7/start.o
 .rel.text.do_mem_crc
                0x0000000080877244        0x8 arch/arm/cpu/armv7/start.o
 .rel.text.do_random
                0x000000008087724c       0x10 arch/arm/cpu/armv7/start.o
 .rel.text.mod_mem.isra.0.part.0
                0x000000008087725c       0x50 arch/arm/cpu/armv7/start.o
 .rel.text.do_mem_mw
                0x00000000808772ac        0x8 arch/arm/cpu/armv7/start.o
 .rel.text.do_mem_cp
                0x00000000808772b4       0x10 arch/arm/cpu/armv7/start.o
 .rel.text.do_mem_cmp
                0x00000000808772c4       0x38 arch/arm/cpu/armv7/start.o
 .rel.text.dump_field
                0x00000000808772fc       0x18 arch/arm/cpu/armv7/start.o
 .rel.text.do_mii
                0x0000000080877314      0x150 arch/arm/cpu/armv7/start.o
 .rel.text.do_mdio
                0x0000000080877464       0xb8 arch/arm/cpu/armv7/start.o
 .rel.text.do_mmcops
                0x000000008087751c       0x20 arch/arm/cpu/armv7/start.o
 .rel.text.print_mmcinfo
                0x000000008087753c      0x120 arch/arm/cpu/armv7/start.o
 .rel.text.do_mmc_setdsr
                0x000000008087765c       0x28 arch/arm/cpu/armv7/start.o
 .rel.text.__init_mmc_device.isra.0
                0x0000000080877684        0x8 arch/arm/cpu/armv7/start.o
 .rel.text.do_mmc_dev
                0x000000008087768c       0x38 arch/arm/cpu/armv7/start.o
 .rel.text.do_mmc_rescan
                0x00000000808776c4        0x8 arch/arm/cpu/armv7/start.o
 .rel.text.do_mmc_boot_wp
                0x00000000808776cc       0x18 arch/arm/cpu/armv7/start.o
 .rel.text.do_mmcinfo
                0x00000000808776e4       0x10 arch/arm/cpu/armv7/start.o
 .rel.text.do_mmc_part
                0x00000000808776f4       0x10 arch/arm/cpu/armv7/start.o
 .rel.text.do_mmc_erase
                0x0000000080877704       0x30 arch/arm/cpu/armv7/start.o
 .rel.text.do_mmc_write
                0x0000000080877734       0x30 arch/arm/cpu/armv7/start.o
 .rel.text.do_mmc_read
                0x0000000080877764       0x28 arch/arm/cpu/armv7/start.o
 .rel.text.mtd_part_info
                0x000000008087778c       0x28 arch/arm/cpu/armv7/start.o
 .rel.text.env_get_mtdparts
                0x00000000808777b4        0x8 arch/arm/cpu/armv7/start.o
 .rel.text.memsize_format
                0x00000000808777bc       0x20 arch/arm/cpu/armv7/start.o
 .rel.text.index_partitions
                0x00000000808777dc       0x28 arch/arm/cpu/armv7/start.o
 .rel.text.current_save
                0x0000000080877804       0x48 arch/arm/cpu/armv7/start.o
 .rel.text.part_sort_add
                0x000000008087784c       0x18 arch/arm/cpu/armv7/start.o
 .rel.text.device_del
                0x0000000080877864       0x18 arch/arm/cpu/armv7/start.o
 .rel.text.generate_mtdparts_save.constprop.0
                0x000000008087787c       0x18 arch/arm/cpu/armv7/start.o
 .rel.text.device_delall.constprop.0
                0x0000000080877894        0x8 arch/arm/cpu/armv7/start.o
 .rel.text.mtd_devices_init
                0x000000008087789c       0x10 arch/arm/cpu/armv7/start.o
 .rel.text.get_mtd_info.constprop.0
                0x00000000808778ac       0x30 arch/arm/cpu/armv7/start.o
 .rel.text.part_validate
                0x00000000808778dc       0x50 arch/arm/cpu/armv7/start.o
 .rel.text.device_find
                0x000000008087792c        0x8 arch/arm/cpu/armv7/start.o
 .rel.text.device_parse
                0x0000000080877934       0x58 arch/arm/cpu/armv7/start.o
 .rel.text.mtd_id_parse
                0x000000008087798c       0x38 arch/arm/cpu/armv7/start.o
 .rel.text.find_dev_and_part
                0x00000000808779c4       0x48 arch/arm/cpu/armv7/start.o
 .rel.text.mtdparts_init
                0x0000000080877a0c      0x118 arch/arm/cpu/armv7/start.o
 .rel.text.do_chpart
                0x0000000080877b24       0x40 arch/arm/cpu/armv7/start.o
 .rel.text.do_mtdparts
                0x0000000080877b64      0x128 arch/arm/cpu/armv7/start.o
 .rel.text.mtd_arg_off
                0x0000000080877c8c       0x10 arch/arm/cpu/armv7/start.o
 .rel.text.mtd_arg_off_size
                0x0000000080877c9c       0x28 arch/arm/cpu/armv7/start.o
 .rel.text.set_dev
                0x0000000080877cc4       0x18 arch/arm/cpu/armv7/start.o
 .rel.text.nand_load_image
                0x0000000080877cdc       0x50 arch/arm/cpu/armv7/start.o
 .rel.text.do_nandboot
                0x0000000080877d2c       0x20 arch/arm/cpu/armv7/start.o
 .rel.text.nand_print_and_set_info.constprop.0
                0x0000000080877d4c       0x60 arch/arm/cpu/armv7/start.o
 .rel.text.do_nand
                0x0000000080877dac      0x1c0 arch/arm/cpu/armv7/start.o
 .rel.text.netboot_common
                0x0000000080877f6c       0xb8 arch/arm/cpu/armv7/start.o
 .rel.text.do_ping
                0x0000000080878024       0x18 arch/arm/cpu/armv7/start.o
 .rel.text.do_part_list
                0x000000008087803c       0x28 arch/arm/cpu/armv7/start.o
 .rel.text.do_part_info
                0x0000000080878064       0x18 arch/arm/cpu/armv7/start.o
 .rel.text.do_part
                0x000000008087807c       0x68 arch/arm/cpu/armv7/start.o
 .rel.text.do_pxe
                0x00000000808780e4       0x10 arch/arm/cpu/armv7/start.o
 .rel.text.do_pxe_boot
                0x00000000808780f4       0x38 arch/arm/cpu/armv7/start.o
 .rel.text.do_get_tftp
                0x000000008087812c        0x8 arch/arm/cpu/armv7/start.o
 .rel.text.do_pxe_get
                0x0000000080878134       0x48 arch/arm/cpu/armv7/start.o
 .rel.text.label_print
                0x000000008087817c        0x8 arch/arm/cpu/armv7/start.o
 .rel.text.get_string
                0x0000000080878184        0x8 arch/arm/cpu/armv7/start.o
 .rel.text.get_token
                0x000000008087818c        0x8 arch/arm/cpu/armv7/start.o
 .rel.text.parse_sliteral
                0x0000000080878194        0x8 arch/arm/cpu/armv7/start.o
 .rel.text.parse_integer
                0x000000008087819c        0x8 arch/arm/cpu/armv7/start.o
 .rel.text.get_relfile
                0x00000000808781a4       0x38 arch/arm/cpu/armv7/start.o
 .rel.text.format_mac_pxe
                0x00000000808781dc       0x18 arch/arm/cpu/armv7/start.o
 .rel.text.label_boot
                0x00000000808781f4      0x110 arch/arm/cpu/armv7/start.o
 .rel.text.get_pxe_file
                0x0000000080878304        0x8 arch/arm/cpu/armv7/start.o
 .rel.text.handle_include
                0x000000008087830c       0x10 arch/arm/cpu/armv7/start.o
 .rel.text.parse_pxefile_top
                0x000000008087831c      0x158 arch/arm/cpu/armv7/start.o
 .rel.text.get_pxelinux_path
                0x0000000080878474       0x18 arch/arm/cpu/armv7/start.o
 .rel.text.handle_pxe_menu
                0x000000008087848c       0x18 arch/arm/cpu/armv7/start.o
 .rel.text.do_spi_flash
                0x00000000808784a4       0xf8 arch/arm/cpu/armv7/start.o
 .rel.text.do_spi
                0x000000008087859c       0x70 arch/arm/cpu/armv7/start.o
 .rel.text.do_sysboot
                0x000000008087860c       0x80 arch/arm/cpu/armv7/start.o
 .rel.text.do_get_any
                0x000000008087868c       0x10 arch/arm/cpu/armv7/start.o
 .rel.text.do_get_fat
                0x000000008087869c       0x10 arch/arm/cpu/armv7/start.o
 .rel.text.do_get_ext2
                0x00000000808786ac       0x10 arch/arm/cpu/armv7/start.o
 .rel.text.do_time
                0x00000000808786bc       0x18 arch/arm/cpu/armv7/start.o
 .rel.text.do_test
                0x00000000808786d4        0x8 arch/arm/cpu/armv7/start.o
 .rel.text.usb_get_class_desc
                0x00000000808786dc       0x50 arch/arm/cpu/armv7/start.o
 .rel.text.usb_display_class_sub
                0x000000008087872c       0x98 arch/arm/cpu/armv7/start.o
 .rel.text.usb_display_desc
                0x00000000808787c4       0x38 arch/arm/cpu/armv7/start.o
 .rel.text.usb_show_tree_graph
                0x00000000808787fc       0x48 arch/arm/cpu/armv7/start.o
 .rel.text.usb_display_string
                0x0000000080878844        0x8 arch/arm/cpu/armv7/start.o
 .rel.text.usb_display_config
                0x000000008087884c       0xa8 arch/arm/cpu/armv7/start.o
 .rel.text.do_usbboot
                0x00000000808788f4        0x8 arch/arm/cpu/armv7/start.o
 .rel.text.do_usb_start
                0x00000000808788fc        0x8 arch/arm/cpu/armv7/start.o
 .rel.text.usb_show_tree
                0x0000000080878904        0x8 arch/arm/cpu/armv7/start.o
 .rel.text.do_usb
                0x000000008087890c       0xf0 arch/arm/cpu/armv7/start.o
 .rel.text.common_diskboot
                0x00000000808789fc       0x38 arch/arm/cpu/armv7/start.o
 .rel.text.do_fastboot
                0x0000000080878a34       0x20 arch/arm/cpu/armv7/start.o
 .rel.text.do_imgextract
                0x0000000080878a54       0xc8 arch/arm/cpu/armv7/start.o
 .rel.text.do_spl
                0x0000000080878b1c       0x60 arch/arm/cpu/armv7/start.o
 .rel.text.do_dfu
                0x0000000080878b7c       0x18 arch/arm/cpu/armv7/start.o
 .rel.text.extract_val
                0x0000000080878b94       0x10 arch/arm/cpu/armv7/start.o
 .rel.text.extract_env
                0x0000000080878ba4        0x8 arch/arm/cpu/armv7/start.o
 .rel.text.set_gpt_info.isra.0.constprop.0
                0x0000000080878bac       0x80 arch/arm/cpu/armv7/start.o
 .rel.text.do_gpt
                0x0000000080878c2c       0x78 arch/arm/cpu/armv7/start.o
 .rel.text.do_env_delete
                0x0000000080878ca4       0x10 arch/arm/cpu/armv7/start.o
 .rel.text.do_env
                0x0000000080878cb4        0x8 arch/arm/cpu/armv7/start.o
 .rel.text.env_print
                0x0000000080878cbc       0x18 arch/arm/cpu/armv7/start.o
 .rel.text.do_env_print
                0x0000000080878cd4       0x10 arch/arm/cpu/armv7/start.o
 .rel.text.do_env_import
                0x0000000080878ce4       0x48 arch/arm/cpu/armv7/start.o
 .rel.text.do_env_default
                0x0000000080878d2c        0x8 arch/arm/cpu/armv7/start.o
 .rel.text.do_env_exists
                0x0000000080878d34        0x8 arch/arm/cpu/armv7/start.o
 .rel.text._do_env_set.isra.0
                0x0000000080878d3c       0x30 arch/arm/cpu/armv7/start.o
 .rel.text.do_env_ask
                0x0000000080878d6c       0x10 arch/arm/cpu/armv7/start.o
 .rel.text.env_get_id
                0x0000000080878d7c        0x8 arch/arm/cpu/armv7/start.o
 .rel.text.env_set
                0x0000000080878d84        0x8 arch/arm/cpu/armv7/start.o
 .rel.text.env_set_hex
                0x0000000080878d8c        0x8 arch/arm/cpu/armv7/start.o
 .rel.text.do_env_export
                0x0000000080878d94       0x20 arch/arm/cpu/armv7/start.o
 .rel.text.env_get_f
                0x0000000080878db4        0x8 arch/arm/cpu/armv7/start.o
 .rel.text.env_get
                0x0000000080878dbc        0x8 arch/arm/cpu/armv7/start.o
 .rel.text.eth_env_set_enetaddr
                0x0000000080878dc4        0x8 arch/arm/cpu/armv7/start.o
 .rel.text.from_env
                0x0000000080878dcc        0x8 arch/arm/cpu/armv7/start.o
 .rel.text.do_env_edit.part.0
                0x0000000080878dd4       0x18 arch/arm/cpu/armv7/start.o
 .rel.rodata.fdt_member_table
                0x0000000080878dec       0x50 arch/arm/cpu/armv7/start.o
 .rel.rodata.op_table
                0x0000000080878e3c       0x68 arch/arm/cpu/armv7/start.o
 .rel.rodata.mii_reg_desc_tbl
                0x0000000080878ea4       0x80 arch/arm/cpu/armv7/start.o
 .rel.rodata.reg_0_desc_tbl
                0x0000000080878f24       0x50 arch/arm/cpu/armv7/start.o
 .rel.rodata.reg_10_desc_tbl
                0x0000000080878f74       0x40 arch/arm/cpu/armv7/start.o
 .rel.rodata.reg_1_desc_tbl
                0x0000000080878fb4       0x80 arch/arm/cpu/armv7/start.o
 .rel.rodata.reg_2_desc_tbl
                0x0000000080879034        0x8 arch/arm/cpu/armv7/start.o
 .rel.rodata.reg_3_desc_tbl
                0x000000008087903c       0x18 arch/arm/cpu/armv7/start.o
 .rel.rodata.reg_4_desc_tbl
                0x0000000080879054       0x60 arch/arm/cpu/armv7/start.o
 .rel.rodata.reg_5_desc_tbl
                0x00000000808790b4       0x60 arch/arm/cpu/armv7/start.o
 .rel.rodata.reg_9_desc_tbl
                0x0000000080879114       0x40 arch/arm/cpu/armv7/start.o
 .rel.rodata.keywords
                0x0000000080879154       0x98 arch/arm/cpu/armv7/start.o
 .rel.rodata.op_adv
                0x00000000808791ec       0x80 arch/arm/cpu/armv7/start.o
 .rel.rodata.CSWTCH.45
                0x000000008087926c       0x28 arch/arm/cpu/armv7/start.o
 .rel.rodata.subcmd_list
                0x0000000080879294       0x10 arch/arm/cpu/armv7/start.o
 .rel.u_boot_list_2_cmd_2_go
                0x00000000808792a4       0x28 arch/arm/cpu/armv7/start.o
 .rel.u_boot_list_2_cmd_2_reset
                0x00000000808792cc       0x28 arch/arm/cpu/armv7/start.o
 .rel.data.cmd_bootm_sub
                0x00000000808792f4      0x120 arch/arm/cpu/armv7/start.o
 .rel.u_boot_list_2_cmd_2_boot
                0x0000000080879414       0x28 arch/arm/cpu/armv7/start.o
 .rel.u_boot_list_2_cmd_2_bootd
                0x000000008087943c       0x28 arch/arm/cpu/armv7/start.o
 .rel.u_boot_list_2_cmd_2_bootm
                0x0000000080879464       0x28 arch/arm/cpu/armv7/start.o
 .rel.u_boot_list_2_cmd_2_iminfo
                0x000000008087948c       0x28 arch/arm/cpu/armv7/start.o
 .rel.u_boot_list_2_cmd_2_help
                0x00000000808794b4       0x28 arch/arm/cpu/armv7/start.o
 .rel.u_boot_list_2_cmd_2_question_mark
                0x00000000808794dc       0x28 arch/arm/cpu/armv7/start.o
 .rel.u_boot_list_2_cmd_2_panic
                0x0000000080879504       0x28 arch/arm/cpu/armv7/start.o
 .rel.u_boot_list_2_cmd_2_version
                0x000000008087952c       0x28 arch/arm/cpu/armv7/start.o
 .rel.u_boot_list_2_cmd_2_source
                0x0000000080879554       0x28 arch/arm/cpu/armv7/start.o
 .rel.u_boot_list_2_cmd_2_bdinfo
                0x000000008087957c       0x28 arch/arm/cpu/armv7/start.o
 .rel.data.cmd_blkc_sub
                0x00000000808795a4       0x50 arch/arm/cpu/armv7/start.o
 .rel.u_boot_list_2_cmd_2_blkcache
                0x00000000808795f4       0x28 arch/arm/cpu/armv7/start.o
 .rel.u_boot_list_2_cmd_2_bootefi
                0x000000008087961c       0x28 arch/arm/cpu/armv7/start.o
 .rel.u_boot_list_2_cmd_2_bootz
                0x0000000080879644       0x28 arch/arm/cpu/armv7/start.o
 .rel.u_boot_list_2_cmd_2_coninfo
                0x000000008087966c       0x28 arch/arm/cpu/armv7/start.o
 .rel.data.test_commands
                0x0000000080879694       0xf0 arch/arm/cpu/armv7/start.o
 .rel.u_boot_list_2_cmd_2_dm
                0x0000000080879784       0x28 arch/arm/cpu/armv7/start.o
 .rel.u_boot_list_2_cmd_2_echo
                0x00000000808797ac       0x28 arch/arm/cpu/armv7/start.o
 .rel.u_boot_list_2_cmd_2_eeprom
                0x00000000808797d4       0x28 arch/arm/cpu/armv7/start.o
 .rel.u_boot_list_2_cmd_2_bootelf
                0x00000000808797fc       0x28 arch/arm/cpu/armv7/start.o
 .rel.u_boot_list_2_cmd_2_bootvx
                0x0000000080879824       0x28 arch/arm/cpu/armv7/start.o
 .rel.u_boot_list_2_cmd_2_exit
                0x000000008087984c       0x28 arch/arm/cpu/armv7/start.o
 .rel.u_boot_list_2_cmd_2_ext4load
                0x0000000080879874       0x28 arch/arm/cpu/armv7/start.o
 .rel.u_boot_list_2_cmd_2_ext4ls
                0x000000008087989c       0x28 arch/arm/cpu/armv7/start.o
 .rel.u_boot_list_2_cmd_2_ext4size
                0x00000000808798c4       0x28 arch/arm/cpu/armv7/start.o
 .rel.u_boot_list_2_cmd_2_ext4write
                0x00000000808798ec       0x28 arch/arm/cpu/armv7/start.o
 .rel.u_boot_list_2_cmd_2_ext2load
                0x0000000080879914       0x28 arch/arm/cpu/armv7/start.o
 .rel.u_boot_list_2_cmd_2_ext2ls
                0x000000008087993c       0x28 arch/arm/cpu/armv7/start.o
 .rel.u_boot_list_2_cmd_2_fatinfo
                0x0000000080879964       0x28 arch/arm/cpu/armv7/start.o
 .rel.u_boot_list_2_cmd_2_fatload
                0x000000008087998c       0x28 arch/arm/cpu/armv7/start.o
 .rel.u_boot_list_2_cmd_2_fatls
                0x00000000808799b4       0x28 arch/arm/cpu/armv7/start.o
 .rel.u_boot_list_2_cmd_2_fatmkdir
                0x00000000808799dc       0x28 arch/arm/cpu/armv7/start.o
 .rel.u_boot_list_2_cmd_2_fatrm
                0x0000000080879a04       0x28 arch/arm/cpu/armv7/start.o
 .rel.u_boot_list_2_cmd_2_fatsize
                0x0000000080879a2c       0x28 arch/arm/cpu/armv7/start.o
 .rel.u_boot_list_2_cmd_2_fatwrite
                0x0000000080879a54       0x28 arch/arm/cpu/armv7/start.o
 .rel.u_boot_list_2_cmd_2_fdt
                0x0000000080879a7c       0x28 arch/arm/cpu/armv7/start.o
 .rel.u_boot_list_2_cmd_2_fstype
                0x0000000080879aa4       0x28 arch/arm/cpu/armv7/start.o
 .rel.u_boot_list_2_cmd_2_fstypes
                0x0000000080879acc       0x28 arch/arm/cpu/armv7/start.o
 .rel.u_boot_list_2_cmd_2_ln
                0x0000000080879af4       0x28 arch/arm/cpu/armv7/start.o
 .rel.u_boot_list_2_cmd_2_load
                0x0000000080879b1c       0x28 arch/arm/cpu/armv7/start.o
 .rel.u_boot_list_2_cmd_2_ls
                0x0000000080879b44       0x28 arch/arm/cpu/armv7/start.o
 .rel.u_boot_list_2_cmd_2_save
                0x0000000080879b6c       0x28 arch/arm/cpu/armv7/start.o
 .rel.u_boot_list_2_cmd_2_size
                0x0000000080879b94       0x28 arch/arm/cpu/armv7/start.o
 .rel.u_boot_list_2_cmd_2_gpio
                0x0000000080879bbc       0x28 arch/arm/cpu/armv7/start.o
 .rel.data.cmd_i2c_sub
                0x0000000080879be4      0x258 arch/arm/cpu/armv7/start.o
 .rel.u_boot_list_2_cmd_2_i2c
                0x0000000080879e3c       0x28 arch/arm/cpu/armv7/start.o
 .rel.u_boot_list_2_cmd_2_itest
                0x0000000080879e64       0x28 arch/arm/cpu/armv7/start.o
 .rel.u_boot_list_2_cmd_2_loadb
                0x0000000080879e8c       0x28 arch/arm/cpu/armv7/start.o
 .rel.u_boot_list_2_cmd_2_loads
                0x0000000080879eb4       0x28 arch/arm/cpu/armv7/start.o
 .rel.u_boot_list_2_cmd_2_loadx
                0x0000000080879edc       0x28 arch/arm/cpu/armv7/start.o
 .rel.u_boot_list_2_cmd_2_loady
                0x0000000080879f04       0x28 arch/arm/cpu/armv7/start.o
 .rel.u_boot_list_2_cmd_2_base
                0x0000000080879f2c       0x28 arch/arm/cpu/armv7/start.o
 .rel.u_boot_list_2_cmd_2_cmp
                0x0000000080879f54       0x28 arch/arm/cpu/armv7/start.o
 .rel.u_boot_list_2_cmd_2_cp
                0x0000000080879f7c       0x28 arch/arm/cpu/armv7/start.o
 .rel.u_boot_list_2_cmd_2_crc32
                0x0000000080879fa4       0x28 arch/arm/cpu/armv7/start.o
 .rel.u_boot_list_2_cmd_2_loop
                0x0000000080879fcc       0x28 arch/arm/cpu/armv7/start.o
 .rel.u_boot_list_2_cmd_2_md
                0x0000000080879ff4       0x28 arch/arm/cpu/armv7/start.o
 .rel.u_boot_list_2_cmd_2_mm
                0x000000008087a01c       0x28 arch/arm/cpu/armv7/start.o
 .rel.u_boot_list_2_cmd_2_mw
                0x000000008087a044       0x28 arch/arm/cpu/armv7/start.o
 .rel.u_boot_list_2_cmd_2_nm
                0x000000008087a06c       0x28 arch/arm/cpu/armv7/start.o
 .rel.u_boot_list_2_cmd_2_random
                0x000000008087a094       0x28 arch/arm/cpu/armv7/start.o
 .rel.u_boot_list_2_cmd_2_mii
                0x000000008087a0bc       0x28 arch/arm/cpu/armv7/start.o
 .rel.u_boot_list_2_cmd_2_mdio
                0x000000008087a0e4       0x28 arch/arm/cpu/armv7/start.o
 .rel.u_boot_list_2_cmd_2_sleep
                0x000000008087a10c       0x28 arch/arm/cpu/armv7/start.o
 .rel.data.cmd_mmc
                0x000000008087a134      0x190 arch/arm/cpu/armv7/start.o
 .rel.u_boot_list_2_cmd_2_mmc
                0x000000008087a2c4       0x28 arch/arm/cpu/armv7/start.o
 .rel.u_boot_list_2_cmd_2_mmcinfo
                0x000000008087a2ec       0x28 arch/arm/cpu/armv7/start.o
 .rel.u_boot_list_2_cmd_2_chpart
                0x000000008087a314       0x28 arch/arm/cpu/armv7/start.o
 .rel.u_boot_list_2_cmd_2_mtdparts
                0x000000008087a33c       0x28 arch/arm/cpu/armv7/start.o
 .rel.u_boot_list_2_cmd_2_nand
                0x000000008087a364       0x28 arch/arm/cpu/armv7/start.o
 .rel.u_boot_list_2_cmd_2_nboot
                0x000000008087a38c       0x28 arch/arm/cpu/armv7/start.o
 .rel.u_boot_list_2_cmd_2_bootp
                0x000000008087a3b4       0x28 arch/arm/cpu/armv7/start.o
 .rel.u_boot_list_2_cmd_2_dhcp
                0x000000008087a3dc       0x28 arch/arm/cpu/armv7/start.o
 .rel.u_boot_list_2_cmd_2_nfs
                0x000000008087a404       0x28 arch/arm/cpu/armv7/start.o
 .rel.u_boot_list_2_cmd_2_ping
                0x000000008087a42c       0x28 arch/arm/cpu/armv7/start.o
 .rel.u_boot_list_2_cmd_2_tftpboot
                0x000000008087a454       0x28 arch/arm/cpu/armv7/start.o
 .rel.u_boot_list_2_cmd_2_part
                0x000000008087a47c       0x28 arch/arm/cpu/armv7/start.o
 .rel.data.cmd_pxe_sub
                0x000000008087a4a4       0x50 arch/arm/cpu/armv7/start.o
 .rel.data.pxe_default_paths
                0x000000008087a4f4       0x20 arch/arm/cpu/armv7/start.o
 .rel.u_boot_list_2_cmd_2_pxe
                0x000000008087a514       0x28 arch/arm/cpu/armv7/start.o
 .rel.u_boot_list_2_cmd_2_sf
                0x000000008087a53c       0x28 arch/arm/cpu/armv7/start.o
 .rel.u_boot_list_2_cmd_2_sspi
                0x000000008087a564       0x28 arch/arm/cpu/armv7/start.o
 .rel.u_boot_list_2_cmd_2_sysboot
                0x000000008087a58c       0x28 arch/arm/cpu/armv7/start.o
 .rel.u_boot_list_2_cmd_2_time
                0x000000008087a5b4       0x28 arch/arm/cpu/armv7/start.o
 .rel.u_boot_list_2_cmd_2_false
                0x000000008087a5dc       0x20 arch/arm/cpu/armv7/start.o
 .rel.u_boot_list_2_cmd_2_test
                0x000000008087a5fc       0x28 arch/arm/cpu/armv7/start.o
 .rel.u_boot_list_2_cmd_2_true
                0x000000008087a624       0x20 arch/arm/cpu/armv7/start.o
 .rel.u_boot_list_2_cmd_2_usb
                0x000000008087a644       0x28 arch/arm/cpu/armv7/start.o
 .rel.u_boot_list_2_cmd_2_usbboot
                0x000000008087a66c       0x28 arch/arm/cpu/armv7/start.o
 .rel.u_boot_list_2_cmd_2_fastboot
                0x000000008087a694       0x28 arch/arm/cpu/armv7/start.o
 .rel.u_boot_list_2_cmd_2_imxtract
                0x000000008087a6bc       0x28 arch/arm/cpu/armv7/start.o
 .rel.data.__compound_literal.0
                0x000000008087a6e4       0x38 arch/arm/cpu/armv7/start.o
 .rel.data.__compound_literal.1
                0x000000008087a71c       0x30 arch/arm/cpu/armv7/start.o
 .rel.data.cmd_spl_export_sub
                0x000000008087a74c       0x40 arch/arm/cpu/armv7/start.o
 .rel.data.cmd_spl_sub
                0x000000008087a78c       0x20 arch/arm/cpu/armv7/start.o
 .rel.u_boot_list_2_cmd_2_spl
                0x000000008087a7ac       0x28 arch/arm/cpu/armv7/start.o
 .rel.u_boot_list_2_cmd_2_dfu
                0x000000008087a7d4       0x28 arch/arm/cpu/armv7/start.o
 .rel.u_boot_list_2_cmd_2_gpt
                0x000000008087a7fc       0x28 arch/arm/cpu/armv7/start.o
 .rel.data.cmd_env_sub
                0x000000008087a824      0x1b8 arch/arm/cpu/armv7/start.o
 .rel.u_boot_list_2_cmd_2_askenv
                0x000000008087a9dc       0x28 arch/arm/cpu/armv7/start.o
 .rel.u_boot_list_2_cmd_2_editenv
                0x000000008087aa04       0x30 arch/arm/cpu/armv7/start.o
 .rel.u_boot_list_2_cmd_2_env
                0x000000008087aa34       0x28 arch/arm/cpu/armv7/start.o
 .rel.u_boot_list_2_cmd_2_printenv
                0x000000008087aa5c       0x30 arch/arm/cpu/armv7/start.o
 .rel.u_boot_list_2_cmd_2_run
                0x000000008087aa8c       0x30 arch/arm/cpu/armv7/start.o
 .rel.u_boot_list_2_cmd_2_saveenv
                0x000000008087aabc       0x28 arch/arm/cpu/armv7/start.o
 .rel.u_boot_list_2_cmd_2_setenv
                0x000000008087aae4       0x30 arch/arm/cpu/armv7/start.o
 .rel.text.main_loop
                0x000000008087ab14       0x18 arch/arm/cpu/armv7/start.o
 .rel.text.jumptable_init
                0x000000008087ab2c       0xd8 arch/arm/cpu/armv7/start.o
 .rel.text.hash_lookup_algo
                0x000000008087ac04        0x8 arch/arm/cpu/armv7/start.o
 .rel.text.hash_command
                0x000000008087ac0c       0x28 arch/arm/cpu/armv7/start.o
 .rel.text.mapset
                0x000000008087ac34        0x8 arch/arm/cpu/armv7/start.o
 .rel.text.syntax_err
                0x000000008087ac3c        0x8 arch/arm/cpu/armv7/start.o
 .rel.text.xmalloc
                0x000000008087ac44        0x8 arch/arm/cpu/armv7/start.o
 .rel.text.xrealloc
                0x000000008087ac4c        0x8 arch/arm/cpu/armv7/start.o
 .rel.text.done_word
                0x000000008087ac54        0x8 arch/arm/cpu/armv7/start.o
 .rel.text.is_assignment
                0x000000008087ac5c        0x8 arch/arm/cpu/armv7/start.o
 .rel.text.file_get
                0x000000008087ac64       0x30 arch/arm/cpu/armv7/start.o
 .rel.text.do_showvar
                0x000000008087ac94       0x20 arch/arm/cpu/armv7/start.o
 .rel.text.b_addqchr
                0x000000008087acb4        0x8 arch/arm/cpu/armv7/start.o
 .rel.text.get_local_var
                0x000000008087acbc       0x20 arch/arm/cpu/armv7/start.o
 .rel.text.set_local_var
                0x000000008087acdc       0x18 arch/arm/cpu/armv7/start.o
 .rel.text.insert_var_value_sub
                0x000000008087acf4        0x8 arch/arm/cpu/armv7/start.o
 .rel.text.parse_string_outer
                0x000000008087acfc       0x18 arch/arm/cpu/armv7/start.o
 .rel.text.run_list_real
                0x000000008087ad14       0x50 arch/arm/cpu/armv7/start.o
 .rel.text.parse_stream_outer
                0x000000008087ad64       0x70 arch/arm/cpu/armv7/start.o
 .rel.text.parse_file_outer
                0x000000008087add4       0x10 arch/arm/cpu/armv7/start.o
 .rel.text.u_boot_hush_start
                0x000000008087ade4       0x18 arch/arm/cpu/armv7/start.o
 .rel.text.bootdelay_process
                0x000000008087adfc       0x68 arch/arm/cpu/armv7/start.o
 .rel.text.autoboot_command
                0x000000008087ae64       0x20 arch/arm/cpu/armv7/start.o
 .rel.text.setup_mon_len
                0x000000008087ae84       0x10 arch/arm/cpu/armv7/start.o
 .rel.text.announce_dram_init
                0x000000008087ae94        0x8 arch/arm/cpu/armv7/start.o
 .rel.text.init_baud_rate
                0x000000008087ae9c        0x8 arch/arm/cpu/armv7/start.o
 .rel.text.show_dram_config
                0x000000008087aea4        0x8 arch/arm/cpu/armv7/start.o
 .rel.text.board_init_f
                0x000000008087aeac       0x10 arch/arm/cpu/armv7/start.o
 .rel.text.initr_net
                0x000000008087aebc        0x8 arch/arm/cpu/armv7/start.o
 .rel.text.initr_ethaddr
                0x000000008087aec4        0x8 arch/arm/cpu/armv7/start.o
 .rel.text.initr_env
                0x000000008087aecc       0x20 arch/arm/cpu/armv7/start.o
 .rel.text.initr_mmc
                0x000000008087aeec        0x8 arch/arm/cpu/armv7/start.o
 .rel.text.initr_nand
                0x000000008087aef4       0x10 arch/arm/cpu/armv7/start.o
 .rel.text.initr_reloc_global_data
                0x000000008087af04       0x18 arch/arm/cpu/armv7/start.o
 .rel.text.board_init_r
                0x000000008087af1c       0x10 arch/arm/cpu/armv7/start.o
 .rel.text.bootm_find_images
                0x000000008087af2c       0x38 arch/arm/cpu/armv7/start.o
 .rel.text.do_bootm_states
                0x000000008087af64      0x120 arch/arm/cpu/armv7/start.o
 .rel.text.do_bootm_rtems
                0x000000008087b084        0x8 arch/arm/cpu/armv7/start.o
 .rel.text.do_bootm_vxworks
                0x000000008087b08c       0x48 arch/arm/cpu/armv7/start.o
 .rel.text.do_bootm_efi
                0x000000008087b0d4       0x18 arch/arm/cpu/armv7/start.o
 .rel.text.do_bootm_plan9
                0x000000008087b0ec       0x18 arch/arm/cpu/armv7/start.o
 .rel.text.do_bootm_standalone
                0x000000008087b104       0x18 arch/arm/cpu/armv7/start.o
 .rel.text.do_bootm_qnxelf
                0x000000008087b11c        0x8 arch/arm/cpu/armv7/start.o
 .rel.text.do_bootm_netbsd
                0x000000008087b124       0x18 arch/arm/cpu/armv7/start.o
 .rel.text.bootm_os_get_boot_func
                0x000000008087b13c        0x8 arch/arm/cpu/armv7/start.o
 .rel.text.fdt_support_default_count_cells
                0x000000008087b144        0x8 arch/arm/cpu/armv7/start.o
 .rel.text.__of_translate_address
                0x000000008087b14c       0x18 arch/arm/cpu/armv7/start.o
 .rel.text.fdt_find_or_add_subnode
                0x000000008087b164       0x10 arch/arm/cpu/armv7/start.o
 .rel.text.fdt_root
                0x000000008087b174       0x20 arch/arm/cpu/armv7/start.o
 .rel.text.fdt_initrd
                0x000000008087b194       0x30 arch/arm/cpu/armv7/start.o
 .rel.text.fdt_chosen
                0x000000008087b1c4       0x20 arch/arm/cpu/armv7/start.o
 .rel.text.do_fixup_by_path
                0x000000008087b1e4        0x8 arch/arm/cpu/armv7/start.o
 .rel.text.fdt_fixup_memory_banks
                0x000000008087b1ec       0x38 arch/arm/cpu/armv7/start.o
 .rel.text.fdt_fixup_ethernet
                0x000000008087b224       0x30 arch/arm/cpu/armv7/start.o
 .rel.text.fdt_translate_address
                0x000000008087b254        0x8 arch/arm/cpu/armv7/start.o
 .rel.text.fdt_overlay_apply_verbose
                0x000000008087b25c       0x20 arch/arm/cpu/armv7/start.o
 .rel.text.miiphy_get_dev_by_name
                0x000000008087b27c       0x10 arch/arm/cpu/armv7/start.o
 .rel.text.miiphy_init
                0x000000008087b28c       0x10 arch/arm/cpu/armv7/start.o
 .rel.text.mdio_register
                0x000000008087b29c       0x18 arch/arm/cpu/armv7/start.o
 .rel.text.mdio_list_devices
                0x000000008087b2b4       0x28 arch/arm/cpu/armv7/start.o
 .rel.text.miiphy_set_current_dev
                0x000000008087b2dc       0x10 arch/arm/cpu/armv7/start.o
 .rel.text.miiphy_get_active_dev
                0x000000008087b2ec        0x8 arch/arm/cpu/armv7/start.o
 .rel.text.mdio_get_current_dev
                0x000000008087b2f4        0x8 arch/arm/cpu/armv7/start.o
 .rel.text.mdio_phydev_for_ethname
                0x000000008087b2fc       0x10 arch/arm/cpu/armv7/start.o
 .rel.text.miiphy_get_current_dev
                0x000000008087b30c        0x8 arch/arm/cpu/armv7/start.o
 .rel.text.miiphy_listdev
                0x000000008087b314       0x30 arch/arm/cpu/armv7/start.o
 .rel.text.miiphy_speed
                0x000000008087b344       0x20 arch/arm/cpu/armv7/start.o
 .rel.text.miiphy_duplex
                0x000000008087b364       0x20 arch/arm/cpu/armv7/start.o
 .rel.text.get_descriptor_len
                0x000000008087b384       0x10 arch/arm/cpu/armv7/start.o
 .rel.text.usb_setup_descriptor
                0x000000008087b394       0x10 arch/arm/cpu/armv7/start.o
 .rel.text.usb_string_sub
                0x000000008087b3a4        0x8 arch/arm/cpu/armv7/start.o
 .rel.text.usb_get_configuration_len
                0x000000008087b3ac       0x10 arch/arm/cpu/armv7/start.o
 .rel.text.usb_set_interface
                0x000000008087b3bc        0x8 arch/arm/cpu/armv7/start.o
 .rel.text.usb_select_config
                0x000000008087b3c4       0x70 arch/arm/cpu/armv7/start.o
 .rel.text.usb_setup_device
                0x000000008087b434       0x10 arch/arm/cpu/armv7/start.o
 .rel.text.usb_find_usb2_hub_address_port
                0x000000008087b444        0x8 arch/arm/cpu/armv7/start.o
 .rel.text.usb_hub_port_connect_change
                0x000000008087b44c        0x8 arch/arm/cpu/armv7/start.o
 .rel.text.usb_hub_configure
                0x000000008087b454       0x28 arch/arm/cpu/armv7/start.o
 .rel.text.usb_stor_BBB_transport
                0x000000008087b47c       0x10 arch/arm/cpu/armv7/start.o
 .rel.text.usb_stor_CB_comdat
                0x000000008087b48c        0x8 arch/arm/cpu/armv7/start.o
 .rel.text.usb_stor_CBI_get_status.isra.0
                0x000000008087b494        0x8 arch/arm/cpu/armv7/start.o
 .rel.text.usb_stor_CB_transport
                0x000000008087b49c       0x10 arch/arm/cpu/armv7/start.o
 .rel.text.usb_request_sense.constprop.0
                0x000000008087b4ac        0x8 arch/arm/cpu/armv7/start.o
 .rel.text.usb_stor_read
                0x000000008087b4b4        0x8 arch/arm/cpu/armv7/start.o
 .rel.text.usb_stor_write
                0x000000008087b4bc        0x8 arch/arm/cpu/armv7/start.o
 .rel.text.usb_stor_info
                0x000000008087b4c4       0x10 arch/arm/cpu/armv7/start.o
 .rel.text.usb_stor_reset
                0x000000008087b4d4        0x8 arch/arm/cpu/armv7/start.o
 .rel.text.usb_stor_scan
                0x000000008087b4dc       0x18 arch/arm/cpu/armv7/start.o
 .rel.text.usb_storage_probe
                0x000000008087b4f4       0x38 arch/arm/cpu/armv7/start.o
 .rel.text.usb_stor_get_info
                0x000000008087b52c       0x20 arch/arm/cpu/armv7/start.o
 .rel.text.usb_mass_storage_probe
                0x000000008087b54c       0x18 arch/arm/cpu/armv7/start.o
 .rel.text.menu_get_choice
                0x000000008087b564       0x18 arch/arm/cpu/armv7/start.o
 .rel.text.update_tftp
                0x000000008087b57c       0x90 arch/arm/cpu/armv7/start.o
 .rel.text.delete_char.part.0
                0x000000008087b60c       0x10 arch/arm/cpu/armv7/start.o
 .rel.text.cread_add_char
                0x000000008087b61c        0x8 arch/arm/cpu/armv7/start.o
 .rel.text.cli_readline_into_buffer
                0x000000008087b624      0x108 arch/arm/cpu/armv7/start.o
 .rel.text.cli_readline
                0x000000008087b72c        0x8 arch/arm/cpu/armv7/start.o
 .rel.text.cli_simple_process_macros
                0x000000008087b734       0x10 arch/arm/cpu/armv7/start.o
 .rel.text.show_board_info
                0x000000008087b744       0x10 arch/arm/cpu/armv7/start.o
 .rel.text.console_setfile
                0x000000008087b754       0x30 arch/arm/cpu/armv7/start.o
 .rel.text.console_puts_select.part.0
                0x000000008087b784        0x8 arch/arm/cpu/armv7/start.o
 .rel.text.fgetc.part.0
                0x000000008087b78c        0x8 arch/arm/cpu/armv7/start.o
 .rel.text.putc
                0x000000008087b794        0x8 arch/arm/cpu/armv7/start.o
 .rel.text.ftstc
                0x000000008087b79c        0x8 arch/arm/cpu/armv7/start.o
 .rel.text.ctrlc
                0x000000008087b7a4       0x10 arch/arm/cpu/armv7/start.o
 .rel.text.confirm_yesno
                0x000000008087b7b4       0x20 arch/arm/cpu/armv7/start.o
 .rel.text.disable_ctrlc
                0x000000008087b7d4        0x8 arch/arm/cpu/armv7/start.o
 .rel.text.had_ctrlc
                0x000000008087b7dc        0x8 arch/arm/cpu/armv7/start.o
 .rel.text.clear_ctrlc
                0x000000008087b7e4        0x8 arch/arm/cpu/armv7/start.o
 .rel.text.on_console
                0x000000008087b7ec       0x20 arch/arm/cpu/armv7/start.o
 .rel.text.console_init_r
                0x000000008087b80c       0x10 arch/arm/cpu/armv7/start.o
 .rel.text.sbrk
                0x000000008087b81c       0x18 arch/arm/cpu/armv7/start.o
 .rel.text.mem_malloc_init
                0x000000008087b834       0x18 arch/arm/cpu/armv7/start.o
 .rel.text.malloc_trim
                0x000000008087b84c       0x18 arch/arm/cpu/armv7/start.o
 .rel.text.free
                0x000000008087b864       0x20 arch/arm/cpu/armv7/start.o
 .rel.text.malloc
                0x000000008087b884       0x48 arch/arm/cpu/armv7/start.o
 .rel.text.calloc
                0x000000008087b8cc        0x8 arch/arm/cpu/armv7/start.o
 .rel.text.realloc
                0x000000008087b8d4       0x10 arch/arm/cpu/armv7/start.o
 .rel.text.alloc_simple
                0x000000008087b8e4        0x8 arch/arm/cpu/armv7/start.o
 .rel.text.on_loadaddr
                0x000000008087b8ec        0x8 arch/arm/cpu/armv7/start.o
 .rel.text.env_get_bootm_low
                0x000000008087b8f4        0x8 arch/arm/cpu/armv7/start.o
 .rel.text.env_get_bootm_size
                0x000000008087b8fc       0x10 arch/arm/cpu/armv7/start.o
 .rel.text.env_get_bootm_mapsize
                0x000000008087b90c        0x8 arch/arm/cpu/armv7/start.o
 .rel.text.genimg_print_size
                0x000000008087b914       0x10 arch/arm/cpu/armv7/start.o
 .rel.text.genimg_print_time
                0x000000008087b924        0x8 arch/arm/cpu/armv7/start.o
 .rel.text.genimg_get_os_name
                0x000000008087b92c       0x10 arch/arm/cpu/armv7/start.o
 .rel.text.genimg_get_arch_name
                0x000000008087b93c       0x10 arch/arm/cpu/armv7/start.o
 .rel.text.genimg_get_type_name
                0x000000008087b94c       0x10 arch/arm/cpu/armv7/start.o
 .rel.text.image_decomp
                0x000000008087b95c       0x28 arch/arm/cpu/armv7/start.o
 .rel.text.genimg_get_comp_name
                0x000000008087b984       0x10 arch/arm/cpu/armv7/start.o
 .rel.text.image_print_contents
                0x000000008087b994       0x60 arch/arm/cpu/armv7/start.o
 .rel.text.genimg_get_os_id
                0x000000008087b9f4       0x10 arch/arm/cpu/armv7/start.o
 .rel.text.genimg_get_arch_id
                0x000000008087ba04       0x10 arch/arm/cpu/armv7/start.o
 .rel.text.genimg_get_type_id
                0x000000008087ba14       0x10 arch/arm/cpu/armv7/start.o
 .rel.text.genimg_get_comp_id
                0x000000008087ba24       0x10 arch/arm/cpu/armv7/start.o
 .rel.text.genimg_get_kernel_addr_fit
                0x000000008087ba34        0x8 arch/arm/cpu/armv7/start.o
 .rel.text.boot_get_ramdisk
                0x000000008087ba3c       0x68 arch/arm/cpu/armv7/start.o
 .rel.text.boot_ramdisk_high
                0x000000008087baa4       0x20 arch/arm/cpu/armv7/start.o
 .rel.text.boot_get_loadable
                0x000000008087bac4       0x20 arch/arm/cpu/armv7/start.o
 .rel.text.android_image_get_kernel_addr
                0x000000008087bae4        0x8 arch/arm/cpu/armv7/start.o
 .rel.text.android_image_get_kernel
                0x000000008087baec       0x38 arch/arm/cpu/armv7/start.o
 .rel.text.android_image_check_header
                0x000000008087bb24        0x8 arch/arm/cpu/armv7/start.o
 .rel.text.android_image_get_dtb_img_addr
                0x000000008087bb2c       0x18 arch/arm/cpu/armv7/start.o
 .rel.text.android_image_get_ramdisk
                0x000000008087bb44        0x8 arch/arm/cpu/armv7/start.o
 .rel.text.android_image_get_second
                0x000000008087bb4c        0x8 arch/arm/cpu/armv7/start.o
 .rel.text.android_image_get_dtb_by_index
                0x000000008087bb54       0x10 arch/arm/cpu/armv7/start.o
 .rel.text.android_print_contents
                0x000000008087bb64       0x90 arch/arm/cpu/armv7/start.o
 .rel.text.android_dt_get_fdt_by_index
                0x000000008087bbf4        0x8 arch/arm/cpu/armv7/start.o
 .rel.text.fdt_error
                0x000000008087bbfc       0x10 arch/arm/cpu/armv7/start.o
 .rel.text.boot_fdt_add_mem_rsv_regions
                0x000000008087bc0c       0x20 arch/arm/cpu/armv7/start.o
 .rel.text.boot_relocate_fdt
                0x000000008087bc2c       0x40 arch/arm/cpu/armv7/start.o
 .rel.text.boot_get_fdt
                0x000000008087bc6c       0xa0 arch/arm/cpu/armv7/start.o
 .rel.text.image_setup_libfdt
                0x000000008087bd0c       0x28 arch/arm/cpu/armv7/start.o
 .rel.text.fit_image_get_address
                0x000000008087bd34        0x8 arch/arm/cpu/armv7/start.o
 .rel.text.fit_get_desc
                0x000000008087bd3c        0x8 arch/arm/cpu/armv7/start.o
 .rel.text.fit_get_timestamp
                0x000000008087bd44        0x8 arch/arm/cpu/armv7/start.o
 .rel.text.fit_image_get_node
                0x000000008087bd4c        0x8 arch/arm/cpu/armv7/start.o
 .rel.text.fit_image_get_os
                0x000000008087bd54        0x8 arch/arm/cpu/armv7/start.o
 .rel.text.fit_image_get_arch
                0x000000008087bd5c        0x8 arch/arm/cpu/armv7/start.o
 .rel.text.fit_image_get_type
                0x000000008087bd64        0x8 arch/arm/cpu/armv7/start.o
 .rel.text.fit_image_get_comp
                0x000000008087bd6c        0x8 arch/arm/cpu/armv7/start.o
 .rel.text.fit_image_get_load
                0x000000008087bd74        0x8 arch/arm/cpu/armv7/start.o
 .rel.text.fit_image_get_entry
                0x000000008087bd7c        0x8 arch/arm/cpu/armv7/start.o
 .rel.text.fit_image_get_data
                0x000000008087bd84        0x8 arch/arm/cpu/armv7/start.o
 .rel.text.fit_image_get_data_offset
                0x000000008087bd8c        0x8 arch/arm/cpu/armv7/start.o
 .rel.text.fit_image_get_data_position
                0x000000008087bd94        0x8 arch/arm/cpu/armv7/start.o
 .rel.text.fit_image_get_data_size
                0x000000008087bd9c        0x8 arch/arm/cpu/armv7/start.o
 .rel.text.fit_image_hash_get_algo
                0x000000008087bda4        0x8 arch/arm/cpu/armv7/start.o
 .rel.text.fit_image_hash_get_value
                0x000000008087bdac        0x8 arch/arm/cpu/armv7/start.o
 .rel.text.fit_image_print_data
                0x000000008087bdb4       0x70 arch/arm/cpu/armv7/start.o
 .rel.text.fit_image_print_verification_data
                0x000000008087be24       0x20 arch/arm/cpu/armv7/start.o
 .rel.text.fit_image_print
                0x000000008087be44       0x70 arch/arm/cpu/armv7/start.o
 .rel.text.fit_print_contents
                0x000000008087beb4       0xd0 arch/arm/cpu/armv7/start.o
 .rel.text.calculate_hash
                0x000000008087bf84       0x20 arch/arm/cpu/armv7/start.o
 .rel.text.fit_image_verify_with_data
                0x000000008087bfa4       0x60 arch/arm/cpu/armv7/start.o
 .rel.text.fit_image_verify
                0x000000008087c004       0x10 arch/arm/cpu/armv7/start.o
 .rel.text.fit_all_image_verify
                0x000000008087c014       0x28 arch/arm/cpu/armv7/start.o
 .rel.text.fit_check_format
                0x000000008087c03c       0x18 arch/arm/cpu/armv7/start.o
 .rel.text.fit_conf_get_node
                0x000000008087c054       0x10 arch/arm/cpu/armv7/start.o
 .rel.text.fit_image_load
                0x000000008087c064       0xa0 arch/arm/cpu/armv7/start.o
 .rel.text.boot_get_setup_fit
                0x000000008087c104        0x8 arch/arm/cpu/armv7/start.o
 .rel.text.boot_get_fdt_fit
                0x000000008087c10c       0x20 arch/arm/cpu/armv7/start.o
 .rel.text.stdio_get_list
                0x000000008087c12c        0x8 arch/arm/cpu/armv7/start.o
 .rel.text.stdio_get_by_name
                0x000000008087c134        0x8 arch/arm/cpu/armv7/start.o
 .rel.text.stdio_register_dev
                0x000000008087c13c        0x8 arch/arm/cpu/armv7/start.o
 .rel.text.stdio_init_tables
                0x000000008087c144        0x8 arch/arm/cpu/armv7/start.o
 .rel.text.stdio_add_devices
                0x000000008087c14c       0x28 arch/arm/cpu/armv7/start.o
 .rel.text.do_run
                0x000000008087c174        0x8 arch/arm/cpu/armv7/start.o
 .rel.text.cli_process_fdt
                0x000000008087c17c       0x10 arch/arm/cpu/armv7/start.o
 .rel.text.cli_secure_boot_cmd
                0x000000008087c18c       0x18 arch/arm/cpu/armv7/start.o
 .rel.text.run_usb_dnl_gadget
                0x000000008087c1a4        0x8 arch/arm/cpu/armv7/start.o
 .rel.text.find_cmd
                0x000000008087c1ac       0x10 arch/arm/cpu/armv7/start.o
 .rel.text.cmd_usage
                0x000000008087c1bc       0x18 arch/arm/cpu/armv7/start.o
 .rel.text._do_help
                0x000000008087c1d4       0x10 arch/arm/cpu/armv7/start.o
 .rel.text.var_complete
                0x000000008087c1e4       0x10 arch/arm/cpu/armv7/start.o
 .rel.text.complete_subcmdv
                0x000000008087c1f4        0x8 arch/arm/cpu/armv7/start.o
 .rel.text.cmd_auto_complete
                0x000000008087c1fc       0x40 arch/arm/cpu/armv7/start.o
 .rel.text.cmd_get_data_size
                0x000000008087c23c        0x8 arch/arm/cpu/armv7/start.o
 .rel.text.cmd_process
                0x000000008087c244       0x38 arch/arm/cpu/armv7/start.o
 .rel.text.cmd_process_error
                0x000000008087c27c        0x8 arch/arm/cpu/armv7/start.o
 .rel.text.srec_decode
                0x000000008087c284       0x50 arch/arm/cpu/armv7/start.o
 .rel.text.xyzModem_get_hdr
                0x000000008087c2d4       0x30 arch/arm/cpu/armv7/start.o
 .rel.text.xyzModem_stream_open
                0x000000008087c304       0x10 arch/arm/cpu/armv7/start.o
 .rel.text.xyzModem_stream_read
                0x000000008087c314        0x8 arch/arm/cpu/armv7/start.o
 .rel.text.xyzModem_stream_close
                0x000000008087c31c       0x20 arch/arm/cpu/armv7/start.o
 .rel.text.xyzModem_stream_terminate
                0x000000008087c33c        0x8 arch/arm/cpu/armv7/start.o
 .rel.text.xyzModem_error
                0x000000008087c344       0x10 arch/arm/cpu/armv7/start.o
 .rel.rodata.init_sequence_f
                0x000000008087c354      0x1b0 arch/arm/cpu/armv7/start.o
 .rel.rodata.boot_os
                0x000000008087c504       0x40 arch/arm/cpu/armv7/start.o
 .rel.rodata.usb_hub_ids
                0x000000008087c544        0x8 arch/arm/cpu/armv7/start.o
 .rel.rodata.usb_mass_storage_ids
                0x000000008087c54c        0x8 arch/arm/cpu/armv7/start.o
 .rel.rodata.usb_storage_ops
                0x000000008087c554       0x10 arch/arm/cpu/armv7/start.o
 .rel.rodata.uimage_arch
                0x000000008087c564      0x1b0 arch/arm/cpu/armv7/start.o
 .rel.rodata.uimage_comp
                0x000000008087c714       0x80 arch/arm/cpu/armv7/start.o
 .rel.rodata.uimage_os
                0x000000008087c794       0xe0 arch/arm/cpu/armv7/start.o
 .rel.rodata.uimage_type
                0x000000008087c874      0x280 arch/arm/cpu/armv7/start.o
 .rel.rodata.CSWTCH.200
                0x000000008087caf4       0xe8 arch/arm/cpu/armv7/start.o
 .rel.rodata.CSWTCH.32
                0x000000008087cbdc       0x80 arch/arm/cpu/armv7/start.o
 .rel.data.hash_algo
                0x000000008087cc5c       0xa0 arch/arm/cpu/armv7/start.o
 .rel.data.reserved_list
                0x000000008087ccfc       0x58 arch/arm/cpu/armv7/start.o
 .rel.u_boot_list_2_cmd_2_showvar
                0x000000008087cd54       0x28 arch/arm/cpu/armv7/start.o
 .rel.data.init_sequence_r
                0x000000008087cd7c      0x148 arch/arm/cpu/armv7/start.o
 .rel.data.of_busses
                0x000000008087cec4       0x28 arch/arm/cpu/armv7/start.o
 .rel.data.usb_scan_list
                0x000000008087ceec       0x10 arch/arm/cpu/armv7/start.o
 .rel.u_boot_list_2_driver_2_usb_generic_hub
                0x000000008087cefc       0x10 arch/arm/cpu/armv7/start.o
 .rel.u_boot_list_2_uclass_2_usb_hub
                0x000000008087cf0c       0x20 arch/arm/cpu/armv7/start.o
 .rel.u_boot_list_2_usb_driver_entry_2_usb_generic_hub
                0x000000008087cf2c       0x10 arch/arm/cpu/armv7/start.o
 .rel.u_boot_list_2_driver_2_usb_mass_storage
                0x000000008087cf3c       0x18 arch/arm/cpu/armv7/start.o
 .rel.u_boot_list_2_driver_2_usb_storage_blk
                0x000000008087cf54       0x10 arch/arm/cpu/armv7/start.o
 .rel.u_boot_list_2_uclass_2_usb_mass_storage
                0x000000008087cf64        0x8 arch/arm/cpu/armv7/start.o
 .rel.u_boot_list_2_usb_driver_entry_2_usb_mass_storage
                0x000000008087cf6c       0x10 arch/arm/cpu/armv7/start.o
 .rel.u_boot_list_2_env_clbk_2_console
                0x000000008087cf7c       0x10 arch/arm/cpu/armv7/start.o
 .rel.data.av_  0x000000008087cf8c      0x800 arch/arm/cpu/armv7/start.o
 .rel.u_boot_list_2_env_clbk_2_loadaddr
                0x000000008087d78c       0x10 arch/arm/cpu/armv7/start.o
 .rel.data.stdio_names
                0x000000008087d79c       0x18 arch/arm/cpu/armv7/start.o
 .rel.text.part_driver_lookup_type
                0x000000008087d7b4       0x10 arch/arm/cpu/armv7/start.o
 .rel.text.dev_print
                0x000000008087d7c4       0x90 arch/arm/cpu/armv7/start.o
 .rel.text.part_init
                0x000000008087d854       0x10 arch/arm/cpu/armv7/start.o
 .rel.text.part_print
                0x000000008087d864       0x78 arch/arm/cpu/armv7/start.o
 .rel.text.part_get_info_whole_disk
                0x000000008087d8dc       0x10 arch/arm/cpu/armv7/start.o
 .rel.text.blk_get_device_by_str
                0x000000008087d8ec       0x10 arch/arm/cpu/armv7/start.o
 .rel.text.blk_get_device_part_str
                0x000000008087d8fc       0x58 arch/arm/cpu/armv7/start.o
 .rel.text.part_set_generic_name
                0x000000008087d954       0x18 arch/arm/cpu/armv7/start.o
 .rel.text.test_block_type
                0x000000008087d96c       0x10 arch/arm/cpu/armv7/start.o
 .rel.text.part_get_info_extended
                0x000000008087d97c       0x28 arch/arm/cpu/armv7/start.o
 .rel.text.print_partition_extended
                0x000000008087d9a4       0x38 arch/arm/cpu/armv7/start.o
 .rel.text.part_print_dos
                0x000000008087d9dc        0x8 arch/arm/cpu/armv7/start.o
 .rel.text.write_mbr_partition
                0x000000008087d9e4       0x18 arch/arm/cpu/armv7/start.o
 .rel.text.part_get_info_iso_verb
                0x000000008087d9fc       0x70 arch/arm/cpu/armv7/start.o
 .rel.text.part_print_iso
                0x000000008087da6c       0x18 arch/arm/cpu/armv7/start.o
 .rel.text.print_efiname
                0x000000008087da84       0x10 arch/arm/cpu/armv7/start.o
 .rel.text.validate_gpt_entries
                0x000000008087da94       0x10 arch/arm/cpu/armv7/start.o
 .rel.text.validate_gpt_header
                0x000000008087daa4       0x30 arch/arm/cpu/armv7/start.o
 .rel.text.is_gpt_valid
                0x000000008087dad4       0x40 arch/arm/cpu/armv7/start.o
 .rel.text.is_pte_valid
                0x000000008087db14       0x10 arch/arm/cpu/armv7/start.o
 .rel.text.find_valid_gpt
                0x000000008087db24       0x20 arch/arm/cpu/armv7/start.o
 .rel.text.part_print_efi
                0x000000008087db44       0x40 arch/arm/cpu/armv7/start.o
 .rel.text.part_get_info_efi
                0x000000008087db84       0x28 arch/arm/cpu/armv7/start.o
 .rel.text.write_gpt_table
                0x000000008087dbac       0x18 arch/arm/cpu/armv7/start.o
 .rel.text.gpt_fill_pte
                0x000000008087dbc4       0x20 arch/arm/cpu/armv7/start.o
 .rel.text.gpt_fill_header
                0x000000008087dbe4        0x8 arch/arm/cpu/armv7/start.o
 .rel.text.gpt_restore
                0x000000008087dbec       0x10 arch/arm/cpu/armv7/start.o
 .rel.text.gpt_verify_headers
                0x000000008087dbfc       0x18 arch/arm/cpu/armv7/start.o
 .rel.text.write_mbr_and_gpt_partitions
                0x000000008087dc14       0x38 arch/arm/cpu/armv7/start.o
 .rel.u_boot_list_2_part_driver_2_dos
                0x000000008087dc4c       0x20 arch/arm/cpu/armv7/start.o
 .rel.u_boot_list_2_part_driver_2_iso
                0x000000008087dc6c       0x20 arch/arm/cpu/armv7/start.o
 .rel.u_boot_list_2_part_driver_2_a_efi
                0x000000008087dc8c       0x20 arch/arm/cpu/armv7/start.o
 .rel.text.clk_get_by_index
                0x000000008087dcac       0x10 arch/arm/cpu/armv7/start.o
 .rel.text.clk_get_by_indexed_prop.isra.0
                0x000000008087dcbc        0x8 arch/arm/cpu/armv7/start.o
 .rel.text.clk_set_defaults
                0x000000008087dcc4       0x20 arch/arm/cpu/armv7/start.o
 .rel.text.clk_fixed_rate_ofdata_to_platdata
                0x000000008087dce4        0x8 arch/arm/cpu/armv7/start.o
 .rel.text.clk_fixed_factor_ofdata_to_platdata
                0x000000008087dcec       0x10 arch/arm/cpu/armv7/start.o
 .rel.text.cdce9xx_clk_probe
                0x000000008087dcfc        0x8 arch/arm/cpu/armv7/start.o
 .rel.text.device_bind_common.isra.0
                0x000000008087dd04       0x10 arch/arm/cpu/armv7/start.o
 .rel.text.device_probe
                0x000000008087dd14       0x10 arch/arm/cpu/armv7/start.o
 .rel.text.dev_get_platdata
                0x000000008087dd24       0x10 arch/arm/cpu/armv7/start.o
 .rel.text.dev_get_parent_platdata
                0x000000008087dd34       0x10 arch/arm/cpu/armv7/start.o
 .rel.text.dev_get_uclass_platdata
                0x000000008087dd44       0x10 arch/arm/cpu/armv7/start.o
 .rel.text.dev_get_priv
                0x000000008087dd54       0x10 arch/arm/cpu/armv7/start.o
 .rel.text.dev_get_uclass_priv
                0x000000008087dd64       0x10 arch/arm/cpu/armv7/start.o
 .rel.text.dev_get_parent_priv
                0x000000008087dd74       0x10 arch/arm/cpu/armv7/start.o
 .rel.text.devfdt_get_addr_index
                0x000000008087dd84        0x8 arch/arm/cpu/armv7/start.o
 .rel.text.lists_driver_lookup_name
                0x000000008087dd8c       0x10 arch/arm/cpu/armv7/start.o
 .rel.text.lists_uclass_lookup
                0x000000008087dd9c       0x10 arch/arm/cpu/armv7/start.o
 .rel.text.lists_bind_drivers
                0x000000008087ddac       0x18 arch/arm/cpu/armv7/start.o
 .rel.text.lists_bind_fdt
                0x000000008087ddc4       0x28 arch/arm/cpu/armv7/start.o
 .rel.text.dm_scan_fdt_node
                0x000000008087ddec        0x8 arch/arm/cpu/armv7/start.o
 .rel.text.dm_root
                0x000000008087ddf4        0x8 arch/arm/cpu/armv7/start.o
 .rel.text.dm_init
                0x000000008087ddfc       0x10 arch/arm/cpu/armv7/start.o
 .rel.text.dm_scan_platdata
                0x000000008087de0c        0x8 arch/arm/cpu/armv7/start.o
 .rel.text.dm_extended_scan_fdt
                0x000000008087de14        0x8 arch/arm/cpu/armv7/start.o
 .rel.text.uclass_resolve_seq
                0x000000008087de1c        0x8 arch/arm/cpu/armv7/start.o
 .rel.text.device_chld_unbind
                0x000000008087de24        0x8 arch/arm/cpu/armv7/start.o
 .rel.text.device_remove
                0x000000008087de2c       0x20 arch/arm/cpu/armv7/start.o
 .rel.text.simple_bus_post_bind
                0x000000008087de4c        0x8 arch/arm/cpu/armv7/start.o
 .rel.text.show_devices
                0x000000008087de54       0x30 arch/arm/cpu/armv7/start.o
 .rel.text.dm_dump_all
                0x000000008087de84       0x10 arch/arm/cpu/armv7/start.o
 .rel.text.dm_dump_uclass
                0x000000008087de94       0x20 arch/arm/cpu/armv7/start.o
 .rel.text.dm_dump_driver_compat
                0x000000008087deb4       0x48 arch/arm/cpu/armv7/start.o
 .rel.text.dm_dump_drivers
                0x000000008087defc       0x58 arch/arm/cpu/armv7/start.o
 .rel.text.dm_dump_static_driver_info
                0x000000008087df54       0x28 arch/arm/cpu/armv7/start.o
 .rel.text.ofnode_read_chosen_prop
                0x000000008087df7c        0x8 arch/arm/cpu/armv7/start.o
 .rel.text.ofnode_get_addr_size_index
                0x000000008087df84        0x8 arch/arm/cpu/armv7/start.o
 .rel.text.ofnode_pre_reloc
                0x000000008087df8c       0x20 arch/arm/cpu/armv7/start.o
 .rel.text.dfu_write_buffer_drain
                0x000000008087dfac       0x10 arch/arm/cpu/armv7/start.o
 .rel.text.dfu_free_buf
                0x000000008087dfbc        0x8 arch/arm/cpu/armv7/start.o
 .rel.text.dfu_get_buf_size
                0x000000008087dfc4        0x8 arch/arm/cpu/armv7/start.o
 .rel.text.dfu_get_buf
                0x000000008087dfcc       0x30 arch/arm/cpu/armv7/start.o
 .rel.text.dfu_transaction_initiate
                0x000000008087dffc        0x8 arch/arm/cpu/armv7/start.o
 .rel.text.dfu_flush
                0x000000008087e004       0x10 arch/arm/cpu/armv7/start.o
 .rel.text.dfu_write
                0x000000008087e014       0x10 arch/arm/cpu/armv7/start.o
 .rel.text.dfu_read
                0x000000008087e024       0x30 arch/arm/cpu/armv7/start.o
 .rel.text.dfu_free_entities
                0x000000008087e054       0x10 arch/arm/cpu/armv7/start.o
 .rel.text.dfu_alt_init
                0x000000008087e064       0x20 arch/arm/cpu/armv7/start.o
 .rel.text.dfu_alt_add
                0x000000008087e084       0x78 arch/arm/cpu/armv7/start.o
 .rel.text.dfu_config_interfaces
                0x000000008087e0fc       0x20 arch/arm/cpu/armv7/start.o
 .rel.text.dfu_config_entities
                0x000000008087e11c       0x10 arch/arm/cpu/armv7/start.o
 .rel.text.dfu_init_env_entities
                0x000000008087e12c        0x8 arch/arm/cpu/armv7/start.o
 .rel.text.dfu_get_dev_type
                0x000000008087e134        0x8 arch/arm/cpu/armv7/start.o
 .rel.text.dfu_get_layout
                0x000000008087e13c        0x8 arch/arm/cpu/armv7/start.o
 .rel.text.dfu_show_entities
                0x000000008087e144       0x18 arch/arm/cpu/armv7/start.o
 .rel.text.dfu_get_alt_number
                0x000000008087e15c        0x8 arch/arm/cpu/armv7/start.o
 .rel.text.dfu_get_entity
                0x000000008087e164        0x8 arch/arm/cpu/armv7/start.o
 .rel.text.dfu_get_alt
                0x000000008087e16c        0x8 arch/arm/cpu/armv7/start.o
 .rel.text.dfu_write_from_mem_addr
                0x000000008087e174        0x8 arch/arm/cpu/armv7/start.o
 .rel.text.mmc_block_op
                0x000000008087e17c        0x8 arch/arm/cpu/armv7/start.o
 .rel.text.mmc_file_op
                0x000000008087e184       0x40 arch/arm/cpu/armv7/start.o
 .rel.text.dfu_flush_medium_mmc
                0x000000008087e1c4       0x18 arch/arm/cpu/armv7/start.o
 .rel.text.dfu_free_entity_mmc
                0x000000008087e1dc        0x8 arch/arm/cpu/armv7/start.o
 .rel.text.dfu_write_medium_mmc
                0x000000008087e1e4       0x28 arch/arm/cpu/armv7/start.o
 .rel.text.dfu_get_medium_size_mmc
                0x000000008087e20c       0x10 arch/arm/cpu/armv7/start.o
 .rel.text.dfu_read_medium_mmc
                0x000000008087e21c       0x28 arch/arm/cpu/armv7/start.o
 .rel.text.dfu_fill_entity_mmc
                0x000000008087e244       0x68 arch/arm/cpu/armv7/start.o
 .rel.text.dfu_flush_medium_nand
                0x000000008087e2ac       0x20 arch/arm/cpu/armv7/start.o
 .rel.text.nand_block_op.part.0
                0x000000008087e2cc       0x30 arch/arm/cpu/armv7/start.o
 .rel.text.dfu_write_medium_nand
                0x000000008087e2fc       0x10 arch/arm/cpu/armv7/start.o
 .rel.text.dfu_read_medium_nand
                0x000000008087e30c       0x10 arch/arm/cpu/armv7/start.o
 .rel.text.dfu_fill_entity_nand
                0x000000008087e31c       0x70 arch/arm/cpu/armv7/start.o
 .rel.text.dfu_fill_entity_ram
                0x000000008087e38c       0x28 arch/arm/cpu/armv7/start.o
 .rel.text.dfu_write_by_name
                0x000000008087e3b4        0x8 arch/arm/cpu/armv7/start.o
 .rel.text.__mtd_next_device
                0x000000008087e3bc        0x8 arch/arm/cpu/armv7/start.o
 .rel.text.__put_mtd_device
                0x000000008087e3c4       0x20 arch/arm/cpu/armv7/start.o
 .rel.text.add_mtd_device
                0x000000008087e3e4       0x30 arch/arm/cpu/armv7/start.o
 .rel.text.get_nand_dev_by_index
                0x000000008087e414        0x8 arch/arm/cpu/armv7/start.o
 .rel.text.nand_register
                0x000000008087e41c       0x28 arch/arm/cpu/armv7/start.o
 .rel.text.nand_size
                0x000000008087e444        0x8 arch/arm/cpu/armv7/start.o
 .rel.text.nand_init
                0x000000008087e44c       0x10 arch/arm/cpu/armv7/start.o
 .rel.text.verify_bbt_descr
                0x000000008087e45c       0x20 arch/arm/cpu/armv7/start.o
 .rel.text.create_bbt
                0x000000008087e47c       0x20 arch/arm/cpu/armv7/start.o
 .rel.text.nand_default_bbt
                0x000000008087e49c       0x28 arch/arm/cpu/armv7/start.o
 .rel.text.nand_erase_opts
                0x000000008087e4c4       0x48 arch/arm/cpu/armv7/start.o
 .rel.text.nand_write_skip_bad
                0x000000008087e50c       0x28 arch/arm/cpu/armv7/start.o
 .rel.text.nand_read_skip_bad
                0x000000008087e534       0x28 arch/arm/cpu/armv7/start.o
 .rel.text.nand_calculate_ecc
                0x000000008087e55c        0x8 arch/arm/cpu/armv7/start.o
 .rel.text.nand_set_defaults
                0x000000008087e564       0x88 arch/arm/cpu/armv7/start.o
 .rel.text.nand_fill_oob
                0x000000008087e5ec       0x20 arch/arm/cpu/armv7/start.o
 .rel.text.nand_select_chip
                0x000000008087e60c       0x20 arch/arm/cpu/armv7/start.o
 .rel.text.nand_transfer_oob
                0x000000008087e62c       0x20 arch/arm/cpu/armv7/start.o
 .rel.text.nand_wait
                0x000000008087e64c       0x18 arch/arm/cpu/armv7/start.o
 .rel.text.nand_get_flash_type
                0x000000008087e664       0x98 arch/arm/cpu/armv7/start.o
 .rel.text.nand_scan_ident
                0x000000008087e6fc       0x60 arch/arm/cpu/armv7/start.o
 .rel.text.nand_scan_tail
                0x000000008087e75c      0x150 arch/arm/cpu/armv7/start.o
 .rel.text.onfi_init_data_interface
                0x000000008087e8ac        0x8 arch/arm/cpu/armv7/start.o
 .rel.text.nand_get_default_data_interface
                0x000000008087e8b4        0x8 arch/arm/cpu/armv7/start.o
 .rel.text.omap_nand_hwcontrol
                0x000000008087e8bc        0x8 arch/arm/cpu/armv7/start.o
 .rel.text.omap_dev_ready
                0x000000008087e8c4        0x8 arch/arm/cpu/armv7/start.o
 .rel.text.omap_enable_hwecc_bch
                0x000000008087e8cc        0x8 arch/arm/cpu/armv7/start.o
 .rel.text.omap_correct_data_bch
                0x000000008087e8d4        0x8 arch/arm/cpu/armv7/start.o
 .rel.text._omap_calculate_ecc_bch.isra.0
                0x000000008087e8dc        0x8 arch/arm/cpu/armv7/start.o
 .rel.text.omap_read_page_bch
                0x000000008087e8e4        0x8 arch/arm/cpu/armv7/start.o
 .rel.text.omap_nand_read_prefetch
                0x000000008087e8ec        0x8 arch/arm/cpu/armv7/start.o
 .rel.text.gpmc_nand_init
                0x000000008087e8f4       0x58 arch/arm/cpu/armv7/start.o
 .rel.text.board_nand_init
                0x000000008087e94c        0x8 arch/arm/cpu/armv7/start.o
 .rel.text.elm_check_error
                0x000000008087e954       0x18 arch/arm/cpu/armv7/start.o
 .rel.text.elm_config
                0x000000008087e96c        0x8 arch/arm/cpu/armv7/start.o
 .rel.text.elm_reset
                0x000000008087e974        0x8 arch/arm/cpu/armv7/start.o
 .rel.text.elm_init
                0x000000008087e97c        0x8 arch/arm/cpu/armv7/start.o
 .rel.text.spi_flash_probe_bus_cs
                0x000000008087e984       0x10 arch/arm/cpu/armv7/start.o
 .rel.text.spi_flash_std_probe
                0x000000008087e994        0x8 arch/arm/cpu/armv7/start.o
 .rel.text.spi_nor_default_setup
                0x000000008087e99c       0x10 arch/arm/cpu/armv7/start.o
 .rel.text.spi_nor_scan
                0x000000008087e9ac       0xc0 arch/arm/cpu/armv7/start.o
 .rel.text.timer_pre_probe
                0x000000008087ea6c        0x8 arch/arm/cpu/armv7/start.o
 .rel.text.dm_timer_init
                0x000000008087ea74        0x8 arch/arm/cpu/armv7/start.o
 .rel.text.blk_get_if_type_name
                0x000000008087ea7c        0x8 arch/arm/cpu/armv7/start.o
 .rel.text.blk_get_devnum_by_typename
                0x000000008087ea84       0x10 arch/arm/cpu/armv7/start.o
 .rel.text.blk_list_devices
                0x000000008087ea94        0x8 arch/arm/cpu/armv7/start.o
 .rel.text.blk_print_device_num
                0x000000008087ea9c        0x8 arch/arm/cpu/armv7/start.o
 .rel.text.blk_show_device
                0x000000008087eaa4       0x10 arch/arm/cpu/armv7/start.o
 .rel.text.blk_create_devicef
                0x000000008087eab4        0x8 arch/arm/cpu/armv7/start.o
 .rel.text.blkcache_read
                0x000000008087eabc       0x10 arch/arm/cpu/armv7/start.o
 .rel.text.blkcache_fill
                0x000000008087eacc       0x10 arch/arm/cpu/armv7/start.o
 .rel.text.blkcache_invalidate
                0x000000008087eadc       0x10 arch/arm/cpu/armv7/start.o
 .rel.text.blkcache_configure
                0x000000008087eaec       0x10 arch/arm/cpu/armv7/start.o
 .rel.text.blkcache_stats
                0x000000008087eafc        0x8 arch/arm/cpu/armv7/start.o
 .rel.text.fastboot_fail
                0x000000008087eb04       0x10 arch/arm/cpu/armv7/start.o
 .rel.text.fastboot_okay
                0x000000008087eb14       0x10 arch/arm/cpu/armv7/start.o
 .rel.text.fastboot_boot
                0x000000008087eb24       0x30 arch/arm/cpu/armv7/start.o
 .rel.text.fastboot_init
                0x000000008087eb54       0x18 arch/arm/cpu/armv7/start.o
 .rel.text.getvar_downloadsize
                0x000000008087eb6c       0x18 arch/arm/cpu/armv7/start.o
 .rel.text.getvar_is_userspace
                0x000000008087eb84        0x8 arch/arm/cpu/armv7/start.o
 .rel.text.getvar_current_slot
                0x000000008087eb8c        0x8 arch/arm/cpu/armv7/start.o
 .rel.text.getvar_platform
                0x000000008087eb94       0x10 arch/arm/cpu/armv7/start.o
 .rel.text.getvar_product
                0x000000008087eba4       0x10 arch/arm/cpu/armv7/start.o
 .rel.text.getvar_version_baseband
                0x000000008087ebb4        0x8 arch/arm/cpu/armv7/start.o
 .rel.text.getvar_serialno
                0x000000008087ebbc       0x10 arch/arm/cpu/armv7/start.o
 .rel.text.getvar_version_bootloader
                0x000000008087ebcc        0x8 arch/arm/cpu/armv7/start.o
 .rel.text.getvar_version
                0x000000008087ebd4        0x8 arch/arm/cpu/armv7/start.o
 .rel.text.getvar_partition_type
                0x000000008087ebdc        0x8 arch/arm/cpu/armv7/start.o
 .rel.text.getvar_partition_size
                0x000000008087ebe4       0x10 arch/arm/cpu/armv7/start.o
 .rel.text.getvar_has_slot
                0x000000008087ebf4       0x20 arch/arm/cpu/armv7/start.o
 .rel.text.fastboot_getvar
                0x000000008087ec14       0x38 arch/arm/cpu/armv7/start.o
 .rel.text.oem_format
                0x000000008087ec4c       0x20 arch/arm/cpu/armv7/start.o
 .rel.text.reboot_recovery
                0x000000008087ec6c        0x8 arch/arm/cpu/armv7/start.o
 .rel.text.reboot_fastbootd
                0x000000008087ec74        0x8 arch/arm/cpu/armv7/start.o
 .rel.text.reboot_bootloader
                0x000000008087ec7c        0x8 arch/arm/cpu/armv7/start.o
 .rel.text.flash
                0x000000008087ec84       0x10 arch/arm/cpu/armv7/start.o
 .rel.text.download
                0x000000008087ec94       0x40 arch/arm/cpu/armv7/start.o
 .rel.text.fastboot_handle_command
                0x000000008087ecd4       0x18 arch/arm/cpu/armv7/start.o
 .rel.text.fastboot_data_remaining
                0x000000008087ecec       0x10 arch/arm/cpu/armv7/start.o
 .rel.text.fastboot_data_download
                0x000000008087ecfc       0x20 arch/arm/cpu/armv7/start.o
 .rel.text.fastboot_data_complete
                0x000000008087ed1c       0x28 arch/arm/cpu/armv7/start.o
 .rel.text.part_get_info_by_name_or_alias
                0x000000008087ed44        0x8 arch/arm/cpu/armv7/start.o
 .rel.text.fb_mmc_blk_write
                0x000000008087ed4c       0x18 arch/arm/cpu/armv7/start.o
 .rel.text.raw_part_get_info_by_name.isra.0
                0x000000008087ed64       0x18 arch/arm/cpu/armv7/start.o
 .rel.text.fastboot_mmc_get_part_info
                0x000000008087ed7c       0x28 arch/arm/cpu/armv7/start.o
 .rel.text.fastboot_mmc_flash_write
                0x000000008087eda4      0x140 arch/arm/cpu/armv7/start.o
 .rel.text.fastboot_mmc_erase
                0x000000008087eee4       0x38 arch/arm/cpu/armv7/start.o
 .rel.text.mmc_mode_name
                0x000000008087ef1c       0x10 arch/arm/cpu/armv7/start.o
 .rel.text.mmc_startup_v4
                0x000000008087ef2c        0x8 arch/arm/cpu/armv7/start.o
 .rel.text.mmc_startup
                0x000000008087ef34       0x80 arch/arm/cpu/armv7/start.o
 .rel.text.mmc_initialize
                0x000000008087efb4        0x8 arch/arm/cpu/armv7/start.o
 .rel.text.mmc_of_parse
                0x000000008087efbc       0xa0 arch/arm/cpu/armv7/start.o
 .rel.text.find_mmc_device
                0x000000008087f05c        0x8 arch/arm/cpu/armv7/start.o
 .rel.text.print_mmc_devices
                0x000000008087f064       0x38 arch/arm/cpu/armv7/start.o
 .rel.text.mmc_bind
                0x000000008087f09c       0x10 arch/arm/cpu/armv7/start.o
 .rel.text.mmc_berase
                0x000000008087f0ac       0x10 arch/arm/cpu/armv7/start.o
 .rel.text.mmc_bwrite
                0x000000008087f0bc       0x18 arch/arm/cpu/armv7/start.o
 .rel.text.mmc_reset_controller_fsm
                0x000000008087f0d4       0x10 arch/arm/cpu/armv7/start.o
 .rel.text.omap_hsmmc_ofdata_to_platdata
                0x000000008087f0e4       0x10 arch/arm/cpu/armv7/start.o
 .rel.text.omap_hsmmc_send_cmd
                0x000000008087f0f4       0x30 arch/arm/cpu/armv7/start.o
 .rel.text.omap_hsmmc_set_ios
                0x000000008087f124       0x10 arch/arm/cpu/armv7/start.o
 .rel.text.omap_hsmmc_probe
                0x000000008087f134       0x38 arch/arm/cpu/armv7/start.o
 .rel.text.rtc_month_days
                0x000000008087f16c        0x8 arch/arm/cpu/armv7/start.o
 .rel.text.initr_watchdog
                0x000000008087f174       0x30 arch/arm/cpu/armv7/start.o
 .rel.text.watchdog_reset
                0x000000008087f1a4       0x10 arch/arm/cpu/armv7/start.o
 .rel.rodata.clk_fixed_rate_match
                0x000000008087f1b4        0x8 arch/arm/cpu/armv7/start.o
 .rel.rodata.clk_fixed_rate_ops
                0x000000008087f1bc       0x10 arch/arm/cpu/armv7/start.o
 .rel.rodata.clk_fixed_rate_raw_ops
                0x000000008087f1cc        0x8 arch/arm/cpu/armv7/start.o
 .rel.rodata.clk_fixed_factor_match
                0x000000008087f1d4        0x8 arch/arm/cpu/armv7/start.o
 .rel.rodata.clk_fixed_factor_ops
                0x000000008087f1dc        0x8 arch/arm/cpu/armv7/start.o
 .rel.rodata.cdce9xx_clk_of_match
                0x000000008087f1e4       0x40 arch/arm/cpu/armv7/start.o
 .rel.rodata.cdce9xx_clk_ops
                0x000000008087f224       0x18 arch/arm/cpu/armv7/start.o
 .rel.rodata.generic_simple_bus_ids
                0x000000008087f23c       0x10 arch/arm/cpu/armv7/start.o
 .rel.rodata.spi_flash_std_ids
                0x000000008087f24c        0x8 arch/arm/cpu/armv7/start.o
 .rel.rodata.spi_flash_std_ops
                0x000000008087f254       0x18 arch/arm/cpu/armv7/start.o
 .rel.rodata.spi_nor_ids
                0x000000008087f26c       0xf0 arch/arm/cpu/armv7/start.o
 .rel.rodata.omap_timer_ids
                0x000000008087f35c       0x18 arch/arm/cpu/armv7/start.o
 .rel.rodata.omap_timer_ops
                0x000000008087f374        0x8 arch/arm/cpu/armv7/start.o
 .rel.rodata.if_typename_str
                0x000000008087f37c       0x68 arch/arm/cpu/armv7/start.o
 .rel.rodata.mod_exp_ops_sw
                0x000000008087f3e4        0x8 arch/arm/cpu/armv7/start.o
 .rel.rodata.bootm_args.6111
                0x000000008087f3ec       0x10 arch/arm/cpu/armv7/start.o
 .rel.rodata.getvar_dispatch
                0x000000008087f3fc       0xd0 arch/arm/cpu/armv7/start.o
 .rel.rodata.commands
                0x000000008087f4cc       0xc0 arch/arm/cpu/armv7/start.o
 .rel.rodata.names.8661
                0x000000008087f58c       0x68 arch/arm/cpu/armv7/start.o
 .rel.rodata.mmc_blk_ops
                0x000000008087f5f4       0x20 arch/arm/cpu/armv7/start.o
 .rel.rodata.omap_hsmmc_ids
                0x000000008087f614       0x28 arch/arm/cpu/armv7/start.o
 .rel.rodata.omap_hsmmc_ops
                0x000000008087f63c       0x28 arch/arm/cpu/armv7/start.o
 .rel.rodata.omap3_wdt_ids
                0x000000008087f664        0x8 arch/arm/cpu/armv7/start.o
 .rel.rodata.omap3_wdt_ops
                0x000000008087f66c       0x18 arch/arm/cpu/armv7/start.o
 .rel.u_boot_list_2_uclass_2_clk
                0x000000008087f684       0x10 arch/arm/cpu/armv7/start.o
 .rel.u_boot_list_2_driver_2_clk_fixed_rate_raw
                0x000000008087f694       0x10 arch/arm/cpu/armv7/start.o
 .rel.u_boot_list_2_driver_2_fixed_clock
                0x000000008087f6a4       0x20 arch/arm/cpu/armv7/start.o
 .rel.u_boot_list_2_driver_2_clk_fixed_factor
                0x000000008087f6c4       0x20 arch/arm/cpu/armv7/start.o
 .rel.u_boot_list_2_driver_2_cdce9xx_clk
                0x000000008087f6e4       0x20 arch/arm/cpu/armv7/start.o
 .rel.data.root_info
                0x000000008087f704        0x8 arch/arm/cpu/armv7/start.o
 .rel.u_boot_list_2_driver_2_root_driver
                0x000000008087f70c        0x8 arch/arm/cpu/armv7/start.o
 .rel.u_boot_list_2_uclass_2_root
                0x000000008087f714        0x8 arch/arm/cpu/armv7/start.o
 .rel.u_boot_list_2_uclass_2_nop
                0x000000008087f71c        0x8 arch/arm/cpu/armv7/start.o
 .rel.u_boot_list_2_driver_2_simple_bus
                0x000000008087f724       0x10 arch/arm/cpu/armv7/start.o
 .rel.u_boot_list_2_uclass_2_simple_bus
                0x000000008087f734       0x10 arch/arm/cpu/armv7/start.o
 .rel.data.dfu_list
                0x000000008087f744       0x10 arch/arm/cpu/armv7/start.o
 .rel.data.bbt_main_descr
                0x000000008087f754        0x8 arch/arm/cpu/armv7/start.o
 .rel.data.bbt_main_no_oob_descr
                0x000000008087f75c        0x8 arch/arm/cpu/armv7/start.o
 .rel.data.bbt_mirror_descr
                0x000000008087f764        0x8 arch/arm/cpu/armv7/start.o
 .rel.data.bbt_mirror_no_oob_descr
                0x000000008087f76c        0x8 arch/arm/cpu/armv7/start.o
 .rel.data.nand_flash_ids
                0x000000008087f774      0x2b0 arch/arm/cpu/armv7/start.o
 .rel.u_boot_list_2_uclass_2_spi_nor
                0x000000008087fa24       0x10 arch/arm/cpu/armv7/start.o
 .rel.u_boot_list_2_driver_2_jedec_spi_nor
                0x000000008087fa34       0x28 arch/arm/cpu/armv7/start.o
 .rel.u_boot_list_2_uclass_2_timer
                0x000000008087fa5c       0x18 arch/arm/cpu/armv7/start.o
 .rel.u_boot_list_2_driver_2_omap_timer
                0x000000008087fa74       0x28 arch/arm/cpu/armv7/start.o
 .rel.u_boot_list_2_uclass_2_blk
                0x000000008087fa9c       0x10 arch/arm/cpu/armv7/start.o
 .rel.data.block_cache
                0x000000008087faac       0x10 arch/arm/cpu/armv7/start.o
 .rel.u_boot_list_2_uclass_2_mod_exp
                0x000000008087fabc        0x8 arch/arm/cpu/armv7/start.o
 .rel.u_boot_list_2_driver_2_mod_exp_sw
                0x000000008087fac4       0x10 arch/arm/cpu/armv7/start.o
 .rel.u_boot_list_2_driver_info_2_mod_exp_sw
                0x000000008087fad4        0x8 arch/arm/cpu/armv7/start.o
 .rel.u_boot_list_2_uclass_2_misc
                0x000000008087fadc       0x10 arch/arm/cpu/armv7/start.o
 .rel.u_boot_list_2_driver_2_mmc_blk
                0x000000008087faec       0x18 arch/arm/cpu/armv7/start.o
 .rel.u_boot_list_2_uclass_2_mmc
                0x000000008087fb04        0x8 arch/arm/cpu/armv7/start.o
 .rel.u_boot_list_2_driver_2_omap_hsmmc
                0x000000008087fb0c       0x30 arch/arm/cpu/armv7/start.o
 .rel.u_boot_list_2_uclass_2_wdt
                0x000000008087fb3c       0x10 arch/arm/cpu/armv7/start.o
 .rel.u_boot_list_2_driver_2_omap3_wdt
                0x000000008087fb4c       0x20 arch/arm/cpu/armv7/start.o
 .rel.text.check_reserved
                0x000000008087fb6c       0x10 arch/arm/cpu/armv7/start.o
 .rel.text.dm_gpio_lookup_name
                0x000000008087fb7c        0x8 arch/arm/cpu/armv7/start.o
 .rel.text.gpio_direction_input
                0x000000008087fb84        0x8 arch/arm/cpu/armv7/start.o
 .rel.text.gpio_direction_output
                0x000000008087fb8c        0x8 arch/arm/cpu/armv7/start.o
 .rel.text.dm_gpio_get_value
                0x000000008087fb94        0x8 arch/arm/cpu/armv7/start.o
 .rel.text.dm_gpio_set_value
                0x000000008087fb9c        0x8 arch/arm/cpu/armv7/start.o
 .rel.text.dm_gpio_set_dir_flags
                0x000000008087fba4        0x8 arch/arm/cpu/armv7/start.o
 .rel.text.gpio_request_tail
                0x000000008087fbac       0x10 arch/arm/cpu/armv7/start.o
 .rel.text._gpio_request_by_name_nodev
                0x000000008087fbbc        0x8 arch/arm/cpu/armv7/start.o
 .rel.text.gpio_get_status
                0x000000008087fbc4       0x28 arch/arm/cpu/armv7/start.o
 .rel.text.gpio_request_by_name
                0x000000008087fbec        0x8 arch/arm/cpu/armv7/start.o
 .rel.text.gpio_get_list_count
                0x000000008087fbf4        0x8 arch/arm/cpu/armv7/start.o
 .rel.text.omap_gpio_probe
                0x000000008087fbfc        0x8 arch/arm/cpu/armv7/start.o
 .rel.rodata.gpio_function
                0x000000008087fc04       0x28 arch/arm/cpu/armv7/start.o
 .rel.rodata.gpio_omap_ops
                0x000000008087fc2c       0x28 arch/arm/cpu/armv7/start.o
 .rel.rodata.omap_gpio_ids
                0x000000008087fc54       0x18 arch/arm/cpu/armv7/start.o
 .rel.u_boot_list_2_uclass_2_gpio
                0x000000008087fc6c       0x20 arch/arm/cpu/armv7/start.o
 .rel.u_boot_list_2_driver_2_gpio_omap
                0x000000008087fc8c       0x28 arch/arm/cpu/armv7/start.o
 .rel.text.i2c_uclass_init
                0x000000008087fcb4        0x8 arch/arm/cpu/armv7/start.o
 .rel.text.i2c_pre_probe
                0x000000008087fcbc        0x8 arch/arm/cpu/armv7/start.o
 .rel.text.i2c_get_chip
                0x000000008087fcc4       0x10 arch/arm/cpu/armv7/start.o
 .rel.text.i2c_post_probe
                0x000000008087fcd4        0x8 arch/arm/cpu/armv7/start.o
 .rel.text.i2c_deblock
                0x000000008087fcdc        0x8 arch/arm/cpu/armv7/start.o
 .rel.text.i2c_chip_ofdata_to_platdata
                0x000000008087fce4       0x10 arch/arm/cpu/armv7/start.o
 .rel.text.__omap24_i2c_setspeed
                0x000000008087fcf4       0x20 arch/arm/cpu/armv7/start.o
 .rel.text.wait_for_bb
                0x000000008087fd14       0x20 arch/arm/cpu/armv7/start.o
 .rel.text.wait_for_event
                0x000000008087fd34       0x28 arch/arm/cpu/armv7/start.o
 .rel.text.flush_fifo
                0x000000008087fd5c       0x10 arch/arm/cpu/armv7/start.o
 .rel.text.omap_i2c_probe_chip
                0x000000008087fd6c       0x18 arch/arm/cpu/armv7/start.o
 .rel.text.omap_i2c_ofdata_to_platdata
                0x000000008087fd84        0x8 arch/arm/cpu/armv7/start.o
 .rel.text.omap_i2c_xfer
                0x000000008087fd8c       0x60 arch/arm/cpu/armv7/start.o
 .rel.text.omap_i2c_probe
                0x000000008087fdec       0x20 arch/arm/cpu/armv7/start.o
 .rel.rodata.generic_chip_i2c_ids
                0x000000008087fe0c        0x8 arch/arm/cpu/armv7/start.o
 .rel.rodata.omap_i2c_ids
                0x000000008087fe14       0x10 arch/arm/cpu/armv7/start.o
 .rel.rodata.omap_i2c_ops
                0x000000008087fe24       0x18 arch/arm/cpu/armv7/start.o
 .rel.u_boot_list_2_driver_2_i2c_generic_chip_drv
                0x000000008087fe3c       0x10 arch/arm/cpu/armv7/start.o
 .rel.u_boot_list_2_uclass_2_i2c
                0x000000008087fe4c       0x30 arch/arm/cpu/armv7/start.o
 .rel.u_boot_list_2_uclass_2_i2c_generic
                0x000000008087fe7c        0x8 arch/arm/cpu/armv7/start.o
 .rel.u_boot_list_2_driver_2_i2c_omap
                0x000000008087fe84       0x28 arch/arm/cpu/armv7/start.o
 .rel.text.cpsw_gmii_sel_am3352.isra.0
                0x000000008087feac       0x10 arch/arm/cpu/armv7/start.o
 .rel.text.cpsw_eth_ofdata_to_platdata
                0x000000008087febc       0xb8 arch/arm/cpu/armv7/start.o
 .rel.text.cpsw_ale_add_mcast.constprop.0
                0x000000008087ff74        0x8 arch/arm/cpu/armv7/start.o
 .rel.text.cpsw_eth_send
                0x000000008087ff7c        0x8 arch/arm/cpu/armv7/start.o
 .rel.text.cpsw_eth_start
                0x000000008087ff84       0x30 arch/arm/cpu/armv7/start.o
 .rel.text._cpsw_register
                0x000000008087ffb4        0x8 arch/arm/cpu/armv7/start.o
 .rel.text.cpsw_eth_probe
                0x000000008087ffbc       0x18 arch/arm/cpu/armv7/start.o
 .rel.text.ti_cm_get_macid
                0x000000008087ffd4       0x10 arch/arm/cpu/armv7/start.o
 .rel.text.ti_cm_get_macid_addr
                0x000000008087ffe4       0x48 arch/arm/cpu/armv7/start.o
 .rel.text.cpsw_mdio_init
                0x000000008088002c       0x18 arch/arm/cpu/armv7/start.o
 .rel.rodata.cpsw_eth_ids
                0x0000000080880044       0x10 arch/arm/cpu/armv7/start.o
 .rel.rodata.cpsw_eth_ops
                0x0000000080880054       0x28 arch/arm/cpu/armv7/start.o
 .rel.u_boot_list_2_driver_2_eth_cpsw
                0x000000008088007c       0x28 arch/arm/cpu/armv7/start.o
 .rel.text.genphy_update_link
                0x00000000808800a4       0x28 arch/arm/cpu/armv7/start.o
 .rel.text.phy_register
                0x00000000808800cc        0x8 arch/arm/cpu/armv7/start.o
 .rel.text.genphy_init
                0x00000000808800d4        0x8 arch/arm/cpu/armv7/start.o
 .rel.text.get_phy_device_by_mask
                0x00000000808800dc       0x38 arch/arm/cpu/armv7/start.o
 .rel.text.phy_reset
                0x0000000080880114        0x8 arch/arm/cpu/armv7/start.o
 .rel.text.phy_connect_dev
                0x000000008088011c        0x8 arch/arm/cpu/armv7/start.o
 .rel.text.phy_connect
                0x0000000080880124        0x8 arch/arm/cpu/armv7/start.o
 .rel.text.phy_get_interface_by_name
                0x000000008088012c        0x8 arch/arm/cpu/armv7/start.o
 .rel.text.ar803x_config
                0x0000000080880134       0x30 arch/arm/cpu/armv7/start.o
 .rel.text.phy_atheros_init
                0x0000000080880164       0x18 arch/arm/cpu/armv7/start.o
 .rel.text.phy_smsc_init
                0x000000008088017c       0x30 arch/arm/cpu/armv7/start.o
 .rel.rodata.phy_interface_strings
                0x00000000808801ac       0xc8 arch/arm/cpu/armv7/start.o
 .rel.data.genphy_driver
                0x0000000080880274       0x20 arch/arm/cpu/armv7/start.o
 .rel.data.phy_drivers
                0x0000000080880294       0x10 arch/arm/cpu/armv7/start.o
 .rel.data.AR8021_driver
                0x00000000808802a4       0x20 arch/arm/cpu/armv7/start.o
 .rel.data.AR8031_driver
                0x00000000808802c4       0x20 arch/arm/cpu/armv7/start.o
 .rel.data.AR8035_driver
                0x00000000808802e4       0x20 arch/arm/cpu/armv7/start.o
 .rel.data.lan8700_driver
                0x0000000080880304       0x20 arch/arm/cpu/armv7/start.o
 .rel.data.lan8710_driver
                0x0000000080880324       0x20 arch/arm/cpu/armv7/start.o
 .rel.data.lan8740_driver
                0x0000000080880344       0x20 arch/arm/cpu/armv7/start.o
 .rel.data.lan8741_driver
                0x0000000080880364       0x20 arch/arm/cpu/armv7/start.o
 .rel.data.lan8742_driver
                0x0000000080880384       0x20 arch/arm/cpu/armv7/start.o
 .rel.data.lan911x_driver
                0x00000000808803a4       0x20 arch/arm/cpu/armv7/start.o
 .rel.text.serial_post_probe
                0x00000000808803c4       0x20 arch/arm/cpu/armv7/start.o
 .rel.text.serial_init
                0x00000000808803e4       0x18 arch/arm/cpu/armv7/start.o
 .rel.text.on_baudrate
                0x00000000808803fc       0x18 arch/arm/cpu/armv7/start.o
 .rel.text.ns16550_serial_ofdata_to_platdata
                0x0000000080880414       0x20 arch/arm/cpu/armv7/start.o
 .rel.text.ns16550_serial_setconfig
                0x0000000080880434        0x8 arch/arm/cpu/armv7/start.o
 .rel.text.omap_serial_ofdata_to_platdata
                0x000000008088043c       0x10 arch/arm/cpu/armv7/start.o
 .rel.rodata.ns16550_serial_ids
                0x000000008088044c       0x28 arch/arm/cpu/armv7/start.o
 .rel.rodata.ns16550_serial_ops
                0x0000000080880474       0x30 arch/arm/cpu/armv7/start.o
 .rel.rodata.omap_serial_ids
                0x00000000808804a4       0x38 arch/arm/cpu/armv7/start.o
 .rel.u_boot_list_2_env_clbk_2_baudrate
                0x00000000808804dc       0x10 arch/arm/cpu/armv7/start.o
 .rel.u_boot_list_2_uclass_2_serial
                0x00000000808804ec       0x18 arch/arm/cpu/armv7/start.o
 .rel.u_boot_list_2_driver_2_ns16550_serial
                0x0000000080880504       0x28 arch/arm/cpu/armv7/start.o
 .rel.u_boot_list_2_driver_2_omap_serial
                0x000000008088052c       0x28 arch/arm/cpu/armv7/start.o
 .rel.text.spi_post_probe
                0x0000000080880554        0x8 arch/arm/cpu/armv7/start.o
 .rel.text.spi_get_bus_and_cs
                0x000000008088055c        0x8 arch/arm/cpu/armv7/start.o
 .rel.text.spi_slave_ofdata_to_platdata
                0x0000000080880564       0x58 arch/arm/cpu/armv7/start.o
 .rel.text.omap3_spi_xfer
                0x00000000808805bc       0x18 arch/arm/cpu/armv7/start.o
 .rel.text.omap3_spi_ofdata_to_platdata
                0x00000000808805d4        0x8 arch/arm/cpu/armv7/start.o
 .rel.rodata.omap3_spi_ids
                0x00000000808805dc       0x20 arch/arm/cpu/armv7/start.o
 .rel.rodata.omap3_spi_ops
                0x00000000808805fc       0x30 arch/arm/cpu/armv7/start.o
 .rel.u_boot_list_2_driver_2_spi_generic_drv
                0x000000008088062c        0x8 arch/arm/cpu/armv7/start.o
 .rel.u_boot_list_2_uclass_2_spi
                0x0000000080880634       0x28 arch/arm/cpu/armv7/start.o
 .rel.u_boot_list_2_uclass_2_spi_generic
                0x000000008088065c        0x8 arch/arm/cpu/armv7/start.o
 .rel.u_boot_list_2_driver_2_omap3_spi
                0x0000000080880664       0x28 arch/arm/cpu/armv7/start.o
 .rel.text.usb_get_dr_mode
                0x000000008088068c       0x10 arch/arm/cpu/armv7/start.o
 .rel.rodata.usb_dr_modes
                0x000000008088069c       0x20 arch/arm/cpu/armv7/start.o
 .rel.text.usb_ep_autoconfig
                0x00000000808806bc        0x8 arch/arm/cpu/armv7/start.o
 .rel.text.usb_ep_autoconfig_reset
                0x00000000808806c4        0x8 arch/arm/cpu/armv7/start.o
 .rel.text.composite_suspend
                0x00000000808806cc        0x8 arch/arm/cpu/armv7/start.o
 .rel.text.composite_resume
                0x00000000808806d4        0x8 arch/arm/cpu/armv7/start.o
 .rel.text.composite_unbind
                0x00000000808806dc       0x20 arch/arm/cpu/armv7/start.o
 .rel.text.composite_bind
                0x00000000808806fc       0x10 arch/arm/cpu/armv7/start.o
 .rel.text.g_dnl_do_config
                0x000000008088070c        0x8 arch/arm/cpu/armv7/start.o
 .rel.text.composite_disconnect
                0x0000000080880714        0x8 arch/arm/cpu/armv7/start.o
 .rel.text.composite_setup
                0x000000008088071c       0x10 arch/arm/cpu/armv7/start.o
 .rel.text.usb_composite_register
                0x000000008088072c       0x18 arch/arm/cpu/armv7/start.o
 .rel.text.usb_composite_unregister
                0x0000000080880744       0x10 arch/arm/cpu/armv7/start.o
 .rel.text.g_dnl_set_serialnumber
                0x0000000080880754        0x8 arch/arm/cpu/armv7/start.o
 .rel.text.g_dnl_bind
                0x000000008088075c       0x30 arch/arm/cpu/armv7/start.o
 .rel.text.g_dnl_detach
                0x000000008088078c        0x8 arch/arm/cpu/armv7/start.o
 .rel.text.g_dnl_trigger_detach
                0x0000000080880794        0x8 arch/arm/cpu/armv7/start.o
 .rel.text.g_dnl_clear_detach
                0x000000008088079c        0x8 arch/arm/cpu/armv7/start.o
 .rel.text.g_dnl_register
                0x00000000808807a4       0x18 arch/arm/cpu/armv7/start.o
 .rel.text.g_dnl_unregister
                0x00000000808807bc        0x8 arch/arm/cpu/armv7/start.o
 .rel.text.dfu_add
                0x00000000808807c4       0x58 arch/arm/cpu/armv7/start.o
 .rel.text.dfu_handle
                0x000000008088081c       0x10 arch/arm/cpu/armv7/start.o
 .rel.text.dnload_request_flush
                0x000000008088082c        0x8 arch/arm/cpu/armv7/start.o
 .rel.text.dfu_bind
                0x0000000080880834       0x28 arch/arm/cpu/armv7/start.o
 .rel.text.state_dfu_manifest_sync
                0x000000008088085c        0x8 arch/arm/cpu/armv7/start.o
 .rel.text.state_dfu_dnload_idle
                0x0000000080880864        0x8 arch/arm/cpu/armv7/start.o
 .rel.text.state_app_idle
                0x000000008088086c        0x8 arch/arm/cpu/armv7/start.o
 .rel.text.state_dfu_manifest
                0x0000000080880874        0x8 arch/arm/cpu/armv7/start.o
 .rel.text.state_dfu_idle
                0x000000008088087c       0x10 arch/arm/cpu/armv7/start.o
 .rel.text.fastboot_unbind
                0x000000008088088c        0x8 arch/arm/cpu/armv7/start.o
 .rel.text.fastboot_add
                0x0000000080880894       0x38 arch/arm/cpu/armv7/start.o
 .rel.text.fastboot_set_alt
                0x00000000808808cc       0x50 arch/arm/cpu/armv7/start.o
 .rel.text.fastboot_complete
                0x000000008088091c        0x8 arch/arm/cpu/armv7/start.o
 .rel.text.fastboot_tx_write_str
                0x0000000080880924       0x10 arch/arm/cpu/armv7/start.o
 .rel.text.rx_handler_command
                0x0000000080880934       0x40 arch/arm/cpu/armv7/start.o
 .rel.text.rx_handler_dl_image
                0x0000000080880974       0x10 arch/arm/cpu/armv7/start.o
 .rel.text.fastboot_bind
                0x0000000080880984       0x48 arch/arm/cpu/armv7/start.o
 .rel.text.tx_complete
                0x00000000808809cc        0x8 arch/arm/cpu/armv7/start.o
 .rel.text.usb_eth_recv
                0x00000000808809d4       0x10 arch/arm/cpu/armv7/start.o
 .rel.text.rx_complete
                0x00000000808809e4        0x8 arch/arm/cpu/armv7/start.o
 .rel.text.usb_eth_send
                0x00000000808809ec       0x18 arch/arm/cpu/armv7/start.o
 .rel.text.rndis_control_ack_complete
                0x0000000080880a04        0x8 arch/arm/cpu/armv7/start.o
 .rel.text.rndis_control_ack
                0x0000000080880a0c       0x10 arch/arm/cpu/armv7/start.o
 .rel.text.nibble
                0x0000000080880a1c        0x8 arch/arm/cpu/armv7/start.o
 .rel.text.set_ether_config.isra.0
                0x0000000080880a24       0x30 arch/arm/cpu/armv7/start.o
 .rel.text.eth_bind
                0x0000000080880a54       0xf8 arch/arm/cpu/armv7/start.o
 .rel.text.usb_eth_probe
                0x0000000080880b4c       0x18 arch/arm/cpu/armv7/start.o
 .rel.text.rx_submit.constprop.0
                0x0000000080880b64       0x10 arch/arm/cpu/armv7/start.o
 .rel.text.usb_eth_free_pkt
                0x0000000080880b74        0x8 arch/arm/cpu/armv7/start.o
 .rel.text.eth_setup
                0x0000000080880b7c       0x98 arch/arm/cpu/armv7/start.o
 .rel.text.usb_eth_start
                0x0000000080880c14       0x70 arch/arm/cpu/armv7/start.o
 .rel.text.usb_ether_init
                0x0000000080880c84        0x8 arch/arm/cpu/armv7/start.o
 .rel.text.rndis_add_response
                0x0000000080880c8c        0x8 arch/arm/cpu/armv7/start.o
 .rel.text.rndis_signal_connect
                0x0000000080880c94        0x8 arch/arm/cpu/armv7/start.o
 .rel.text.rndis_signal_disconnect
                0x0000000080880c9c        0x8 arch/arm/cpu/armv7/start.o
 .rel.text.rndis_set_host_mac
                0x0000000080880ca4        0x8 arch/arm/cpu/armv7/start.o
 .rel.text.rndis_get_state
                0x0000000080880cac        0x8 arch/arm/cpu/armv7/start.o
 .rel.text.rndis_msg_parser
                0x0000000080880cb4       0xc8 arch/arm/cpu/armv7/start.o
 .rel.text.rndis_register
                0x0000000080880d7c        0x8 arch/arm/cpu/armv7/start.o
 .rel.text.rndis_deregister
                0x0000000080880d84        0x8 arch/arm/cpu/armv7/start.o
 .rel.text.rndis_set_param_dev
                0x0000000080880d8c        0x8 arch/arm/cpu/armv7/start.o
 .rel.text.rndis_set_param_vendor
                0x0000000080880d94        0x8 arch/arm/cpu/armv7/start.o
 .rel.text.rndis_set_param_medium
                0x0000000080880d9c        0x8 arch/arm/cpu/armv7/start.o
 .rel.text.rndis_free_response
                0x0000000080880da4        0x8 arch/arm/cpu/armv7/start.o
 .rel.text.rndis_get_next_response
                0x0000000080880dac        0x8 arch/arm/cpu/armv7/start.o
 .rel.text.rndis_uninit
                0x0000000080880db4        0x8 arch/arm/cpu/armv7/start.o
 .rel.text.rndis_init
                0x0000000080880dbc        0x8 arch/arm/cpu/armv7/start.o
 .rel.rodata.dfu_state
                0x0000000080880dc4       0x50 arch/arm/cpu/armv7/start.o
 .rel.rodata.usb_eth_ops
                0x0000000080880e14       0x28 arch/arm/cpu/armv7/start.o
 .rel.data.composite_driver
                0x0000000080880e3c       0x38 arch/arm/cpu/armv7/start.o
 .rel.data.g_dnl_composite_strings
                0x0000000080880e74        0x8 arch/arm/cpu/armv7/start.o
 .rel.data.g_dnl_driver
                0x0000000080880e7c       0x20 arch/arm/cpu/armv7/start.o
 .rel.data.g_dnl_string_defs
                0x0000000080880e9c       0x18 arch/arm/cpu/armv7/start.o
 .rel.data.g_dnl_string_tab
                0x0000000080880eb4        0x8 arch/arm/cpu/armv7/start.o
 .rel.u_boot_list_2_env_clbk_2_serialno
                0x0000000080880ebc       0x10 arch/arm/cpu/armv7/start.o
 .rel.data.dfu_generic_strings
                0x0000000080880ecc        0x8 arch/arm/cpu/armv7/start.o
 .rel.data.dfu_runtime_descs
                0x0000000080880ed4        0x8 arch/arm/cpu/armv7/start.o
 .rel.data.dfu_strings
                0x0000000080880edc        0x8 arch/arm/cpu/armv7/start.o
 .rel.data.strings_dfu_generic
                0x0000000080880ee4        0x8 arch/arm/cpu/armv7/start.o
 .rel.data.stringtab_dfu_generic
                0x0000000080880eec        0x8 arch/arm/cpu/armv7/start.o
 .rel.u_boot_list_2_g_dnl_bind_callbacks_2___usb_function_name_usb_dnl_dfu
                0x0000000080880ef4       0x10 arch/arm/cpu/armv7/start.o
 .rel.data.fastboot_string_defs
                0x0000000080880f04        0x8 arch/arm/cpu/armv7/start.o
 .rel.data.fastboot_strings
                0x0000000080880f0c        0x8 arch/arm/cpu/armv7/start.o
 .rel.data.fb_fs_function
                0x0000000080880f14       0x18 arch/arm/cpu/armv7/start.o
 .rel.data.fb_hs_function
                0x0000000080880f2c       0x18 arch/arm/cpu/armv7/start.o
 .rel.data.stringtab_fastboot
                0x0000000080880f44        0x8 arch/arm/cpu/armv7/start.o
 .rel.u_boot_list_2_g_dnl_bind_callbacks_2___usb_function_name_usb_dnl_fastboot
                0x0000000080880f4c       0x10 arch/arm/cpu/armv7/start.o
 .rel.data.fs_eth_function
                0x0000000080880f5c        0x8 arch/arm/cpu/armv7/start.o
 .rel.data.fs_rndis_function
                0x0000000080880f64       0x50 arch/arm/cpu/armv7/start.o
 .rel.data.hs_eth_function
                0x0000000080880fb4        0x8 arch/arm/cpu/armv7/start.o
 .rel.data.hs_rndis_function
                0x0000000080880fbc       0x50 arch/arm/cpu/armv7/start.o
 .rel.data.l_priv
                0x000000008088100c        0x8 arch/arm/cpu/armv7/start.o
 .rel.data.strings
                0x0000000080881014       0x38 arch/arm/cpu/armv7/start.o
 .rel.data.stringtab
                0x000000008088104c        0x8 arch/arm/cpu/armv7/start.o
 .rel.u_boot_list_2_driver_2_eth_usb
                0x0000000080881054       0x18 arch/arm/cpu/armv7/start.o
 .rel.text.usb_add_gadget_udc_release
                0x000000008088106c       0x10 arch/arm/cpu/armv7/start.o
 .rel.text.usb_del_gadget_udc
                0x000000008088107c        0x8 arch/arm/cpu/armv7/start.o
 .rel.text.usb_gadget_probe_driver
                0x0000000080881084       0x10 arch/arm/cpu/armv7/start.o
 .rel.text.usb_gadget_unregister_driver
                0x0000000080881094        0x8 arch/arm/cpu/armv7/start.o
 .rel.text.usb_gadget_initialize
                0x000000008088109c        0x8 arch/arm/cpu/armv7/start.o
 .rel.text.usb_gadget_release
                0x00000000808810a4        0x8 arch/arm/cpu/armv7/start.o
 .rel.text.usb_gadget_handle_interrupts
                0x00000000808810ac        0x8 arch/arm/cpu/armv7/start.o
 .rel.data.udc_list
                0x00000000808810b4       0x10 arch/arm/cpu/armv7/start.o
 .rel.u_boot_list_2_uclass_2_usb_gadget_generic
                0x00000000808810c4        0x8 arch/arm/cpu/armv7/start.o
 .rel.text.usb_child_post_bind
                0x00000000808810cc       0x10 arch/arm/cpu/armv7/start.o
 .rel.text.usb_disable_asynch
                0x00000000808810dc        0x8 arch/arm/cpu/armv7/start.o
 .rel.text.usb_stop
                0x00000000808810e4        0x8 arch/arm/cpu/armv7/start.o
 .rel.text.usb_scan_device
                0x00000000808810ec       0x28 arch/arm/cpu/armv7/start.o
 .rel.text.usb_scan_bus.isra.0
                0x0000000080881114       0x20 arch/arm/cpu/armv7/start.o
 .rel.text.usb_init
                0x0000000080881134       0x30 arch/arm/cpu/armv7/start.o
 .rel.u_boot_list_2_driver_2_usb_dev_generic_drv
                0x0000000080881164        0x8 arch/arm/cpu/armv7/start.o
 .rel.u_boot_list_2_uclass_2_usb
                0x000000008088116c       0x20 arch/arm/cpu/armv7/start.o
 .rel.u_boot_list_2_uclass_2_usb_dev_generic
                0x000000008088118c        0x8 arch/arm/cpu/armv7/start.o
 .rel.text.init_peripheral_ep
                0x0000000080881194       0x30 arch/arm/cpu/armv7/start.o
 .rel.text.musb_gadget_setup
                0x00000000808811c4       0x10 arch/arm/cpu/armv7/start.o
 .rel.text.musb_g_ep0_irq
                0x00000000808811d4       0x88 arch/arm/cpu/armv7/start.o
 .rel.text.musb_load_testpacket
                0x000000008088125c        0x8 arch/arm/cpu/armv7/start.o
 .rel.text.musb_init_controller
                0x0000000080881264       0x98 arch/arm/cpu/armv7/start.o
 .rel.text.construct_urb
                0x00000000808812fc        0x8 arch/arm/cpu/armv7/start.o
 .rel.text.musb_create_int_queue
                0x0000000080881304       0x18 arch/arm/cpu/armv7/start.o
 .rel.text.submit_urb
                0x000000008088131c        0x8 arch/arm/cpu/armv7/start.o
 .rel.text.musb_lowlevel_init
                0x0000000080881324        0x8 arch/arm/cpu/armv7/start.o
 .rel.text.musb_h_tx_flush_fifo
                0x000000008088132c        0x8 arch/arm/cpu/armv7/start.o
 .rel.text.musb_h_ep0_flush_fifo
                0x0000000080881334        0x8 arch/arm/cpu/armv7/start.o
 .rel.text.musb_start_urb
                0x000000008088133c       0x20 arch/arm/cpu/armv7/start.o
 .rel.text.musb_h_ep0_irq
                0x000000008088135c       0x20 arch/arm/cpu/armv7/start.o
 .rel.text.musb_host_rx
                0x000000008088137c       0x10 arch/arm/cpu/armv7/start.o
 .rel.text.dsps_musb_init
                0x000000008088138c        0x8 arch/arm/cpu/armv7/start.o
 .rel.text.ti_musb_ofdata_to_platdata
                0x0000000080881394       0x48 arch/arm/cpu/armv7/start.o
 .rel.text.ti_musb_wrapper_bind
                0x00000000808813dc       0x18 arch/arm/cpu/armv7/start.o
 .rel.rodata.musb_ep_ops
                0x00000000808813f4       0x48 arch/arm/cpu/armv7/start.o
 .rel.rodata.musb_gadget_operations
                0x000000008088143c       0x38 arch/arm/cpu/armv7/start.o
 .rel.rodata.CSWTCH.23
                0x0000000080881474       0x38 arch/arm/cpu/armv7/start.o
 .rel.rodata.musb_g_ep0_ops
                0x00000000808814ac       0x38 arch/arm/cpu/armv7/start.o
 .rel.rodata.CSWTCH.101
                0x00000000808814e4       0x30 arch/arm/cpu/armv7/start.o
 .rel.rodata.ti_musb_ids
                0x0000000080881514        0x8 arch/arm/cpu/armv7/start.o
 .rel.data.musb_usb_ops
                0x000000008088151c       0x38 arch/arm/cpu/armv7/start.o
 .rel.data.musb_dsps_ops
                0x0000000080881554       0x20 arch/arm/cpu/armv7/start.o
 .rel.u_boot_list_2_driver_2_ti_musb_host
                0x0000000080881574       0x28 arch/arm/cpu/armv7/start.o
 .rel.u_boot_list_2_driver_2_ti_musb_peripheral
                0x000000008088159c       0x28 arch/arm/cpu/armv7/start.o
 .rel.u_boot_list_2_driver_2_ti_musb_wrapper
                0x00000000808815c4       0x18 arch/arm/cpu/armv7/start.o
 .rel.text.env_set_default
                0x00000000808815dc       0x18 arch/arm/cpu/armv7/start.o
 .rel.text.env_set_default_vars
                0x00000000808815f4       0x10 arch/arm/cpu/armv7/start.o
 .rel.text.env_import
                0x0000000080881604       0x18 arch/arm/cpu/armv7/start.o
 .rel.text.env_export
                0x000000008088161c        0x8 arch/arm/cpu/armv7/start.o
 .rel.text.env_relocate
                0x0000000080881624        0x8 arch/arm/cpu/armv7/start.o
 .rel.text.env_complete
                0x000000008088162c       0x30 arch/arm/cpu/armv7/start.o
 .rel.text.env_driver_lookup
                0x000000008088165c       0x10 arch/arm/cpu/armv7/start.o
 .rel.text.env_get_char
                0x000000008088166c        0x8 arch/arm/cpu/armv7/start.o
 .rel.text.env_load
                0x0000000080881674       0x10 arch/arm/cpu/armv7/start.o
 .rel.text.env_save
                0x0000000080881684       0x28 arch/arm/cpu/armv7/start.o
 .rel.text.env_init
                0x00000000808816ac        0x8 arch/arm/cpu/armv7/start.o
 .rel.text.regex_callback
                0x00000000808816b4       0x10 arch/arm/cpu/armv7/start.o
 .rel.text.env_attr_lookup
                0x00000000808816c4        0x8 arch/arm/cpu/armv7/start.o
 .rel.text.skip_num
                0x00000000808816cc        0x8 arch/arm/cpu/armv7/start.o
 .rel.text.on_flags
                0x00000000808816d4       0x20 arch/arm/cpu/armv7/start.o
 .rel.text.env_flags_parse_vartype
                0x00000000808816f4       0x10 arch/arm/cpu/armv7/start.o
 .rel.text.env_flags_parse_varaccess
                0x0000000080881704       0x10 arch/arm/cpu/armv7/start.o
 .rel.text.set_flags
                0x0000000080881714       0x10 arch/arm/cpu/armv7/start.o
 .rel.text.env_flags_init
                0x0000000080881724       0x30 arch/arm/cpu/armv7/start.o
 .rel.text.env_flags_validate
                0x0000000080881754       0x38 arch/arm/cpu/armv7/start.o
 .rel.text.find_env_callback
                0x000000008088178c       0x10 arch/arm/cpu/armv7/start.o
 .rel.text.on_callbacks
                0x000000008088179c       0x20 arch/arm/cpu/armv7/start.o
 .rel.text.set_callback
                0x00000000808817bc        0x8 arch/arm/cpu/armv7/start.o
 .rel.text.env_callback_init
                0x00000000808817c4       0x20 arch/arm/cpu/armv7/start.o
 .rel.text.env_fat_device_and_part
                0x00000000808817e4       0x20 arch/arm/cpu/armv7/start.o
 .rel.text.env_fat_save
                0x0000000080881804       0x20 arch/arm/cpu/armv7/start.o
 .rel.text.env_fat_load
                0x0000000080881824       0x20 arch/arm/cpu/armv7/start.o
 .rel.data.env_htab
                0x0000000080881844        0x8 arch/arm/cpu/armv7/start.o
 .rel.u_boot_list_2_env_clbk_2_flags
                0x000000008088184c       0x10 arch/arm/cpu/armv7/start.o
 .rel.u_boot_list_2_env_clbk_2_callbacks
                0x000000008088185c       0x10 arch/arm/cpu/armv7/start.o
 .rel.u_boot_list_2_env_driver_2_fat
                0x000000008088186c       0x18 arch/arm/cpu/armv7/start.o
 .rel.text.fs_probe_unsupported
                0x0000000080881884        0x8 arch/arm/cpu/armv7/start.o
 .rel.text.fs_get_info
                0x000000008088188c        0x8 arch/arm/cpu/armv7/start.o
 .rel.text.fs_get_type
                0x0000000080881894        0x8 arch/arm/cpu/armv7/start.o
 .rel.text.fs_get_type_name
                0x000000008088189c        0x8 arch/arm/cpu/armv7/start.o
 .rel.text.fs_set_blk_dev
                0x00000000808818a4       0x28 arch/arm/cpu/armv7/start.o
 .rel.text.fs_set_blk_dev_with_part
                0x00000000808818cc       0x28 arch/arm/cpu/armv7/start.o
 .rel.text.fs_close
                0x00000000808818f4        0x8 arch/arm/cpu/armv7/start.o
 .rel.text.fs_ls
                0x00000000808818fc        0x8 arch/arm/cpu/armv7/start.o
 .rel.text.fs_exists
                0x0000000080881904        0x8 arch/arm/cpu/armv7/start.o
 .rel.text.fs_size
                0x000000008088190c        0x8 arch/arm/cpu/armv7/start.o
 .rel.text.fs_read
                0x0000000080881914        0x8 arch/arm/cpu/armv7/start.o
 .rel.text.fs_write
                0x000000008088191c       0x10 arch/arm/cpu/armv7/start.o
 .rel.text.fs_opendir
                0x000000008088192c       0x20 arch/arm/cpu/armv7/start.o
 .rel.text.fs_readdir
                0x000000008088194c       0x10 arch/arm/cpu/armv7/start.o
 .rel.text.fs_closedir
                0x000000008088195c        0x8 arch/arm/cpu/armv7/start.o
 .rel.text.fs_ls_generic
                0x0000000080881964       0x28 arch/arm/cpu/armv7/start.o
 .rel.text.fs_unlink
                0x000000008088198c        0x8 arch/arm/cpu/armv7/start.o
 .rel.text.fs_mkdir
                0x0000000080881994        0x8 arch/arm/cpu/armv7/start.o
 .rel.text.fs_ln
                0x000000008088199c       0x10 arch/arm/cpu/armv7/start.o
 .rel.text.do_size
                0x00000000808819ac        0x8 arch/arm/cpu/armv7/start.o
 .rel.text.do_load
                0x00000000808819b4       0x70 arch/arm/cpu/armv7/start.o
 .rel.text.do_ls
                0x0000000080881a24        0x8 arch/arm/cpu/armv7/start.o
 .rel.text.do_save
                0x0000000080881a2c       0x28 arch/arm/cpu/armv7/start.o
 .rel.text.do_fs_type
                0x0000000080881a54       0x10 arch/arm/cpu/armv7/start.o
 .rel.text.do_mkdir
                0x0000000080881a64        0x8 arch/arm/cpu/armv7/start.o
 .rel.text.do_fs_types
                0x0000000080881a6c       0x28 arch/arm/cpu/armv7/start.o
 .rel.text.get_fs
                0x0000000080881a94        0x8 arch/arm/cpu/armv7/start.o
 .rel.text.ext4fs_free_node
                0x0000000080881a9c        0x8 arch/arm/cpu/armv7/start.o
 .rel.text.ext4fs_ls
                0x0000000080881aa4       0x10 arch/arm/cpu/armv7/start.o
 .rel.text.ext4fs_uuid
                0x0000000080881ab4        0x8 arch/arm/cpu/armv7/start.o
 .rel.text.ext4fs_read_file
                0x0000000080881abc        0x8 arch/arm/cpu/armv7/start.o
 .rel.text.ext4fs_read
                0x0000000080881ac4       0x10 arch/arm/cpu/armv7/start.o
 .rel.text.ext4_read_file
                0x0000000080881ad4        0x8 arch/arm/cpu/armv7/start.o
 .rel.text.put_ext4
                0x0000000080881adc       0x20 arch/arm/cpu/armv7/start.o
 .rel.text.ext4fs_set_block_bmap
                0x0000000080881afc        0x8 arch/arm/cpu/armv7/start.o
 .rel.text.ext4fs_reset_block_bmap
                0x0000000080881b04        0x8 arch/arm/cpu/armv7/start.o
 .rel.text.ext4fs_set_inode_bmap
                0x0000000080881b0c        0x8 arch/arm/cpu/armv7/start.o
 .rel.text.ext4fs_reset_inode_bmap
                0x0000000080881b14        0x8 arch/arm/cpu/armv7/start.o
 .rel.text.ext4fs_get_new_blk_no
                0x0000000080881b1c       0x10 arch/arm/cpu/armv7/start.o
 .rel.text.ext4fs_get_new_inode_no
                0x0000000080881b2c       0x10 arch/arm/cpu/armv7/start.o
 .rel.text.ext4fs_allocate_blocks
                0x0000000080881b3c       0x30 arch/arm/cpu/armv7/start.o
 .rel.text.ext4fs_iget
                0x0000000080881b6c        0x8 arch/arm/cpu/armv7/start.o
 .rel.text.read_allocated_block
                0x0000000080881b74       0xd8 arch/arm/cpu/armv7/start.o
 .rel.text.ext4fs_update_parent_dentry
                0x0000000080881c4c       0x48 arch/arm/cpu/armv7/start.o
 .rel.text.search_dir
                0x0000000080881c94       0x10 arch/arm/cpu/armv7/start.o
 .rel.text.ext4fs_get_parent_inode_num
                0x0000000080881ca4       0x28 arch/arm/cpu/armv7/start.o
 .rel.text.ext4fs_filename_unlink
                0x0000000080881ccc       0x20 arch/arm/cpu/armv7/start.o
 .rel.text.ext4fs_reinit_global
                0x0000000080881cec       0x48 arch/arm/cpu/armv7/start.o
 .rel.text.ext4fs_close
                0x0000000080881d34       0x10 arch/arm/cpu/armv7/start.o
 .rel.text.ext4fs_iterate_dir
                0x0000000080881d44       0x30 arch/arm/cpu/armv7/start.o
 .rel.text.ext4fs_find_file1
                0x0000000080881d74       0x10 arch/arm/cpu/armv7/start.o
 .rel.text.ext4fs_find_file
                0x0000000080881d84        0x8 arch/arm/cpu/armv7/start.o
 .rel.text.ext4fs_open
                0x0000000080881d8c       0x10 arch/arm/cpu/armv7/start.o
 .rel.text.ext4fs_mount
                0x0000000080881d9c       0x10 arch/arm/cpu/armv7/start.o
 .rel.text.ext4fs_set_blk_dev
                0x0000000080881dac       0x10 arch/arm/cpu/armv7/start.o
 .rel.text.ext4fs_devread
                0x0000000080881dbc        0x8 arch/arm/cpu/armv7/start.o
 .rel.text.ext4fs_update
                0x0000000080881dc4       0x10 arch/arm/cpu/armv7/start.o
 .rel.text.ext4fs_get_bgdtable
                0x0000000080881dd4        0x8 arch/arm/cpu/armv7/start.o
 .rel.text.ext4fs_deinit
                0x0000000080881ddc        0x8 arch/arm/cpu/armv7/start.o
 .rel.text.ext4fs_init
                0x0000000080881de4       0x10 arch/arm/cpu/armv7/start.o
 .rel.text.ext4fs_write
                0x0000000080881df4       0x80 arch/arm/cpu/armv7/start.o
 .rel.text.ext4_write_file
                0x0000000080881e74       0x10 arch/arm/cpu/armv7/start.o
 .rel.text.ext4fs_dump_metadata
                0x0000000080881e84        0x8 arch/arm/cpu/armv7/start.o
 .rel.text.ext4fs_free_journal
                0x0000000080881e8c       0x28 arch/arm/cpu/armv7/start.o
 .rel.text.ext4fs_log_gdt
                0x0000000080881eb4       0x10 arch/arm/cpu/armv7/start.o
 .rel.text.ext4fs_log_journal
                0x0000000080881ec4       0x20 arch/arm/cpu/armv7/start.o
 .rel.text.ext4fs_put_metadata
                0x0000000080881ee4       0x20 arch/arm/cpu/armv7/start.o
 .rel.text.ext4fs_push_revoke_blk
                0x0000000080881f04       0x28 arch/arm/cpu/armv7/start.o
 .rel.text.ext4fs_free_revoke_blks
                0x0000000080881f2c       0x18 arch/arm/cpu/armv7/start.o
 .rel.text.check_blknr_for_revoke
                0x0000000080881f44        0x8 arch/arm/cpu/armv7/start.o
 .rel.text.recover_transaction
                0x0000000080881f4c       0x10 arch/arm/cpu/armv7/start.o
 .rel.text.print_jrnl_status
                0x0000000080881f5c       0x10 arch/arm/cpu/armv7/start.o
 .rel.text.ext4fs_check_journal_state
                0x0000000080881f6c       0x18 arch/arm/cpu/armv7/start.o
 .rel.text.ext4fs_init_journal
                0x0000000080881f84       0x38 arch/arm/cpu/armv7/start.o
 .rel.text.ext4fs_update_journal
                0x0000000080881fbc       0x20 arch/arm/cpu/armv7/start.o
 .rel.text.ext2fs_crc16
                0x0000000080881fdc        0x8 arch/arm/cpu/armv7/start.o
 .rel.text.downcase
                0x0000000080881fe4        0x8 arch/arm/cpu/armv7/start.o
 .rel.text.disk_read
                0x0000000080881fec       0x10 arch/arm/cpu/armv7/start.o
 .rel.text.read_bootsectandvi
                0x0000000080881ffc       0x20 arch/arm/cpu/armv7/start.o
 .rel.text.fat_itr_root
                0x000000008088201c       0x20 arch/arm/cpu/armv7/start.o
 .rel.text.split_filename
                0x000000008088203c        0x8 arch/arm/cpu/armv7/start.o
 .rel.text.disk_write
                0x0000000080882044       0x20 arch/arm/cpu/armv7/start.o
 .rel.text.get_fatent
                0x0000000080882064        0x8 arch/arm/cpu/armv7/start.o
 .rel.text.normalize_longname
                0x000000008088206c        0x8 arch/arm/cpu/armv7/start.o
 .rel.text.set_name
                0x0000000080882074        0x8 arch/arm/cpu/armv7/start.o
 .rel.text.fat_itr_resolve
                0x000000008088207c       0x10 arch/arm/cpu/armv7/start.o
 .rel.text.set_contents
                0x000000008088208c       0x20 arch/arm/cpu/armv7/start.o
 .rel.text.fat_set_blk_dev
                0x00000000808820ac       0x28 arch/arm/cpu/armv7/start.o
 .rel.text.file_fat_detectfs
                0x00000000808820d4       0x70 arch/arm/cpu/armv7/start.o
 .rel.text.file_fat_read_at
                0x0000000080882144       0x10 arch/arm/cpu/armv7/start.o
 .rel.text.fat_read_file
                0x0000000080882154        0x8 arch/arm/cpu/armv7/start.o
 .rel.text.file_fat_write_at
                0x000000008088215c       0x48 arch/arm/cpu/armv7/start.o
 .rel.text.fat_unlink
                0x00000000808821a4       0x50 arch/arm/cpu/armv7/start.o
 .rel.text.fat_mkdir
                0x00000000808821f4       0x68 arch/arm/cpu/armv7/start.o
 .rel.text.fs_devread
                0x000000008088225c       0x30 arch/arm/cpu/armv7/start.o
 .rel.data.fstypes
                0x000000008088228c      0x148 arch/arm/cpu/armv7/start.o
 .rel.text.efi_uc_destroy
                0x00000000808823d4        0x8 arch/arm/cpu/armv7/start.o
 .rel.text.efi_uc_init
                0x00000000808823dc        0x8 arch/arm/cpu/armv7/start.o
 .rel.text.check_node_type
                0x00000000808823e4       0x10 arch/arm/cpu/armv7/start.o
 .rel.text.efi_uc_start
                0x00000000808823f4        0x8 arch/arm/cpu/armv7/start.o
 .rel.text.efi_uc_supported
                0x00000000808823fc        0x8 arch/arm/cpu/armv7/start.o
 .rel.text.disconnect_child
                0x0000000080882404        0x8 arch/arm/cpu/armv7/start.o
 .rel.text.efi_uc_stop
                0x000000008088240c       0x18 arch/arm/cpu/armv7/start.o
 .rel.text.efi_driver_init
                0x0000000080882424       0x40 arch/arm/cpu/armv7/start.o
 .rel.text.efi_bl_bind
                0x0000000080882464       0x10 arch/arm/cpu/armv7/start.o
 .rel.text.get_var.constprop.0
                0x0000000080882474        0x8 arch/arm/cpu/armv7/start.o
 .rel.text.efi_set_load_options
                0x000000008088247c       0x18 arch/arm/cpu/armv7/start.o
 .rel.text.try_load_entry
                0x0000000080882494       0x48 arch/arm/cpu/armv7/start.o
 .rel.text.efi_bootmgr_load
                0x00000000808824dc       0x38 arch/arm/cpu/armv7/start.o
 .rel.text.efi_is_event
                0x0000000080882514        0x8 arch/arm/cpu/armv7/start.o
 .rel.text.__efi_entry_check
                0x000000008088251c       0x18 arch/arm/cpu/armv7/start.o
 .rel.text.__efi_exit_check
                0x0000000080882534       0x10 arch/arm/cpu/armv7/start.o
 .rel.text.efi_process_event_queue
                0x0000000080882544       0x10 arch/arm/cpu/armv7/start.o
 .rel.text.efi_queue_event
                0x0000000080882554        0x8 arch/arm/cpu/armv7/start.o
 .rel.text.efi_get_next_monotonic_count
                0x000000008088255c        0x8 arch/arm/cpu/armv7/start.o
 .rel.text.efi_register_protocol_notify
                0x0000000080882564        0x8 arch/arm/cpu/armv7/start.o
 .rel.text.efi_close_event
                0x000000008088256c        0x8 arch/arm/cpu/armv7/start.o
 .rel.text.efi_raise_tpl
                0x0000000080882574        0x8 arch/arm/cpu/armv7/start.o
 .rel.text.efi_save_gd
                0x000000008088257c        0x8 arch/arm/cpu/armv7/start.o
 .rel.text.efi_restore_gd
                0x0000000080882584        0x8 arch/arm/cpu/armv7/start.o
 .rel.text.efi_signal_event
                0x000000008088258c        0x8 arch/arm/cpu/armv7/start.o
 .rel.text.efi_exit_boot_services
                0x0000000080882594       0x38 arch/arm/cpu/armv7/start.o
 .rel.text.efi_add_handle
                0x00000000808825cc        0x8 arch/arm/cpu/armv7/start.o
 .rel.text.efi_create_event
                0x00000000808825d4        0x8 arch/arm/cpu/armv7/start.o
 .rel.text.efi_timer_check
                0x00000000808825dc       0x10 arch/arm/cpu/armv7/start.o
 .rel.text.efi_wait_for_event
                0x00000000808825ec        0x8 arch/arm/cpu/armv7/start.o
 .rel.text.efi_restore_tpl
                0x00000000808825f4        0x8 arch/arm/cpu/armv7/start.o
 .rel.text.efi_search_obj
                0x00000000808825fc        0x8 arch/arm/cpu/armv7/start.o
 .rel.text.efi_locate_protocol
                0x0000000080882604       0x10 arch/arm/cpu/armv7/start.o
 .rel.text.efi_locate_handle
                0x0000000080882614       0x10 arch/arm/cpu/armv7/start.o
 .rel.text.efi_locate_device_path
                0x0000000080882624        0x8 arch/arm/cpu/armv7/start.o
 .rel.text.efi_delete_image
                0x000000008088262c        0x8 arch/arm/cpu/armv7/start.o
 .rel.text.efi_disconnect_controller
                0x0000000080882634        0x8 arch/arm/cpu/armv7/start.o
 .rel.text.efi_handle_protocol
                0x000000008088263c        0x8 arch/arm/cpu/armv7/start.o
 .rel.text.efi_bind_controller
                0x0000000080882644        0x8 arch/arm/cpu/armv7/start.o
 .rel.text.efi_exit
                0x000000008088264c       0x18 arch/arm/cpu/armv7/start.o
 .rel.text.efi_start_image
                0x0000000080882664       0x20 arch/arm/cpu/armv7/start.o
 .rel.text.efi_unload_image
                0x0000000080882684        0x8 arch/arm/cpu/armv7/start.o
 .rel.text.efi_connect_controller
                0x000000008088268c        0x8 arch/arm/cpu/armv7/start.o
 .rel.text.efi_add_protocol
                0x0000000080882694       0x10 arch/arm/cpu/armv7/start.o
 .rel.text.efi_install_multiple_protocol_interfaces
                0x00000000808826a4        0x8 arch/arm/cpu/armv7/start.o
 .rel.text.efi_install_configuration_table
                0x00000000808826ac       0x10 arch/arm/cpu/armv7/start.o
 .rel.text.efi_setup_loaded_image
                0x00000000808826bc       0x20 arch/arm/cpu/armv7/start.o
 .rel.text.efi_load_image
                0x00000000808826dc       0x18 arch/arm/cpu/armv7/start.o
 .rel.text.efi_initialize_system_table
                0x00000000808826f4       0x28 arch/arm/cpu/armv7/start.o
 .rel.text.efi_cout_enable_cursor
                0x000000008088271c       0x10 arch/arm/cpu/armv7/start.o
 .rel.text.efi_cout_set_cursor_position
                0x000000008088272c       0x18 arch/arm/cpu/armv7/start.o
 .rel.text.efi_cout_clear_screen
                0x0000000080882744       0x10 arch/arm/cpu/armv7/start.o
 .rel.text.efi_cout_set_attribute
                0x0000000080882754       0x20 arch/arm/cpu/armv7/start.o
 .rel.text.efi_cout_reset
                0x0000000080882774       0x10 arch/arm/cpu/armv7/start.o
 .rel.text.efi_cout_output_string
                0x0000000080882784       0x10 arch/arm/cpu/armv7/start.o
 .rel.text.efi_cin_unregister_key_notify
                0x0000000080882794        0x8 arch/arm/cpu/armv7/start.o
 .rel.text.efi_cin_empty_buffer
                0x000000008088279c        0x8 arch/arm/cpu/armv7/start.o
 .rel.text.efi_cin_register_key_notify
                0x00000000808827a4        0x8 arch/arm/cpu/armv7/start.o
 .rel.text.efi_cout_set_mode
                0x00000000808827ac       0x10 arch/arm/cpu/armv7/start.o
 .rel.text.efi_cout_query_mode
                0x00000000808827bc       0x10 arch/arm/cpu/armv7/start.o
 .rel.text.analyze_modifiers.constprop.0
                0x00000000808827cc        0x8 arch/arm/cpu/armv7/start.o
 .rel.text.efi_cin_check
                0x00000000808827d4      0x1a0 arch/arm/cpu/armv7/start.o
 .rel.text.efi_cin_read_key_stroke
                0x0000000080882974       0x18 arch/arm/cpu/armv7/start.o
 .rel.text.efi_cin_read_key_stroke_ex
                0x000000008088298c       0x18 arch/arm/cpu/armv7/start.o
 .rel.text.efi_console_register
                0x00000000808829a4       0xa0 arch/arm/cpu/armv7/start.o
 .rel.text.dp_fill
                0x0000000080882a44        0x8 arch/arm/cpu/armv7/start.o
 .rel.text.find_obj
                0x0000000080882a4c       0x10 arch/arm/cpu/armv7/start.o
 .rel.text.efi_dp_append
                0x0000000080882a5c        0x8 arch/arm/cpu/armv7/start.o
 .rel.text.efi_dp_append_node
                0x0000000080882a64        0x8 arch/arm/cpu/armv7/start.o
 .rel.text.efi_dp_append_instance
                0x0000000080882a6c        0x8 arch/arm/cpu/armv7/start.o
 .rel.text.efi_dp_from_part
                0x0000000080882a74        0x8 arch/arm/cpu/armv7/start.o
 .rel.text.efi_dp_from_file
                0x0000000080882a7c        0x8 arch/arm/cpu/armv7/start.o
 .rel.text.efi_dp_from_eth
                0x0000000080882a84        0x8 arch/arm/cpu/armv7/start.o
 .rel.text.efi_dp_from_mem
                0x0000000080882a8c        0x8 arch/arm/cpu/armv7/start.o
 .rel.text.efi_dp_from_name
                0x0000000080882a94       0x10 arch/arm/cpu/armv7/start.o
 .rel.text.dp_unknown
                0x0000000080882aa4        0x8 arch/arm/cpu/armv7/start.o
 .rel.text.efi_convert_single_device_node_to_text
                0x0000000080882aac      0x198 arch/arm/cpu/armv7/start.o
 .rel.text.file_open
                0x0000000080882c44       0x30 arch/arm/cpu/armv7/start.o
 .rel.text.efi_file_getinfo
                0x0000000080882c74       0x18 arch/arm/cpu/armv7/start.o
 .rel.text.efi_file_setinfo
                0x0000000080882c8c        0x8 arch/arm/cpu/armv7/start.o
 .rel.text.efi_file_from_path
                0x0000000080882c94        0x8 arch/arm/cpu/armv7/start.o
 .rel.text.efi_simple_file_system
                0x0000000080882c9c        0x8 arch/arm/cpu/armv7/start.o
 .rel.text.efi_hii_packagelist_exists
                0x0000000080882ca4        0x8 arch/arm/cpu/armv7/start.o
 .rel.text.get_package_list_handle
                0x0000000080882cac        0x8 arch/arm/cpu/armv7/start.o
 .rel.text.list_package_lists
                0x0000000080882cb4        0x8 arch/arm/cpu/armv7/start.o
 .rel.text.find_keyboard_layouts
                0x0000000080882cbc        0x8 arch/arm/cpu/armv7/start.o
 .rel.text.get_keyboard_layout
                0x0000000080882cc4        0x8 arch/arm/cpu/armv7/start.o
 .rel.text.add_packages
                0x0000000080882ccc        0x8 arch/arm/cpu/armv7/start.o
 .rel.text.new_package_list
                0x0000000080882cd4        0x8 arch/arm/cpu/armv7/start.o
 .rel.text.update_package_list
                0x0000000080882cdc       0x50 arch/arm/cpu/armv7/start.o
 .rel.text.efi_set_code_and_data_type
                0x0000000080882d2c        0x8 arch/arm/cpu/armv7/start.o
 .rel.text.efi_print_image_infos
                0x0000000080882d34       0x38 arch/arm/cpu/armv7/start.o
 .rel.text.efi_load_pe
                0x0000000080882d6c       0x50 arch/arm/cpu/armv7/start.o
 .rel.text.efi_check_allocated
                0x0000000080882dbc        0x8 arch/arm/cpu/armv7/start.o
 .rel.text.efi_find_free_memory
                0x0000000080882dc4        0x8 arch/arm/cpu/armv7/start.o
 .rel.text.efi_add_memory_map_pg
                0x0000000080882dcc       0x28 arch/arm/cpu/armv7/start.o
 .rel.text.efi_free_pages
                0x0000000080882df4       0x10 arch/arm/cpu/armv7/start.o
 .rel.text.efi_free_pool
                0x0000000080882e04       0x10 arch/arm/cpu/armv7/start.o
 .rel.text.efi_get_memory_map
                0x0000000080882e14       0x10 arch/arm/cpu/armv7/start.o
 .rel.text.efi_memory_init
                0x0000000080882e24       0x10 arch/arm/cpu/armv7/start.o
 .rel.text.efi_root_node_register
                0x0000000080882e34       0x78 arch/arm/cpu/armv7/start.o
 .rel.text.efi_reset_system_boottime
                0x0000000080882eac       0x10 arch/arm/cpu/armv7/start.o
 .rel.text.efi_init_runtime_supported
                0x0000000080882ebc        0x8 arch/arm/cpu/armv7/start.o
 .rel.text.efi_runtime_detach
                0x0000000080882ec4       0x20 arch/arm/cpu/armv7/start.o
 .rel.text.efi_runtime_relocate
                0x0000000080882ee4       0x40 arch/arm/cpu/armv7/start.o
 .rel.text.efi_set_virtual_address_map
                0x0000000080882f24       0x38 arch/arm/cpu/armv7/start.o
 .rel.text.efi_init_obj_list
                0x0000000080882f5c       0x38 arch/arm/cpu/armv7/start.o
 .rel.text.efi_str_to_fat
                0x0000000080882f94       0x10 arch/arm/cpu/armv7/start.o
 .rel.text.efi_fat_to_str
                0x0000000080882fa4        0x8 arch/arm/cpu/armv7/start.o
 .rel.text.efi_init_secure_state
                0x0000000080882fac       0x48 arch/arm/cpu/armv7/start.o
 .rel.text.efi_auth_var_get_type
                0x0000000080882ff4        0x8 arch/arm/cpu/armv7/start.o
 .rel.text.efi_var_mem_notify_exit_boot_services
                0x0000000080882ffc        0x8 arch/arm/cpu/armv7/start.o
 .rel.text.efi_var_mem_init
                0x0000000080883004       0x18 arch/arm/cpu/armv7/start.o
 .rel.text.efi_set_blk_dev_to_system_partition
                0x000000008088301c       0x20 arch/arm/cpu/armv7/start.o
 .rel.text.efi_var_to_file
                0x000000008088303c       0x10 arch/arm/cpu/armv7/start.o
 .rel.text.efi_var_restore
                0x000000008088304c       0x10 arch/arm/cpu/armv7/start.o
 .rel.text.efi_var_from_file
                0x000000008088305c       0x20 arch/arm/cpu/armv7/start.o
 .rel.text.efi_set_variable_int
                0x000000008088307c        0x8 arch/arm/cpu/armv7/start.o
 .rel.text.efi_variables_boot_exit_notify
                0x0000000080883084       0x28 arch/arm/cpu/armv7/start.o
 .rel.text.efi_watchdog_timer_notify
                0x00000000808830ac       0x10 arch/arm/cpu/armv7/start.o
 .rel.text.efi_set_watchdog
                0x00000000808830bc        0x8 arch/arm/cpu/armv7/start.o
 .rel.text.efi_watchdog_register
                0x00000000808830c4       0x20 arch/arm/cpu/armv7/start.o
 .rel.text.efi_disk_add_dev.isra.0.part.0
                0x00000000808830e4       0x40 arch/arm/cpu/armv7/start.o
 .rel.text.efi_fs_from_path
                0x0000000080883124        0x8 arch/arm/cpu/armv7/start.o
 .rel.text.efi_disk_create_partitions
                0x000000008088312c       0x18 arch/arm/cpu/armv7/start.o
 .rel.text.efi_disk_register
                0x0000000080883144       0x20 arch/arm/cpu/armv7/start.o
 .rel.text.efi_net_push
                0x0000000080883164       0x20 arch/arm/cpu/armv7/start.o
 .rel.text.efi_network_timer_notify
                0x0000000080883184       0x20 arch/arm/cpu/armv7/start.o
 .rel.text.efi_net_start
                0x00000000808831a4        0x8 arch/arm/cpu/armv7/start.o
 .rel.text.efi_net_get_status
                0x00000000808831ac        0x8 arch/arm/cpu/armv7/start.o
 .rel.text.efi_net_receive
                0x00000000808831b4       0x28 arch/arm/cpu/armv7/start.o
 .rel.text.efi_net_transmit
                0x00000000808831dc       0x10 arch/arm/cpu/armv7/start.o
 .rel.text.efi_net_shutdown
                0x00000000808831ec        0x8 arch/arm/cpu/armv7/start.o
 .rel.text.efi_net_stop
                0x00000000808831f4        0x8 arch/arm/cpu/armv7/start.o
 .rel.text.efi_net_initialize
                0x00000000808831fc       0x10 arch/arm/cpu/armv7/start.o
 .rel.text.efi_net_set_dhcp_ack
                0x000000008088320c        0x8 arch/arm/cpu/armv7/start.o
 .rel.text.efi_net_register
                0x0000000080883214      0x138 arch/arm/cpu/armv7/start.o
 .rel.text.efi_smbios_register
                0x000000008088334c        0x8 arch/arm/cpu/armv7/start.o
 .rel.text.fdt_next_tag
                0x0000000080883354       0x48 arch/arm/cpu/armv7/start.o
 .rel.text.fdt_get_phandle
                0x000000008088339c       0x10 arch/arm/cpu/armv7/start.o
 .rel.text.fdt_get_alias_namelen
                0x00000000808833ac        0x8 arch/arm/cpu/armv7/start.o
 .rel.text.fdt_node_check_compatible
                0x00000000808833b4        0x8 arch/arm/cpu/armv7/start.o
 .rel.text.fdt_strerror
                0x00000000808833bc       0x20 arch/arm/cpu/armv7/start.o
 .rel.text.fdt_address_cells
                0x00000000808833dc        0x8 arch/arm/cpu/armv7/start.o
 .rel.text.fdt_size_cells
                0x00000000808833e4        0x8 arch/arm/cpu/armv7/start.o
 .rel.text.overlay_adjust_node_phandles
                0x00000000808833ec       0x10 arch/arm/cpu/armv7/start.o
 .rel.text.overlay_get_target
                0x00000000808833fc       0x10 arch/arm/cpu/armv7/start.o
 .rel.text.fdt_overlay_apply
                0x000000008088340c       0x48 arch/arm/cpu/armv7/start.o
 .rel.text.console_read_unicode
                0x0000000080883454        0x8 arch/arm/cpu/armv7/start.o
 .rel.text.utf8_get
                0x000000008088345c        0x8 arch/arm/cpu/armv7/start.o
 .rel.text.utf_to_lower
                0x0000000080883464        0x8 arch/arm/cpu/armv7/start.o
 .rel.text.utf_to_upper
                0x000000008088346c        0x8 arch/arm/cpu/armv7/start.o
 .rel.text.crc16_ccitt
                0x0000000080883474        0x8 arch/arm/cpu/armv7/start.o
 .rel.text.smbios_add_string
                0x000000008088347c        0x8 arch/arm/cpu/armv7/start.o
 .rel.text.smbios_write_type0
                0x0000000080883484       0x18 arch/arm/cpu/armv7/start.o
 .rel.text.smbios_write_type3
                0x000000008088349c        0x8 arch/arm/cpu/armv7/start.o
 .rel.text.smbios_write_type2
                0x00000000808834a4       0x18 arch/arm/cpu/armv7/start.o
 .rel.text.smbios_write_type1
                0x00000000808834bc       0x38 arch/arm/cpu/armv7/start.o
 .rel.text.smbios_write_type4
                0x00000000808834f4        0x8 arch/arm/cpu/armv7/start.o
 .rel.text.write_smbios_table
                0x00000000808834fc       0x20 arch/arm/cpu/armv7/start.o
 .rel.text.write_sparse_image
                0x000000008088351c       0x98 arch/arm/cpu/armv7/start.o
 .rel.text.list_sort
                0x00000000808835b4        0x8 arch/arm/cpu/armv7/start.o
 .rel.text.sha1_finish
                0x00000000808835bc        0x8 arch/arm/cpu/armv7/start.o
 .rel.text.sha256_finish
                0x00000000808835c4        0x8 arch/arm/cpu/armv7/start.o
 .rel.text.inflate_fast
                0x00000000808835cc       0x18 arch/arm/cpu/armv7/start.o
 .rel.text.inflate_table
                0x00000000808835e4       0x20 arch/arm/cpu/armv7/start.o
 .rel.text.inflateInit2_
                0x0000000080883604       0x10 arch/arm/cpu/armv7/start.o
 .rel.text.inflate
                0x0000000080883614       0xa0 arch/arm/cpu/armv7/start.o
 .rel.text.gzip_parse_header
                0x00000000808836b4       0x10 arch/arm/cpu/armv7/start.o
 .rel.text.zunzip
                0x00000000808836c4       0x28 arch/arm/cpu/armv7/start.o
 .rel.text.lzop_is_valid_header
                0x00000000808836ec        0x8 arch/arm/cpu/armv7/start.o
 .rel.text.fdtdec_get_is_enabled
                0x00000000808836f4       0x10 arch/arm/cpu/armv7/start.o
 .rel.text.fdtdec_get_alias_seq
                0x0000000080883704        0x8 arch/arm/cpu/armv7/start.o
 .rel.text.fdtdec_get_alias_highest_id
                0x000000008088370c        0x8 arch/arm/cpu/armv7/start.o
 .rel.text.fdtdec_get_chosen_prop
                0x0000000080883714        0x8 arch/arm/cpu/armv7/start.o
 .rel.text.fdtdec_prepare_fdt
                0x000000008088371c        0x8 arch/arm/cpu/armv7/start.o
 .rel.text.fdtdec_get_config_int
                0x0000000080883724        0x8 arch/arm/cpu/armv7/start.o
 .rel.text.fdtdec_get_config_string
                0x000000008088372c        0x8 arch/arm/cpu/armv7/start.o
 .rel.text.board_fdt_blob_setup
                0x0000000080883734        0x8 arch/arm/cpu/armv7/start.o
 .rel.text.fdtdec_setup
                0x000000008088373c        0x8 arch/arm/cpu/armv7/start.o
 .rel.text.match_string
                0x0000000080883744        0x8 arch/arm/cpu/armv7/start.o
 .rel.text.match_entry
                0x000000008088374c        0x8 arch/arm/cpu/armv7/start.o
 .rel.text.hcreate_r
                0x0000000080883754        0x8 arch/arm/cpu/armv7/start.o
 .rel.text.hdestroy_r
                0x000000008088375c        0x8 arch/arm/cpu/armv7/start.o
 .rel.text.hmatch_r
                0x0000000080883764        0x8 arch/arm/cpu/armv7/start.o
 .rel.text.hsearch_r
                0x000000008088376c        0x8 arch/arm/cpu/armv7/start.o
 .rel.text.hdelete_r
                0x0000000080883774        0x8 arch/arm/cpu/armv7/start.o
 .rel.text.hexport_r
                0x000000008088377c       0x18 arch/arm/cpu/armv7/start.o
 .rel.text.himport_r
                0x0000000080883794       0x20 arch/arm/cpu/armv7/start.o
 .rel.text.display_options_get_banner_priv
                0x00000000808837b4       0x28 arch/arm/cpu/armv7/start.o
 .rel.text.display_options
                0x00000000808837dc        0x8 arch/arm/cpu/armv7/start.o
 .rel.text.print_size
                0x00000000808837e4       0x28 arch/arm/cpu/armv7/start.o
 .rel.text.print_buffer
                0x000000008088380c       0x28 arch/arm/cpu/armv7/start.o
 .rel.text.hang
                0x0000000080883834        0x8 arch/arm/cpu/armv7/start.o
 .rel.text.skip_spaces
                0x000000008088383c        0x8 arch/arm/cpu/armv7/start.o
 .rel.text.strim
                0x0000000080883844        0x8 arch/arm/cpu/armv7/start.o
 .rel.text.lmb_dump_all_force
                0x000000008088384c       0x48 arch/arm/cpu/armv7/start.o
 .rel.text.lmb_alloc_base
                0x0000000080883894        0x8 arch/arm/cpu/armv7/start.o
 .rel.text.emit
                0x000000008088389c        0x8 arch/arm/cpu/armv7/start.o
 .rel.text.store_char_in_data
                0x00000000808838a4        0x8 arch/arm/cpu/armv7/start.o
 .rel.text.match
                0x00000000808838ac       0x10 arch/arm/cpu/armv7/start.o
 .rel.text.quantifier
                0x00000000808838bc        0x8 arch/arm/cpu/armv7/start.o
 .rel.text.fixup_branch
                0x00000000808838c4        0x8 arch/arm/cpu/armv7/start.o
 .rel.text.compile
                0x00000000808838cc       0x80 arch/arm/cpu/armv7/start.o
 .rel.text.slre_compile
                0x000000008088394c        0x8 arch/arm/cpu/armv7/start.o
 .rel.text.strncasecmp
                0x0000000080883954        0x8 arch/arm/cpu/armv7/start.o
 .rel.text.strtok
                0x000000008088395c        0x8 arch/arm/cpu/armv7/start.o
 .rel.text.get_ticks
                0x0000000080883964       0x10 arch/arm/cpu/armv7/start.o
 .rel.text.uuid_str_valid
                0x0000000080883974        0x8 arch/arm/cpu/armv7/start.o
 .rel.text.uuid_bin_to_str
                0x000000008088397c       0x20 arch/arm/cpu/armv7/start.o
 .rel.text.rand
                0x000000008088399c        0x8 arch/arm/cpu/armv7/start.o
 .rel.text.srand
                0x00000000808839a4        0x8 arch/arm/cpu/armv7/start.o
 .rel.text.__assert_fail
                0x00000000808839ac        0x8 arch/arm/cpu/armv7/start.o
 .rel.text.number
                0x00000000808839b4        0x8 arch/arm/cpu/armv7/start.o
 .rel.text.string16
                0x00000000808839bc        0x8 arch/arm/cpu/armv7/start.o
 .rel.text.string
                0x00000000808839c4        0x8 arch/arm/cpu/armv7/start.o
 .rel.text.vsnprintf_internal
                0x00000000808839cc       0xc8 arch/arm/cpu/armv7/start.o
 .rel.text.simple_itoa
                0x0000000080883a94        0x8 arch/arm/cpu/armv7/start.o
 .rel.text._parse_integer_fixup_radix
                0x0000000080883a9c        0x8 arch/arm/cpu/armv7/start.o
 .rel.text.simple_strtoul
                0x0000000080883aa4        0x8 arch/arm/cpu/armv7/start.o
 .rel.text.ustrtoul
                0x0000000080883aac        0x8 arch/arm/cpu/armv7/start.o
 .rel.text.simple_strtoull
                0x0000000080883ab4        0x8 arch/arm/cpu/armv7/start.o
 .rel.text.ustrtoull
                0x0000000080883abc        0x8 arch/arm/cpu/armv7/start.o
 .rel.text.trailing_strtoln
                0x0000000080883ac4        0x8 arch/arm/cpu/armv7/start.o
 .rel.text.valid_elf_image
                0x0000000080883acc       0x10 arch/arm/cpu/armv7/start.o
 .rel.rodata.driver_ops
                0x0000000080883adc       0x18 arch/arm/cpu/armv7/start.o
 .rel.rodata.efi_blk_ops
                0x0000000080883af4       0x10 arch/arm/cpu/armv7/start.o
 .rel.rodata.efi_device_path_to_text
                0x0000000080883b04       0x10 arch/arm/cpu/armv7/start.o
 .rel.rodata.efi_device_path_utilities
                0x0000000080883b14       0x40 arch/arm/cpu/armv7/start.o
 .rel.rodata.efi_file_handle_protocol
                0x0000000080883b54       0x70 arch/arm/cpu/armv7/start.o
 .rel.rodata.efi_hii_database
                0x0000000080883bc4       0x58 arch/arm/cpu/armv7/start.o
 .rel.rodata.efi_hii_string
                0x0000000080883c1c       0x28 arch/arm/cpu/armv7/start.o
 .rel.rodata.efi_hii_config_routing
                0x0000000080883c44       0x30 arch/arm/cpu/armv7/start.o
 .rel.rodata.efi_unicode_collation_protocol2
                0x0000000080883c74       0x38 arch/arm/cpu/armv7/start.o
 .rel.rodata.name_type
                0x0000000080883cac       0x40 arch/arm/cpu/armv7/start.o
 .rel.rodata.fdt_errtable
                0x0000000080883cec       0x90 arch/arm/cpu/armv7/start.o
 .rel.rodata.smbios_write_funcs
                0x0000000080883d7c       0x50 arch/arm/cpu/armv7/start.o
 .rel.u_boot_list_2_uclass_2_efi
                0x0000000080883dcc       0x18 arch/arm/cpu/armv7/start.o
 .rel.u_boot_list_2_driver_2_efi_blk
                0x0000000080883de4       0x10 arch/arm/cpu/armv7/start.o
 .rel.u_boot_list_2_driver_2_efi_block
                0x0000000080883df4       0x10 arch/arm/cpu/armv7/start.o
 .rel.data.efi_boot_services
                0x0000000080883e04      0x158 arch/arm/cpu/armv7/start.o
 .rel.data.efi_event_queue
                0x0000000080883f5c       0x10 arch/arm/cpu/armv7/start.o
 .rel.data.efi_obj_list
                0x0000000080883f6c       0x10 arch/arm/cpu/armv7/start.o
 .rel.data.efi_register_notify_events
                0x0000000080883f7c       0x10 arch/arm/cpu/armv7/start.o
 .rel.data.cin_notify_functions
                0x0000000080883f8c       0x10 arch/arm/cpu/armv7/start.o
 .rel.data.efi_con_in
                0x0000000080883f9c       0x10 arch/arm/cpu/armv7/start.o
 .rel.data.efi_con_in_ex
                0x0000000080883fac       0x28 arch/arm/cpu/armv7/start.o
 .rel.data.efi_con_out
                0x0000000080883fd4       0x50 arch/arm/cpu/armv7/start.o
 .rel.data.efi_keyboard_layout_list
                0x0000000080884024       0x10 arch/arm/cpu/armv7/start.o
 .rel.data.efi_package_lists
                0x0000000080884034       0x10 arch/arm/cpu/armv7/start.o
 .rel.data.efi_mem
                0x0000000080884044       0x10 arch/arm/cpu/armv7/start.o
 .rel.data.efi_runtime_mmio
                0x0000000080884054       0x10 arch/arm/cpu/armv7/start.o
 .rel.text.arp_init
                0x0000000080884064       0x30 arch/arm/cpu/armv7/start.o
 .rel.text.arp_raw_request
                0x0000000080884094       0x18 arch/arm/cpu/armv7/start.o
 .rel.text.arp_request
                0x00000000808840ac       0x38 arch/arm/cpu/armv7/start.o
 .rel.text.arp_timeout_check
                0x00000000808840e4       0x28 arch/arm/cpu/armv7/start.o
 .rel.text.arp_receive
                0x000000008088410c       0x40 arch/arm/cpu/armv7/start.o
 .rel.text.arp_is_waiting
                0x000000008088414c        0x8 arch/arm/cpu/armv7/start.o
 .rel.text.dhcp_extended
                0x0000000080884154       0x30 arch/arm/cpu/armv7/start.o
 .rel.text.dhcp_process_options
                0x0000000080884184      0x190 arch/arm/cpu/armv7/start.o
 .rel.text.dhcp_packet_process_options
                0x0000000080884314        0x8 arch/arm/cpu/armv7/start.o
 .rel.text.dhcp_handler
                0x000000008088431c       0x98 arch/arm/cpu/armv7/start.o
 .rel.text.bootp_reset
                0x00000000808843b4       0x20 arch/arm/cpu/armv7/start.o
 .rel.text.bootp_request
                0x00000000808843d4       0x78 arch/arm/cpu/armv7/start.o
 .rel.text.bootp_timeout_handler
                0x000000008088444c       0x28 arch/arm/cpu/armv7/start.o
 .rel.text.eth_write_hwaddr
                0x0000000080884474       0x10 arch/arm/cpu/armv7/start.o
 .rel.text.eth_post_probe
                0x0000000080884484       0x48 arch/arm/cpu/armv7/start.o
 .rel.text.eth_post_bind
                0x00000000808844cc        0x8 arch/arm/cpu/armv7/start.o
 .rel.text.eth_get_dev
                0x00000000808844d4        0x8 arch/arm/cpu/armv7/start.o
 .rel.text.eth_set_dev
                0x00000000808844dc        0x8 arch/arm/cpu/armv7/start.o
 .rel.text.eth_get_dev_by_name
                0x00000000808844e4        0x8 arch/arm/cpu/armv7/start.o
 .rel.text.eth_init
                0x00000000808844ec       0x28 arch/arm/cpu/armv7/start.o
 .rel.text.eth_initialize
                0x0000000080884514       0x28 arch/arm/cpu/armv7/start.o
 .rel.text.eth_env_get_enetaddr_by_index
                0x000000008088453c       0x10 arch/arm/cpu/armv7/start.o
 .rel.text.eth_env_set_enetaddr_by_index
                0x000000008088454c       0x10 arch/arm/cpu/armv7/start.o
 .rel.text.eth_mac_skip
                0x000000008088455c       0x10 arch/arm/cpu/armv7/start.o
 .rel.text.eth_get_name
                0x000000008088456c        0x8 arch/arm/cpu/armv7/start.o
 .rel.text.eth_current_changed
                0x0000000080884574       0x18 arch/arm/cpu/armv7/start.o
 .rel.text.eth_try_another
                0x000000008088458c       0x20 arch/arm/cpu/armv7/start.o
 .rel.text.eth_set_current
                0x00000000808845ac       0x20 arch/arm/cpu/armv7/start.o
 .rel.text.net_clear_handlers
                0x00000000808845cc       0x20 arch/arm/cpu/armv7/start.o
 .rel.text.start_again_timeout_handler
                0x00000000808845ec        0x8 arch/arm/cpu/armv7/start.o
 .rel.text.on_ipaddr
                0x00000000808845f4        0x8 arch/arm/cpu/armv7/start.o
 .rel.text.on_gatewayip
                0x00000000808845fc        0x8 arch/arm/cpu/armv7/start.o
 .rel.text.on_netmask
                0x0000000080884604        0x8 arch/arm/cpu/armv7/start.o
 .rel.text.on_serverip
                0x000000008088460c        0x8 arch/arm/cpu/armv7/start.o
 .rel.text.net_init_loop
                0x0000000080884614        0x8 arch/arm/cpu/armv7/start.o
 .rel.text.net_init
                0x000000008088461c       0x20 arch/arm/cpu/armv7/start.o
 .rel.text.net_start_again
                0x000000008088463c       0x78 arch/arm/cpu/armv7/start.o
 .rel.text.net_set_udp_handler
                0x00000000808846b4       0x10 arch/arm/cpu/armv7/start.o
 .rel.text.net_get_arp_handler
                0x00000000808846c4        0x8 arch/arm/cpu/armv7/start.o
 .rel.text.net_set_timeout_handler
                0x00000000808846cc       0x18 arch/arm/cpu/armv7/start.o
 .rel.text.net_get_async_tx_pkt_buf
                0x00000000808846e4       0x10 arch/arm/cpu/armv7/start.o
 .rel.text.net_process_received_packet
                0x00000000808846f4       0x40 arch/arm/cpu/armv7/start.o
 .rel.text.net_eth_hdr_size
                0x0000000080884734        0x8 arch/arm/cpu/armv7/start.o
 .rel.text.net_set_ether
                0x000000008088473c       0x10 arch/arm/cpu/armv7/start.o
 .rel.text.net_update_ether
                0x000000008088474c        0x8 arch/arm/cpu/armv7/start.o
 .rel.text.net_set_ip_header
                0x0000000080884754        0x8 arch/arm/cpu/armv7/start.o
 .rel.text.net_set_udp_header
                0x000000008088475c        0x8 arch/arm/cpu/armv7/start.o
 .rel.text.net_send_ip_packet
                0x0000000080884764       0x40 arch/arm/cpu/armv7/start.o
 .rel.text.is_serverip_in_cmd
                0x00000000808847a4        0x8 arch/arm/cpu/armv7/start.o
 .rel.text.net_check_prereq
                0x00000000808847ac       0x58 arch/arm/cpu/armv7/start.o
 .rel.text.net_auto_load
                0x0000000080884804       0x28 arch/arm/cpu/armv7/start.o
 .rel.text.net_loop
                0x000000008088482c       0x80 arch/arm/cpu/armv7/start.o
 .rel.text.net_parse_bootfile
                0x00000000808848ac        0x8 arch/arm/cpu/armv7/start.o
 .rel.text.ip_to_string
                0x00000000808848b4        0x8 arch/arm/cpu/armv7/start.o
 .rel.text.on_nvlan
                0x00000000808848bc        0x8 arch/arm/cpu/armv7/start.o
 .rel.text.on_vlan
                0x00000000808848c4        0x8 arch/arm/cpu/armv7/start.o
 .rel.text.rpc_lookup_reply
                0x00000000808848cc       0x18 arch/arm/cpu/armv7/start.o
 .rel.text.nfs_mount_reply
                0x00000000808848e4       0x18 arch/arm/cpu/armv7/start.o
 .rel.text.nfs_umountall_reply
                0x00000000808848fc       0x18 arch/arm/cpu/armv7/start.o
 .rel.text.nfs_lookup_reply
                0x0000000080884914       0x30 arch/arm/cpu/armv7/start.o
 .rel.text.nfs_readlink_reply
                0x0000000080884944       0x20 arch/arm/cpu/armv7/start.o
 .rel.text.nfs_read_reply
                0x0000000080884964       0x30 arch/arm/cpu/armv7/start.o
 .rel.text.rpc_req
                0x0000000080884994       0x40 arch/arm/cpu/armv7/start.o
 .rel.text.nfs_read_req
                0x00000000808849d4       0x18 arch/arm/cpu/armv7/start.o
 .rel.text.nfs_readlink_req
                0x00000000808849ec       0x18 arch/arm/cpu/armv7/start.o
 .rel.text.nfs_umountall_req
                0x0000000080884a04       0x10 arch/arm/cpu/armv7/start.o
 .rel.text.nfs_lookup_req
                0x0000000080884a14       0x10 arch/arm/cpu/armv7/start.o
 .rel.text.nfs_send
                0x0000000080884a24       0x30 arch/arm/cpu/armv7/start.o
 .rel.text.nfs_handler
                0x0000000080884a54       0x70 arch/arm/cpu/armv7/start.o
 .rel.text.nfs_timeout_handler
                0x0000000080884ac4       0x20 arch/arm/cpu/armv7/start.o
 .rel.text.nfs_start
                0x0000000080884ae4       0xd0 arch/arm/cpu/armv7/start.o
 .rel.text.ping_timeout_handler
                0x0000000080884bb4        0x8 arch/arm/cpu/armv7/start.o
 .rel.text.ping_start
                0x0000000080884bbc       0x58 arch/arm/cpu/armv7/start.o
 .rel.text.ping_receive
                0x0000000080884c14       0x18 arch/arm/cpu/armv7/start.o
 .rel.text.tftp_send
                0x0000000080884c2c       0xa0 arch/arm/cpu/armv7/start.o
 .rel.text.tftp_handler
                0x0000000080884ccc      0x140 arch/arm/cpu/armv7/start.o
 .rel.text.tftp_timeout_handler
                0x0000000080884e0c       0x40 arch/arm/cpu/armv7/start.o
 .rel.text.tftp_start
                0x0000000080884e4c      0x188 arch/arm/cpu/armv7/start.o
 .rel.u_boot_list_2_env_clbk_2_ethaddr
                0x0000000080884fd4       0x10 arch/arm/cpu/armv7/start.o
 .rel.u_boot_list_2_uclass_2_eth
                0x0000000080884fe4       0x28 arch/arm/cpu/armv7/start.o
 .rel.u_boot_list_2_env_clbk_2_gatewayip
                0x000000008088500c       0x10 arch/arm/cpu/armv7/start.o
 .rel.u_boot_list_2_env_clbk_2_ipaddr
                0x000000008088501c       0x10 arch/arm/cpu/armv7/start.o
 .rel.u_boot_list_2_env_clbk_2_netmask
                0x000000008088502c       0x10 arch/arm/cpu/armv7/start.o
 .rel.u_boot_list_2_env_clbk_2_nvlan
                0x000000008088503c       0x10 arch/arm/cpu/armv7/start.o
 .rel.u_boot_list_2_env_clbk_2_serverip
                0x000000008088504c       0x10 arch/arm/cpu/armv7/start.o
 .rel.u_boot_list_2_env_clbk_2_vlan
                0x000000008088505c       0x10 arch/arm/cpu/armv7/start.o

.rel_dyn_end    0x000000008088506c        0x0
 *(.__rel_dyn_end)
 .__rel_dyn_end
                0x000000008088506c        0x0 arch/arm/lib/built-in.o

.hash           0x000000008088506c       0x18
 *(.hash*)
 .hash          0x000000008088506c       0x18 arch/arm/cpu/armv7/start.o

.end            0x0000000080885084        0x0
 *(.__end)
 .__end         0x0000000080885084        0x0 arch/arm/lib/built-in.o
                0x0000000080885084                _image_binary_end = .
                0x0000000080886000                . = ALIGN (0x1000)

.mmutable
 *(.mmutable)

.bss_start      0x0000000080875f0c        0x0
 *(.__bss_start)
 .__bss_start   0x0000000080875f0c        0x0 arch/arm/lib/built-in.o
                0x0000000080875f0c                __bss_start
                0x0000000080875f0c                __bss_base = .

.bss            0x0000000080875f0c     0xbeb8
 *(.bss*)
 .bss.params    0x0000000080875f0c        0x4 arch/arm/lib/built-in.o
 .bss.bootefi_device_path
                0x0000000080875f10        0x4 cmd/built-in.o
 .bss.bootefi_image_path
                0x0000000080875f14        0x4 cmd/built-in.o
 .bss.eeprom_i2c_bus
                0x0000000080875f18        0x4 cmd/built-in.o
 .bss.data.7524
                0x0000000080875f1c      0x400 cmd/built-in.o
 .bss.working_fdt
                0x000000008087631c        0x4 cmd/built-in.o
                0x000000008087631c                working_fdt
 .bss.i2c_cur_bus
                0x0000000080876320        0x4 cmd/built-in.o
 .bss.i2c_dp_last_addr
                0x0000000080876324        0x4 cmd/built-in.o
 .bss.i2c_dp_last_alen
                0x0000000080876328        0x4 cmd/built-in.o
 .bss.i2c_dp_last_chip
                0x000000008087632c        0x4 cmd/built-in.o
 .bss.i2c_mm_last_addr
                0x0000000080876330        0x4 cmd/built-in.o
 .bss.i2c_mm_last_alen
                0x0000000080876334        0x4 cmd/built-in.o
 .bss.i2c_mm_last_chip
                0x0000000080876338        0x4 cmd/built-in.o
 .bss.a_b       0x000000008087633c       0x18 cmd/built-in.o
 .bss.bin_start_address
                0x0000000080876354        0x4 cmd/built-in.o
 .bss.his_eol   0x0000000080876358        0x1 cmd/built-in.o
 .bss.his_pad_char
                0x0000000080876359        0x1 cmd/built-in.o
 *fill*         0x000000008087635a        0x2 
 .bss.his_pad_count
                0x000000008087635c        0x4 cmd/built-in.o
 .bss.his_quote
                0x0000000080876360        0x1 cmd/built-in.o
 *fill*         0x0000000080876361        0x3 
 .bss.k_data_escape
                0x0000000080876364        0x4 cmd/built-in.o
 .bss.k_data_escape_saved
                0x0000000080876368        0x4 cmd/built-in.o
 .bss.os_data_addr
                0x000000008087636c        0x4 cmd/built-in.o
 .bss.os_data_addr_saved
                0x0000000080876370        0x4 cmd/built-in.o
 .bss.os_data_char
                0x0000000080876374        0x4 cmd/built-in.o
 .bss.os_data_init
                0x0000000080876378        0x4 cmd/built-in.o
 .bss.os_data_state
                0x000000008087637c        0x4 cmd/built-in.o
 .bss.os_data_state_saved
                0x0000000080876380        0x4 cmd/built-in.o
 .bss.send_parms
                0x0000000080876384       0x14 cmd/built-in.o
 .bss.send_ptr  0x0000000080876398        0x4 cmd/built-in.o
 .bss.base_address
                0x000000008087639c        0x4 cmd/built-in.o
 .bss.dp_last_addr
                0x00000000808763a0        0x4 cmd/built-in.o
 .bss.dp_last_size
                0x00000000808763a4        0x4 cmd/built-in.o
 .bss.mm_last_addr
                0x00000000808763a8        0x4 cmd/built-in.o
 .bss.mm_last_size
                0x00000000808763ac        0x4 cmd/built-in.o
 .bss.last_addr_hi
                0x00000000808763b0        0x8 cmd/built-in.o
 .bss.last_addr_lo
                0x00000000808763b8        0x8 cmd/built-in.o
 .bss.last_data
                0x00000000808763c0        0x8 cmd/built-in.o
 .bss.last_mask
                0x00000000808763c8        0x4 cmd/built-in.o
 .bss.last_op   0x00000000808763cc        0x4 cmd/built-in.o
 .bss.last_reg_hi
                0x00000000808763d0        0x8 cmd/built-in.o
 .bss.last_reg_lo
                0x00000000808763d8        0x8 cmd/built-in.o
 .bss.last_devad_hi
                0x00000000808763e0        0x4 cmd/built-in.o
 .bss.last_devad_lo
                0x00000000808763e4        0x4 cmd/built-in.o
 .bss.current_mtd_dev
                0x00000000808763e8        0x4 cmd/built-in.o
                0x00000000808763e8                current_mtd_dev
 .bss.current_mtd_partnum
                0x00000000808763ec        0x1 cmd/built-in.o
                0x00000000808763ec                current_mtd_partnum
 *fill*         0x00000000808763ed        0x3 
 .bss.devices   0x00000000808763f0        0x8 cmd/built-in.o
 .bss.initialized.9229
                0x00000000808763f8        0x4 cmd/built-in.o
 .bss.last_ids  0x00000000808763fc       0x81 cmd/built-in.o
 .bss.last_partition
                0x000000008087647d       0x11 cmd/built-in.o
 .bss.last_parts
                0x000000008087648e      0x201 cmd/built-in.o
 *fill*         0x000000008087668f        0x1 
 .bss.mtdids    0x0000000080876690        0x8 cmd/built-in.o
 .bss.use_defaults
                0x0000000080876698        0x1 cmd/built-in.o
                0x0000000080876698                use_defaults
 *fill*         0x0000000080876699        0x7 
 .bss.last.10413
                0x00000000808766a0        0x8 cmd/built-in.o
 .bss.do_getfile
                0x00000000808766a8        0x4 cmd/built-in.o
                0x00000000808766a8                do_getfile
 .bss.is_pxe    0x00000000808766ac        0x1 cmd/built-in.o
                0x00000000808766ac                is_pxe
 *fill*         0x00000000808766ad        0x3 
 .bss.flash     0x00000000808766b0        0x4 cmd/built-in.o
 .bss.bitlen    0x00000000808766b4        0x4 cmd/built-in.o
 .bss.bus       0x00000000808766b8        0x4 cmd/built-in.o
 .bss.cs        0x00000000808766bc        0x4 cmd/built-in.o
 .bss.din       0x00000000808766c0       0x20 cmd/built-in.o
 .bss.dout      0x00000000808766e0       0x20 cmd/built-in.o
 .bss.freq      0x0000000080876700        0x4 cmd/built-in.o
 .bss.mode      0x0000000080876704        0x4 cmd/built-in.o
 .bss.fs_argv   0x0000000080876708       0x14 cmd/built-in.o
 .bss.buf.6588  0x000000008087671c       0x28 common/built-in.o
 .bss.do_repeat
                0x0000000080876744        0x4 common/built-in.o
 .bss.flag_repeat
                0x0000000080876748        0x4 common/built-in.o
 .bss.ifs       0x000000008087674c        0x4 common/built-in.o
 .bss.last_return_code
                0x0000000080876750        0x4 common/built-in.o
 .bss.map       0x0000000080876754      0x100 common/built-in.o
 .bss.the_command.6388
                0x0000000080876854      0x401 common/built-in.o
 *fill*         0x0000000080876c55        0x3 
 .bss.top_vars  0x0000000080876c58        0x4 common/built-in.o
 .bss.stored_bootdelay
                0x0000000080876c5c        0x4 common/built-in.o
 .bss.monitor_flash_len
                0x0000000080876c60        0x4 common/built-in.o
                0x0000000080876c60                monitor_flash_len
 .bss.images    0x0000000080876c64      0x164 common/built-in.o
                0x0000000080876c64                images
 .bss.current_mii
                0x0000000080876dc8        0x4 common/built-in.o
 .bss.mii_devs  0x0000000080876dcc        0x8 common/built-in.o
 .bss.usb_started
                0x0000000080876dd4        0x1 common/built-in.o
                0x0000000080876dd4                usb_started
 *fill*         0x0000000080876dd5        0x3 
 .bss.running.9030
                0x0000000080876dd8        0x4 common/built-in.o
 .bss.CBWTag    0x0000000080876ddc        0x4 common/built-in.o
 *fill*         0x0000000080876de0       0x20 
 .bss.usb_ccb   0x0000000080876e00      0x100 common/built-in.o
 .bss.usb_max_devs
                0x0000000080876f00        0x4 common/built-in.o
 .bss.console_buffer
                0x0000000080876f04      0x401 common/built-in.o
                0x0000000080876f04                console_buffer
 *fill*         0x0000000080877305        0x3 
 .bss.hist_add_idx
                0x0000000080877308        0x4 common/built-in.o
 .bss.hist_lines
                0x000000008087730c     0x5014 common/built-in.o
 .bss.hist_list
                0x000000008087c320       0x50 common/built-in.o
 .bss.hist_max  0x000000008087c370        0x4 common/built-in.o
 .bss.hist_num  0x000000008087c374        0x4 common/built-in.o
 .bss.initted.6242
                0x000000008087c378        0x4 common/built-in.o
 .bss.ctrlc_disabled
                0x000000008087c37c        0x4 common/built-in.o
 .bss.ctrlc_was_pressed
                0x000000008087c380        0x4 common/built-in.o
 .bss.current_mallinfo
                0x000000008087c384       0x28 common/built-in.o
 .bss.max_sbrked_mem
                0x000000008087c3ac        0x4 common/built-in.o
 .bss.max_total_mem
                0x000000008087c3b0        0x4 common/built-in.o
 .bss.mem_malloc_brk
                0x000000008087c3b4        0x4 common/built-in.o
                0x000000008087c3b4                mem_malloc_brk
 .bss.mem_malloc_end
                0x000000008087c3b8        0x4 common/built-in.o
                0x000000008087c3b8                mem_malloc_end
 .bss.mem_malloc_start
                0x000000008087c3bc        0x4 common/built-in.o
                0x000000008087c3bc                mem_malloc_start
 .bss.top_pad   0x000000008087c3c0        0x4 common/built-in.o
 .bss.andr_tmp_str
                0x000000008087c3c4      0x201 common/built-in.o
 *fill*         0x000000008087c5c5        0x3 
 .bss.devs      0x000000008087c5c8       0x4c common/built-in.o
 .bss.stdio_devices
                0x000000008087c614        0xc common/built-in.o
                0x000000008087c614                stdio_devices
 .bss.env_complete_buf
                0x000000008087c620      0x200 common/built-in.o
 .bss.tmp_buf   0x000000008087c820      0x401 common/built-in.o
 *fill*         0x000000008087cc21        0x3 
 .bss.xyz       0x000000008087cc24      0x434 common/built-in.o
 *fill*         0x000000008087d058       0x28 
 .bss.tmpbuf    0x000000008087d080      0x800 disk/built-in.o
 .bss.name.7325
                0x000000008087d880       0x25 disk/built-in.o
 *fill*         0x000000008087d8a5        0x3 
 .bss.alt_num_cnt
                0x000000008087d8a8        0x4 drivers/built-in.o
 .bss.dfu_alt_num
                0x000000008087d8ac        0x4 drivers/built-in.o
 .bss.dfu_buf   0x000000008087d8b0        0x4 drivers/built-in.o
 .bss.dfu_buf_device_type
                0x000000008087d8b4        0x4 drivers/built-in.o
 .bss.dfu_buf_size
                0x000000008087d8b8        0x4 drivers/built-in.o
 .bss.dfu_hash_algo
                0x000000008087d8bc        0x4 drivers/built-in.o
 .bss.dfu_file_buf
                0x000000008087d8c0        0x4 drivers/built-in.o
 *fill*         0x000000008087d8c4        0x4 
 .bss.dfu_file_buf_len
                0x000000008087d8c8        0x8 drivers/built-in.o
 .bss.dfu_file_buf_offset
                0x000000008087d8d0        0x8 drivers/built-in.o
 .bss.mtd_idr   0x000000008087d8d8      0x204 drivers/built-in.o
 .bss.dev_name  0x000000008087dadc        0x8 drivers/built-in.o
 .bss.initialized.8562
                0x000000008087dae4        0x4 drivers/built-in.o
 .bss.nand_chip
                0x000000008087dae8      0x544 drivers/built-in.o
 .bss.nand_info
                0x000000008087e02c        0x4 drivers/built-in.o
 .bss.total_nand_size
                0x000000008087e030        0x4 drivers/built-in.o
 .bss.cs_next   0x000000008087e034        0x1 drivers/built-in.o
 *fill*         0x000000008087e035        0x3 
 .bss.omap_nand_info
                0x000000008087e038       0xa0 drivers/built-in.o
 .bss.elm_cfg   0x000000008087e0d8        0x4 drivers/built-in.o
                0x000000008087e0d8                elm_cfg
 .bss.boot_addr_start.6110
                0x000000008087e0dc       0x14 drivers/built-in.o
 .bss.fastboot_buf_addr
                0x000000008087e0f0        0x4 drivers/built-in.o
                0x000000008087e0f0                fastboot_buf_addr
 .bss.fastboot_buf_size
                0x000000008087e0f4        0x4 drivers/built-in.o
                0x000000008087e0f4                fastboot_buf_size
 .bss.fastboot_progress_callback
                0x000000008087e0f8        0x4 drivers/built-in.o
                0x000000008087e0f8                fastboot_progress_callback
 .bss.fastboot_bytes_expected
                0x000000008087e0fc        0x4 drivers/built-in.o
 .bss.fastboot_bytes_received
                0x000000008087e100        0x4 drivers/built-in.o
 .bss.image_size
                0x000000008087e104        0x4 drivers/built-in.o
 .bss.initialized.9130
                0x000000008087e108        0x4 drivers/built-in.o
 .bss.next_reset.7120
                0x000000008087e10c        0x4 drivers/built-in.o
 .bss.omap2_pdata
                0x000000008087e110        0x4 drivers/spi/built-in.o
 .bss.epnum     0x000000008087e114        0x4 drivers/usb/gadget/built-in.o
 .bss.composite
                0x000000008087e118        0x4 drivers/usb/gadget/built-in.o
 .bss.g_dnl_detach_request
                0x000000008087e11c        0x1 drivers/usb/gadget/built-in.o
 .bss.g_dnl_serial
                0x000000008087e11d      0x100 drivers/usb/gadget/built-in.o
 *fill*         0x000000008087e21d        0x3 
 .bss.dfu_defer_flush
                0x000000008087e220        0x4 drivers/usb/gadget/built-in.o
                0x000000008087e220                dfu_defer_flush
 .bss.fastboot_func
                0x000000008087e224        0x4 drivers/usb/gadget/built-in.o
 *fill*         0x000000008087e228       0x18 
 .bss.__control_req
                0x000000008087e240      0x100 drivers/usb/gadget/built-in.o
 .bss.__status_req
                0x000000008087e340       0x40 drivers/usb/gadget/built-in.o
 .bss.dev_addr  0x000000008087e380       0x12 drivers/usb/gadget/built-in.o
 *fill*         0x000000008087e392        0x2 
 .bss.eth_priv  0x000000008087e394       0xd4 drivers/usb/gadget/built-in.o
                0x000000008087e394                eth_priv
 .bss.ethaddr   0x000000008087e468        0xd drivers/usb/gadget/built-in.o
 .bss.host_addr
                0x000000008087e475       0x12 drivers/usb/gadget/built-in.o
 .bss.manufacturer
                0x000000008087e487       0x32 drivers/usb/gadget/built-in.o
 *fill*         0x000000008087e4b9        0x3 
 .bss.packet_received
                0x000000008087e4bc        0x4 drivers/usb/gadget/built-in.o
                0x000000008087e4bc                packet_received
 .bss.packet_sent
                0x000000008087e4c0        0x4 drivers/usb/gadget/built-in.o
                0x000000008087e4c0                packet_sent
 .bss.rndis_resp_buf
                0x000000008087e4c4        0x8 drivers/usb/gadget/built-in.o
 .bss.serial_number
                0x000000008087e4cc       0x14 drivers/usb/gadget/built-in.o
 .bss.rndis_per_dev_params
                0x000000008087e4e0       0x3c drivers/usb/gadget/built-in.o
 .bss.dev_array
                0x000000008087e51c       0x10 drivers/usb/gadget/udc/built-in.o
 .bss.asynch_allowed
                0x000000008087e52c        0x1 drivers/usb/host/built-in.o
 *fill*         0x000000008087e52d        0x3 
 .bss.flags_list
                0x000000008087e530        0x4 env/built-in.o
 .bss.callback_list
                0x000000008087e534        0x4 env/built-in.o
 .bss.part_str.7651
                0x000000008087e538        0x4 env/built-in.o
 .bss.fs_dev_desc
                0x000000008087e53c        0x4 fs/built-in.o
 .bss.fs_dev_part
                0x000000008087e540        0x4 fs/built-in.o
 .bss.fs_partition
                0x000000008087e544       0x78 fs/built-in.o
 .bss.fs_type   0x000000008087e5bc        0x4 fs/built-in.o
 .bss.ext_fs    0x000000008087e5c0       0x48 fs/built-in.o
                0x000000008087e5c0                ext_fs
 .bss.ext4fs_file
                0x000000008087e608        0x4 fs/built-in.o
                0x000000008087e608                ext4fs_file
 .bss.ext4fs_indir1_block
                0x000000008087e60c        0x4 fs/built-in.o
                0x000000008087e60c                ext4fs_indir1_block
 .bss.ext4fs_indir1_size
                0x000000008087e610        0x4 fs/built-in.o
                0x000000008087e610                ext4fs_indir1_size
 .bss.ext4fs_indir2_block
                0x000000008087e614        0x4 fs/built-in.o
                0x000000008087e614                ext4fs_indir2_block
 .bss.ext4fs_indir2_size
                0x000000008087e618        0x4 fs/built-in.o
                0x000000008087e618                ext4fs_indir2_size
 .bss.ext4fs_indir3_block
                0x000000008087e61c        0x4 fs/built-in.o
                0x000000008087e61c                ext4fs_indir3_block
 .bss.ext4fs_indir3_size
                0x000000008087e620        0x4 fs/built-in.o
                0x000000008087e620                ext4fs_indir3_size
 .bss.ext4fs_root
                0x000000008087e624        0x4 fs/built-in.o
                0x000000008087e624                ext4fs_root
 .bss.g_parent_inode
                0x000000008087e628        0x4 fs/built-in.o
                0x000000008087e628                g_parent_inode
 .bss.symlinknest
                0x000000008087e62c        0x4 fs/built-in.o
 .bss.part_info
                0x000000008087e630        0x4 fs/built-in.o
 .bss.part_offset
                0x000000008087e634        0x4 fs/built-in.o
                0x000000008087e634                part_offset
 .bss.dirty_block_ptr
                0x000000008087e638      0x190 fs/built-in.o
                0x000000008087e638                dirty_block_ptr
 .bss.gd_index  0x000000008087e7c8        0x4 fs/built-in.o
                0x000000008087e7c8                gd_index
 .bss.gindex    0x000000008087e7cc        0x4 fs/built-in.o
                0x000000008087e7cc                gindex
 .bss.journal_ptr
                0x000000008087e7d0      0x190 fs/built-in.o
                0x000000008087e7d0                journal_ptr
 .bss.jrnl_blk_idx
                0x000000008087e960        0x4 fs/built-in.o
                0x000000008087e960                jrnl_blk_idx
 .bss.prev_node
                0x000000008087e964        0x4 fs/built-in.o
 .bss.revk_blk_list
                0x000000008087e968        0x4 fs/built-in.o
 .bss.cur_dev   0x000000008087e96c        0x4 fs/built-in.o
 .bss.cur_part_info
                0x000000008087e970       0x78 fs/built-in.o
 .bss.tmpbuf_cluster.8291
                0x000000008087e9e8        0x4 fs/built-in.o
 .bss.total_sector
                0x000000008087e9ec        0x4 fs/built-in.o
 .bss.app_gd    0x000000008087e9f0        0x4 lib/built-in.o
 .bss.current_image
                0x000000008087e9f4        0x4 lib/built-in.o
 .bss.efi_gd    0x000000008087e9f8        0x4 lib/built-in.o
 .bss.efi_st_keep_devices
                0x000000008087e9fc        0x1 lib/built-in.o
                0x000000008087e9fc                efi_st_keep_devices
 *fill*         0x000000008087e9fd        0x3 
 .bss.mono.12642
                0x000000008087ea00        0x8 lib/built-in.o
 .bss.ret.12571
                0x000000008087ea08        0x4 lib/built-in.o
 .bss.console_timer_event
                0x000000008087ea0c        0x4 lib/built-in.o
 .bss.key_available
                0x000000008087ea10        0x1 lib/built-in.o
 *fill*         0x000000008087ea11        0x3 
 .bss.next_key  0x000000008087ea14        0xc lib/built-in.o
 .bss.efi_memory_map_key
                0x000000008087ea20        0x4 lib/built-in.o
                0x000000008087ea20                efi_memory_map_key
 .bss.efi_root  0x000000008087ea24        0x4 lib/built-in.o
                0x000000008087ea24                efi_root
 .bss.efi_secure_boot
                0x000000008087ea28        0x1 lib/built-in.o
 *fill*         0x000000008087ea29        0x3 
 .bss.watchdog_timer_event
                0x000000008087ea2c        0x4 lib/built-in.o
 .bss.efi_system_partition
                0x000000008087ea30        0xc lib/built-in.o
                0x000000008087ea30                efi_system_partition
 .bss.dhcp_ack  0x000000008087ea3c        0x4 lib/built-in.o
 .bss.network_timer_event
                0x000000008087ea40        0x4 lib/built-in.o
 .bss.new_tx_packet
                0x000000008087ea44        0x4 lib/built-in.o
 .bss.receive_buffer
                0x000000008087ea48        0x4 lib/built-in.o
 .bss.receive_lengths
                0x000000008087ea4c        0x4 lib/built-in.o
 .bss.rx_packet_idx
                0x000000008087ea50        0x4 lib/built-in.o
 .bss.rx_packet_num
                0x000000008087ea54        0x4 lib/built-in.o
 .bss.transmit_buffer
                0x000000008087ea58        0x4 lib/built-in.o
 .bss.wait_for_packet
                0x000000008087ea5c        0x4 lib/built-in.o
 .bss.errno     0x000000008087ea60        0x4 lib/built-in.o
                0x000000008087ea60                errno
 .bss.___strtok
                0x000000008087ea64        0x4 lib/built-in.o
                0x000000008087ea64                ___strtok
 .bss.local.10999
                0x000000008087ea68       0x16 lib/built-in.o
 *fill*         0x000000008087ea7e        0x2 
 .bss.arp_tx_packet
                0x000000008087ea80        0x4 net/built-in.o
                0x000000008087ea80                arp_tx_packet
 .bss.arp_tx_packet_buf
                0x000000008087ea84      0x640 net/built-in.o
 .bss.arp_wait_packet_ethaddr
                0x000000008087f0c4        0x4 net/built-in.o
                0x000000008087f0c4                arp_wait_packet_ethaddr
 .bss.arp_wait_timer_start
                0x000000008087f0c8        0x4 net/built-in.o
                0x000000008087f0c8                arp_wait_timer_start
 .bss.arp_wait_try
                0x000000008087f0cc        0x4 net/built-in.o
                0x000000008087f0cc                arp_wait_try
 .bss.arp_wait_tx_packet_size
                0x000000008087f0d0        0x4 net/built-in.o
                0x000000008087f0d0                arp_wait_tx_packet_size
 .bss.net_arp_wait_packet_ip
                0x000000008087f0d4        0x4 net/built-in.o
                0x000000008087f0d4                net_arp_wait_packet_ip
 .bss.net_arp_wait_reply_ip
                0x000000008087f0d8        0x4 net/built-in.o
 .bss.bootp_ids
                0x000000008087f0dc       0x10 net/built-in.o
                0x000000008087f0dc                bootp_ids
 .bss.bootp_num_ids
                0x000000008087f0ec        0x4 net/built-in.o
                0x000000008087f0ec                bootp_num_ids
 .bss.bootp_start
                0x000000008087f0f0        0x4 net/built-in.o
                0x000000008087f0f0                bootp_start
 .bss.bootp_timeout
                0x000000008087f0f4        0x4 net/built-in.o
                0x000000008087f0f4                bootp_timeout
 .bss.bootp_try
                0x000000008087f0f8        0x4 net/built-in.o
                0x000000008087f0f8                bootp_try
 .bss.dhcp_leasetime
                0x000000008087f0fc        0x4 net/built-in.o
 .bss.dhcp_option_overload
                0x000000008087f100        0x1 net/built-in.o
 *fill*         0x000000008087f101        0x3 
 .bss.dhcp_server_ip
                0x000000008087f104        0x4 net/built-in.o
 .bss.dhcp_state
                0x000000008087f108        0x4 net/built-in.o
 .bss.net_hostname
                0x000000008087f10c       0x20 net/built-in.o
                0x000000008087f10c                net_hostname
 .bss.net_nis_domain
                0x000000008087f12c       0x20 net/built-in.o
                0x000000008087f12c                net_nis_domain
 .bss.net_root_path
                0x000000008087f14c       0x40 net/built-in.o
                0x000000008087f14c                net_root_path
 .bss.time_taken_max
                0x000000008087f18c        0x4 net/built-in.o
 .bss.eth_errno
                0x000000008087f190        0x4 net/built-in.o
 .bss.act.8352  0x000000008087f194        0x4 net/built-in.o
 .bss.env_changed_id.8353
                0x000000008087f198        0x4 net/built-in.o
 .bss.first_failed.8347
                0x000000008087f19c        0x4 net/built-in.o
 .bss.arp_packet_handler
                0x000000008087f1a0        0x4 net/built-in.o
 .bss.net_boot_file_expected_size_in_blocks
                0x000000008087f1a4        0x4 net/built-in.o
                0x000000008087f1a4                net_boot_file_expected_size_in_blocks
 .bss.net_boot_file_name
                0x000000008087f1a8      0x400 net/built-in.o
                0x000000008087f1a8                net_boot_file_name
 .bss.net_boot_file_name_explicit
                0x000000008087f5a8        0x1 net/built-in.o
                0x000000008087f5a8                net_boot_file_name_explicit
 *fill*         0x000000008087f5a9        0x3 
 .bss.net_boot_file_size
                0x000000008087f5ac        0x4 net/built-in.o
                0x000000008087f5ac                net_boot_file_size
 .bss.net_dev_exists
                0x000000008087f5b0        0x4 net/built-in.o
 .bss.net_dns_server
                0x000000008087f5b4        0x4 net/built-in.o
                0x000000008087f5b4                net_dns_server
 .bss.net_dns_server2
                0x000000008087f5b8        0x4 net/built-in.o
                0x000000008087f5b8                net_dns_server2
 .bss.net_ethaddr
                0x000000008087f5bc        0x6 net/built-in.o
                0x000000008087f5bc                net_ethaddr
 *fill*         0x000000008087f5c2        0x2 
 .bss.net_gateway
                0x000000008087f5c4        0x4 net/built-in.o
                0x000000008087f5c4                net_gateway
 .bss.net_ip    0x000000008087f5c8        0x4 net/built-in.o
                0x000000008087f5c8                net_ip
 .bss.net_ip_id
                0x000000008087f5cc        0x4 net/built-in.o
 .bss.net_netmask
                0x000000008087f5d0        0x4 net/built-in.o
                0x000000008087f5d0                net_netmask
 .bss.net_pkt_buf
                0x000000008087f5d4     0x1e40 net/built-in.o
 .bss.net_restart_wrap
                0x0000000080881414        0x4 net/built-in.o
                0x0000000080881414                net_restart_wrap
 .bss.net_restarted
                0x0000000080881418        0x4 net/built-in.o
 .bss.net_rx_packet
                0x000000008088141c        0x4 net/built-in.o
                0x000000008088141c                net_rx_packet
 .bss.net_rx_packet_len
                0x0000000080881420        0x4 net/built-in.o
                0x0000000080881420                net_rx_packet_len
 .bss.net_rx_packets
                0x0000000080881424       0x10 net/built-in.o
                0x0000000080881424                net_rx_packets
 .bss.net_server_ethaddr
                0x0000000080881434        0x6 net/built-in.o
                0x0000000080881434                net_server_ethaddr
 *fill*         0x000000008088143a        0x2 
 .bss.net_server_ip
                0x000000008088143c        0x4 net/built-in.o
                0x000000008088143c                net_server_ip
 .bss.net_state
                0x0000000080881440        0x4 net/built-in.o
                0x0000000080881440                net_state
 .bss.net_try_count
                0x0000000080881444        0x4 net/built-in.o
 .bss.net_tx_packet
                0x0000000080881448        0x4 net/built-in.o
                0x0000000080881448                net_tx_packet
 .bss.push_packet
                0x000000008088144c        0x4 net/built-in.o
                0x000000008088144c                push_packet
 .bss.time_delta
                0x0000000080881450        0x4 net/built-in.o
 .bss.time_handler
                0x0000000080881454        0x4 net/built-in.o
 .bss.time_start
                0x0000000080881458        0x8 net/built-in.o
 .bss.udp_packet_handler
                0x0000000080881460        0x4 net/built-in.o
 .bss.dirfh     0x0000000080881464       0x20 net/built-in.o
 .bss.filefh    0x0000000080881484       0x40 net/built-in.o
 .bss.filefh3_length
                0x00000000808814c4        0x4 net/built-in.o
 .bss.fs_mounted
                0x00000000808814c8        0x4 net/built-in.o
 .bss.nfs_download_state
                0x00000000808814cc        0x4 net/built-in.o
 .bss.nfs_filename
                0x00000000808814d0        0x4 net/built-in.o
 .bss.nfs_len   0x00000000808814d4        0x4 net/built-in.o
 .bss.nfs_our_port
                0x00000000808814d8        0x4 net/built-in.o
 .bss.nfs_path  0x00000000808814dc        0x4 net/built-in.o
 .bss.nfs_path_buff
                0x00000000808814e0      0x800 net/built-in.o
 .bss.nfs_server_ip
                0x0000000080881ce0        0x4 net/built-in.o
 .bss.nfs_server_mount_port
                0x0000000080881ce4        0x4 net/built-in.o
 .bss.nfs_server_port
                0x0000000080881ce8        0x4 net/built-in.o
 .bss.nfs_state
                0x0000000080881cec        0x4 net/built-in.o
 .bss.nfs_timeout_count
                0x0000000080881cf0        0x4 net/built-in.o
 .bss.rpc_id    0x0000000080881cf4        0x4 net/built-in.o
 .bss.net_ping_ip
                0x0000000080881cf8        0x4 net/built-in.o
                0x0000000080881cf8                net_ping_ip
 .bss.ping_seq_number
                0x0000000080881cfc        0x2 net/built-in.o
 .bss.default_filename
                0x0000000080881cfe        0xd net/built-in.o
 *fill*         0x0000000080881d0b        0x1 
 .bss.tftp_block_wrap
                0x0000000080881d0c        0x4 net/built-in.o
 .bss.tftp_block_wrap_offset
                0x0000000080881d10        0x4 net/built-in.o
 .bss.tftp_cur_block
                0x0000000080881d14        0x4 net/built-in.o
 .bss.tftp_filename
                0x0000000080881d18       0x80 net/built-in.o
 .bss.tftp_last_nack
                0x0000000080881d98        0x2 net/built-in.o
 *fill*         0x0000000080881d9a        0x2 
 .bss.tftp_load_addr
                0x0000000080881d9c        0x4 net/built-in.o
 .bss.tftp_load_size
                0x0000000080881da0        0x4 net/built-in.o
 .bss.tftp_next_ack
                0x0000000080881da4        0x2 net/built-in.o
 *fill*         0x0000000080881da6        0x2 
 .bss.tftp_our_port
                0x0000000080881da8        0x4 net/built-in.o
 .bss.tftp_prev_block
                0x0000000080881dac        0x4 net/built-in.o
 .bss.tftp_remote_ip
                0x0000000080881db0        0x4 net/built-in.o
 .bss.tftp_remote_port
                0x0000000080881db4        0x4 net/built-in.o
 .bss.tftp_state
                0x0000000080881db8        0x4 net/built-in.o
 .bss.tftp_windowsize
                0x0000000080881dbc        0x2 net/built-in.o
 *fill*         0x0000000080881dbe        0x2 
 .bss.timeout_count
                0x0000000080881dc0        0x4 net/built-in.o
                0x0000000080881dc4                . = ALIGN (0x4)
                0x0000000080881dc4                __bss_limit = .

.bss_end        0x0000000080881dc4        0x0
 *(.__bss_end)
 .__bss_end     0x0000000080881dc4        0x0 arch/arm/lib/built-in.o
                0x0000000080881dc4                __bss_end

.dynsym         0x0000000080885084       0x30
 *(.dynsym)
 .dynsym        0x0000000080885084       0x30 arch/arm/cpu/armv7/start.o

.dynbss         0x00000000808850b4        0x0
 *(.dynbss)
 .dynbss        0x00000000808850b4        0x0 arch/arm/cpu/armv7/start.o

.dynstr         0x00000000808850b4        0x1
 *(.dynstr*)
 .dynstr        0x00000000808850b4        0x1 arch/arm/cpu/armv7/start.o

.dynamic        0x00000000808850b8       0x90
 *(.dynamic*)
 .dynamic       0x00000000808850b8       0x90 arch/arm/cpu/armv7/start.o
                0x00000000808850b8                _DYNAMIC

.gnu.hash       0x0000000080885148       0x18
 *(.gnu.hash)
 .gnu.hash      0x0000000080885148       0x18 arch/arm/cpu/armv7/start.o

.plt            0x0000000080885160        0x0
 *(.plt*)
 .plt           0x0000000080885160        0x0 arch/arm/cpu/armv7/start.o

.interp
 *(.interp*)

.gnu            0x0000000080885160        0x0
 *(.gnu*)
 .gnu.version_d
                0x0000000080885160        0x0 arch/arm/cpu/armv7/start.o
 .gnu.version   0x0000000080885160        0x0 arch/arm/cpu/armv7/start.o
 .gnu.version_r
                0x0000000080885160        0x0 arch/arm/cpu/armv7/start.o

.ARM.exidx
 *(.ARM.exidx*)
LOAD arch/arm/cpu/armv7/start.o
START GROUP
LOAD arch/arm/cpu/built-in.o
LOAD arch/arm/cpu/armv7/built-in.o
LOAD arch/arm/lib/built-in.o
LOAD arch/arm/mach-omap2/built-in.o
LOAD board/ti/am335x/built-in.o
LOAD board/ti/common/built-in.o
LOAD cmd/built-in.o
LOAD common/built-in.o
LOAD disk/built-in.o
LOAD drivers/built-in.o
LOAD drivers/dma/built-in.o
LOAD drivers/gpio/built-in.o
LOAD drivers/i2c/built-in.o
LOAD drivers/net/built-in.o
LOAD drivers/net/phy/built-in.o
LOAD drivers/power/built-in.o
LOAD drivers/power/battery/built-in.o
LOAD drivers/power/domain/built-in.o
LOAD drivers/power/fuel_gauge/built-in.o
LOAD drivers/power/mfd/built-in.o
LOAD drivers/power/pmic/built-in.o
LOAD drivers/power/regulator/built-in.o
LOAD drivers/serial/built-in.o
LOAD drivers/spi/built-in.o
LOAD drivers/usb/cdns3/built-in.o
LOAD drivers/usb/common/built-in.o
LOAD drivers/usb/dwc3/built-in.o
LOAD drivers/usb/emul/built-in.o
LOAD drivers/usb/eth/built-in.o
LOAD drivers/usb/gadget/built-in.o
LOAD drivers/usb/gadget/udc/built-in.o
LOAD drivers/usb/host/built-in.o
LOAD drivers/usb/mtu3/built-in.o
LOAD drivers/usb/musb-new/built-in.o
LOAD drivers/usb/musb/built-in.o
LOAD drivers/usb/phy/built-in.o
LOAD drivers/usb/ulpi/built-in.o
LOAD env/built-in.o
LOAD fs/built-in.o
LOAD lib/built-in.o
LOAD net/built-in.o
END GROUP
LOAD arch/arm/lib/eabi_compat.o
LOAD arch/arm/lib/lib.a
OUTPUT(u-boot elf32-littlearm)

.ARM.attributes
                0x0000000000000000       0x2f
 .ARM.attributes
                0x0000000000000000       0x21 arch/arm/cpu/armv7/start.o
 .ARM.attributes
                0x0000000000000021       0x2d board/ti/am335x/built-in.o
 .ARM.attributes
                0x000000000000004e       0x2f arch/arm/cpu/armv7/built-in.o
 .ARM.attributes
                0x000000000000007d       0x2d arch/arm/lib/built-in.o
 .ARM.attributes
                0x00000000000000aa       0x31 arch/arm/mach-omap2/built-in.o
 .ARM.attributes
                0x00000000000000db       0x2d board/ti/common/built-in.o
 .ARM.attributes
                0x0000000000000108       0x2d cmd/built-in.o
 .ARM.attributes
                0x0000000000000135       0x2d common/built-in.o
 .ARM.attributes
                0x0000000000000162       0x2d disk/built-in.o
 .ARM.attributes
                0x000000000000018f       0x31 drivers/built-in.o
 .ARM.attributes
                0x00000000000001c0       0x2d drivers/gpio/built-in.o
 .ARM.attributes
                0x00000000000001ed       0x2d drivers/i2c/built-in.o
 .ARM.attributes
                0x000000000000021a       0x2d drivers/net/built-in.o
 .ARM.attributes
                0x0000000000000247       0x2d drivers/net/phy/built-in.o
 .ARM.attributes
                0x0000000000000274       0x2d drivers/serial/built-in.o
 .ARM.attributes
                0x00000000000002a1       0x2d drivers/spi/built-in.o
 .ARM.attributes
                0x00000000000002ce       0x2d drivers/usb/common/built-in.o
 .ARM.attributes
                0x00000000000002fb       0x2d drivers/usb/gadget/built-in.o
 .ARM.attributes
                0x0000000000000328       0x2d drivers/usb/gadget/udc/built-in.o
 .ARM.attributes
                0x0000000000000355       0x2d drivers/usb/host/built-in.o
 .ARM.attributes
                0x0000000000000382       0x2d drivers/usb/musb-new/built-in.o
 .ARM.attributes
                0x00000000000003af       0x2d env/built-in.o
 .ARM.attributes
                0x00000000000003dc       0x2d fs/built-in.o
 .ARM.attributes
                0x0000000000000409       0x31 lib/built-in.o
 .ARM.attributes
                0x000000000000043a       0x2d net/built-in.o
 .ARM.attributes
                0x0000000000000467       0x21 arch/arm/lib/lib.a(lib1funcs.o)
 .ARM.attributes
                0x0000000000000488       0x21 arch/arm/lib/lib.a(uldivmod.o)
 .ARM.attributes
                0x00000000000004a9       0x2d arch/arm/lib/lib.a(div0.o)

.comment        0x0000000000000000       0x5a
 .comment       0x0000000000000000       0x5a board/ti/am335x/built-in.o
                                         0x5b (size before relaxing)
 .comment       0x000000000000005a      0x16c arch/arm/cpu/armv7/built-in.o
 .comment       0x000000000000005a      0x3e9 arch/arm/lib/built-in.o
 .comment       0x000000000000005a      0x60b arch/arm/mach-omap2/built-in.o
 .comment       0x000000000000005a       0x5b board/ti/common/built-in.o
 .comment       0x000000000000005a     0x1221 cmd/built-in.o
 .comment       0x000000000000005a      0xccc common/built-in.o
 .comment       0x000000000000005a      0x16c disk/built-in.o
 .comment       0x000000000000005a     0x1443 drivers/built-in.o
 .comment       0x000000000000005a       0xb6 drivers/gpio/built-in.o
 .comment       0x000000000000005a       0xb6 drivers/i2c/built-in.o
 .comment       0x000000000000005a      0x111 drivers/net/built-in.o
 .comment       0x000000000000005a      0x111 drivers/net/phy/built-in.o
 .comment       0x000000000000005a      0x111 drivers/serial/built-in.o
 .comment       0x000000000000005a      0x111 drivers/spi/built-in.o
 .comment       0x000000000000005a       0x5b drivers/usb/common/built-in.o
 .comment       0x000000000000005a      0x2d8 drivers/usb/gadget/built-in.o
 .comment       0x000000000000005a       0xb6 drivers/usb/gadget/udc/built-in.o
 .comment       0x000000000000005a       0x5b drivers/usb/host/built-in.o
 .comment       0x000000000000005a      0x27d drivers/usb/musb-new/built-in.o
 .comment       0x000000000000005a      0x222 env/built-in.o
 .comment       0x000000000000005a      0x333 fs/built-in.o
 .comment       0x000000000000005a     0x1bba lib/built-in.o
 .comment       0x000000000000005a      0x2d8 net/built-in.o
 .comment       0x000000000000005a       0x5b arch/arm/lib/lib.a(div0.o)

.note.GNU-stack
                0x0000000000000000        0x0
 .note.GNU-stack
                0x0000000000000000        0x0 board/ti/am335x/built-in.o
 .note.GNU-stack
                0x0000000000000000        0x0 arch/arm/cpu/armv7/built-in.o
 .note.GNU-stack
                0x0000000000000000        0x0 arch/arm/lib/built-in.o
 .note.GNU-stack
                0x0000000000000000        0x0 arch/arm/mach-omap2/built-in.o
 .note.GNU-stack
                0x0000000000000000        0x0 board/ti/common/built-in.o
 .note.GNU-stack
                0x0000000000000000        0x0 cmd/built-in.o
 .note.GNU-stack
                0x0000000000000000        0x0 common/built-in.o
 .note.GNU-stack
                0x0000000000000000        0x0 disk/built-in.o
 .note.GNU-stack
                0x0000000000000000        0x0 drivers/built-in.o
 .note.GNU-stack
                0x0000000000000000        0x0 drivers/gpio/built-in.o
 .note.GNU-stack
                0x0000000000000000        0x0 drivers/i2c/built-in.o
 .note.GNU-stack
                0x0000000000000000        0x0 drivers/net/built-in.o
 .note.GNU-stack
                0x0000000000000000        0x0 drivers/net/phy/built-in.o
 .note.GNU-stack
                0x0000000000000000        0x0 drivers/serial/built-in.o
 .note.GNU-stack
                0x0000000000000000        0x0 drivers/spi/built-in.o
 .note.GNU-stack
                0x0000000000000000        0x0 drivers/usb/common/built-in.o
 .note.GNU-stack
                0x0000000000000000        0x0 drivers/usb/gadget/built-in.o
 .note.GNU-stack
                0x0000000000000000        0x0 drivers/usb/gadget/udc/built-in.o
 .note.GNU-stack
                0x0000000000000000        0x0 drivers/usb/host/built-in.o
 .note.GNU-stack
                0x0000000000000000        0x0 drivers/usb/musb-new/built-in.o
 .note.GNU-stack
                0x0000000000000000        0x0 env/built-in.o
 .note.GNU-stack
                0x0000000000000000        0x0 fs/built-in.o
 .note.GNU-stack
                0x0000000000000000        0x0 lib/built-in.o
 .note.GNU-stack
                0x0000000000000000        0x0 net/built-in.o
 .note.GNU-stack
                0x0000000000000000        0x0 arch/arm/lib/lib.a(div0.o)

.debug_line     0x0000000000000000    0xb0a0b
 .debug_line    0x0000000000000000       0x93 arch/arm/cpu/armv7/start.o
 .debug_line    0x0000000000000093      0xb51 board/ti/am335x/built-in.o
 .debug_line    0x0000000000000be4      0x89c arch/arm/cpu/armv7/built-in.o
 .debug_line    0x0000000000001480     0x2403 arch/arm/lib/built-in.o
 .debug_line    0x0000000000003883     0x3021 arch/arm/mach-omap2/built-in.o
 .debug_line    0x00000000000068a4      0xd17 board/ti/common/built-in.o
 .debug_line    0x00000000000075bb    0x14991 cmd/built-in.o
 .debug_line    0x000000000001bf4c    0x17284 common/built-in.o
 .debug_line    0x00000000000331d0     0x2c73 disk/built-in.o
 .debug_line    0x0000000000035e43    0x23555 drivers/built-in.o
 .debug_line    0x0000000000059398     0x1ad3 drivers/gpio/built-in.o
 .debug_line    0x000000000005ae6b     0x22bd drivers/i2c/built-in.o
 .debug_line    0x000000000005d128     0x223a drivers/net/built-in.o
 .debug_line    0x000000000005f362     0x2060 drivers/net/phy/built-in.o
 .debug_line    0x00000000000613c2     0x147c drivers/serial/built-in.o
 .debug_line    0x000000000006283e     0x1bd0 drivers/spi/built-in.o
 .debug_line    0x000000000006440e      0x313 drivers/usb/common/built-in.o
 .debug_line    0x0000000000064721     0x7150 drivers/usb/gadget/built-in.o
 .debug_line    0x000000000006b871      0xb30 drivers/usb/gadget/udc/built-in.o
 .debug_line    0x000000000006c3a1     0x1183 drivers/usb/host/built-in.o
 .debug_line    0x000000000006d524     0x810e drivers/usb/musb-new/built-in.o
 .debug_line    0x0000000000075632     0x1dd5 env/built-in.o
 .debug_line    0x0000000000077407     0xaf3b fs/built-in.o
 .debug_line    0x0000000000082342    0x28788 lib/built-in.o
 .debug_line    0x00000000000aaaca     0x5d43 net/built-in.o
 .debug_line    0x00000000000b080d       0xf1 arch/arm/lib/lib.a(lib1funcs.o)
 .debug_line    0x00000000000b08fe       0xac arch/arm/lib/lib.a(uldivmod.o)
 .debug_line    0x00000000000b09aa       0x61 arch/arm/lib/lib.a(div0.o)

.debug_info     0x0000000000000000   0x2953f6
 .debug_info    0x0000000000000000       0x26 arch/arm/cpu/armv7/start.o
 .debug_info    0x0000000000000026     0x5294 board/ti/am335x/built-in.o
 .debug_info    0x00000000000052ba     0x1120 arch/arm/cpu/armv7/built-in.o
 .debug_info    0x00000000000063da     0xa180 arch/arm/lib/built-in.o
 .debug_info    0x000000000001055a    0x1ac19 arch/arm/mach-omap2/built-in.o
 .debug_info    0x000000000002b173     0x4bc4 board/ti/common/built-in.o
 .debug_info    0x000000000002fd37    0x4f00a cmd/built-in.o
 .debug_info    0x000000000007ed41    0x4be5c common/built-in.o
 .debug_info    0x00000000000cab9d     0x7165 disk/built-in.o
 .debug_info    0x00000000000d1d02    0x82138 drivers/built-in.o
 .debug_info    0x0000000000153e3a     0x588f drivers/gpio/built-in.o
 .debug_info    0x00000000001596c9     0x6d3a drivers/i2c/built-in.o
 .debug_info    0x0000000000160403     0x86b6 drivers/net/built-in.o
 .debug_info    0x0000000000168ab9     0x73ec drivers/net/phy/built-in.o
 .debug_info    0x000000000016fea5     0x61bd drivers/serial/built-in.o
 .debug_info    0x0000000000176062     0x695b drivers/spi/built-in.o
 .debug_info    0x000000000017c9bd     0x1138 drivers/usb/common/built-in.o
 .debug_info    0x000000000017daf5    0x16cd6 drivers/usb/gadget/built-in.o
 .debug_info    0x00000000001947cb     0x36a0 drivers/usb/gadget/udc/built-in.o
 .debug_info    0x0000000000197e6b     0x3934 drivers/usb/host/built-in.o
 .debug_info    0x000000000019b79f    0x22de4 drivers/usb/musb-new/built-in.o
 .debug_info    0x00000000001be583     0x5950 env/built-in.o
 .debug_info    0x00000000001c3ed3    0x1be4d fs/built-in.o
 .debug_info    0x00000000001dfd20    0xa020e lib/built-in.o
 .debug_info    0x000000000027ff2e    0x1542e net/built-in.o
 .debug_info    0x000000000029535c       0x22 arch/arm/lib/lib.a(lib1funcs.o)
 .debug_info    0x000000000029537e       0x26 arch/arm/lib/lib.a(uldivmod.o)
 .debug_info    0x00000000002953a4       0x52 arch/arm/lib/lib.a(div0.o)

.debug_abbrev   0x0000000000000000    0x4bed5
 .debug_abbrev  0x0000000000000000       0x14 arch/arm/cpu/armv7/start.o
 .debug_abbrev  0x0000000000000014      0x51d board/ti/am335x/built-in.o
 .debug_abbrev  0x0000000000000531      0x67e arch/arm/cpu/armv7/built-in.o
 .debug_abbrev  0x0000000000000baf     0x19a2 arch/arm/lib/built-in.o
 .debug_abbrev  0x0000000000002551     0x27fc arch/arm/mach-omap2/built-in.o
 .debug_abbrev  0x0000000000004d4d      0x61b board/ti/common/built-in.o
 .debug_abbrev  0x0000000000005368     0xac76 cmd/built-in.o
 .debug_abbrev  0x000000000000ffde     0x94d9 common/built-in.o
 .debug_abbrev  0x00000000000194b7     0x1467 disk/built-in.o
 .debug_abbrev  0x000000000001a91e     0xec2a drivers/built-in.o
 .debug_abbrev  0x0000000000029548      0xad5 drivers/gpio/built-in.o
 .debug_abbrev  0x000000000002a01d      0xb4e drivers/i2c/built-in.o
 .debug_abbrev  0x000000000002ab6b      0xd1e drivers/net/built-in.o
 .debug_abbrev  0x000000000002b889      0xde3 drivers/net/phy/built-in.o
 .debug_abbrev  0x000000000002c66c      0xe26 drivers/serial/built-in.o
 .debug_abbrev  0x000000000002d492      0xf0e drivers/spi/built-in.o
 .debug_abbrev  0x000000000002e3a0      0x27a drivers/usb/common/built-in.o
 .debug_abbrev  0x000000000002e61a     0x280f drivers/usb/gadget/built-in.o
 .debug_abbrev  0x0000000000030e29      0x8b0 drivers/usb/gadget/udc/built-in.o
 .debug_abbrev  0x00000000000316d9      0x62d drivers/usb/host/built-in.o
 .debug_abbrev  0x0000000000031d06     0x2cc0 drivers/usb/musb-new/built-in.o
 .debug_abbrev  0x00000000000349c6     0x1444 env/built-in.o
 .debug_abbrev  0x0000000000035e0a     0x2981 fs/built-in.o
 .debug_abbrev  0x000000000003878b    0x10f5e lib/built-in.o
 .debug_abbrev  0x00000000000496e9     0x2778 net/built-in.o
 .debug_abbrev  0x000000000004be61       0x12 arch/arm/lib/lib.a(lib1funcs.o)
 .debug_abbrev  0x000000000004be73       0x14 arch/arm/lib/lib.a(uldivmod.o)
 .debug_abbrev  0x000000000004be87       0x4e arch/arm/lib/lib.a(div0.o)

.debug_aranges  0x0000000000000000     0x80e8
 .debug_aranges
                0x0000000000000000       0x20 arch/arm/cpu/armv7/start.o
 .debug_aranges
                0x0000000000000020       0x48 board/ti/am335x/built-in.o
 .debug_aranges
                0x0000000000000068      0x120 arch/arm/cpu/armv7/built-in.o
 .debug_aranges
                0x0000000000000188      0x358 arch/arm/lib/built-in.o
 .debug_aranges
                0x00000000000004e0      0x398 arch/arm/mach-omap2/built-in.o
 .debug_aranges
                0x0000000000000878       0xe0 board/ti/common/built-in.o
 .debug_aranges
                0x0000000000000958      0xcf8 cmd/built-in.o
 .debug_aranges
                0x0000000000001650     0x11c0 common/built-in.o
 .debug_aranges
                0x0000000000002810      0x1c0 disk/built-in.o
 .debug_aranges
                0x00000000000029d0     0x1a98 drivers/built-in.o
 .debug_aranges
                0x0000000000004468      0x200 drivers/gpio/built-in.o
 .debug_aranges
                0x0000000000004668      0x150 drivers/i2c/built-in.o
 .debug_aranges
                0x00000000000047b8      0x110 drivers/net/built-in.o
 .debug_aranges
                0x00000000000048c8      0x130 drivers/net/phy/built-in.o
 .debug_aranges
                0x00000000000049f8      0x180 drivers/serial/built-in.o
 .debug_aranges
                0x0000000000004b78      0x188 drivers/spi/built-in.o
 .debug_aranges
                0x0000000000004d00       0x38 drivers/usb/common/built-in.o
 .debug_aranges
                0x0000000000004d38      0x478 drivers/usb/gadget/built-in.o
 .debug_aranges
                0x00000000000051b0       0xb0 drivers/usb/gadget/udc/built-in.o
 .debug_aranges
                0x0000000000005260       0xe0 drivers/usb/host/built-in.o
 .debug_aranges
                0x0000000000005340      0x328 drivers/usb/musb-new/built-in.o
 .debug_aranges
                0x0000000000005668      0x1c8 env/built-in.o
 .debug_aranges
                0x0000000000005830      0x578 fs/built-in.o
 .debug_aranges
                0x0000000000005da8     0x1ec0 lib/built-in.o
 .debug_aranges
                0x0000000000007c68      0x3f8 net/built-in.o
 .debug_aranges
                0x0000000000008060       0x48 arch/arm/lib/lib.a(lib1funcs.o)
 .debug_aranges
                0x00000000000080a8       0x20 arch/arm/lib/lib.a(uldivmod.o)
 .debug_aranges
                0x00000000000080c8       0x20 arch/arm/lib/lib.a(div0.o)

.debug_str      0x0000000000000000    0x2e452
 .debug_str     0x0000000000000000       0x44 arch/arm/cpu/armv7/start.o
 .debug_str     0x0000000000000044     0x4400 board/ti/am335x/built-in.o
                                       0x4899 (size before relaxing)
 .debug_str     0x0000000000004444      0x394 arch/arm/cpu/armv7/built-in.o
                                       0x13e9 (size before relaxing)
 .debug_str     0x00000000000047d8     0x267f arch/arm/lib/built-in.o
                                       0x95fd (size before relaxing)
 .debug_str     0x0000000000006e57     0x216c arch/arm/mach-omap2/built-in.o
                                      0x1e9de (size before relaxing)
 .debug_str     0x0000000000008fc3      0x801 board/ti/common/built-in.o
                                       0x42e9 (size before relaxing)
 .debug_str     0x00000000000097c4     0x6ebe cmd/built-in.o
                                      0x34520 (size before relaxing)
 .debug_str     0x0000000000010682     0x4bc9 common/built-in.o
                                      0x31174 (size before relaxing)
 .debug_str     0x000000000001524b      0x9b8 disk/built-in.o
                                       0x3539 (size before relaxing)
 .debug_str     0x0000000000015c03     0x75ba drivers/built-in.o
                                      0x50230 (size before relaxing)
 .debug_str     0x000000000001d1bd      0x56c drivers/gpio/built-in.o
                                       0x2ea3 (size before relaxing)
 .debug_str     0x000000000001d729      0x8b9 drivers/i2c/built-in.o
                                       0x30de (size before relaxing)
 .debug_str     0x000000000001dfe2      0xa93 drivers/net/built-in.o
                                       0x50fe (size before relaxing)
 .debug_str     0x000000000001ea75      0x3ed drivers/net/phy/built-in.o
                                       0x49c1 (size before relaxing)
 .debug_str     0x000000000001ee62      0x778 drivers/serial/built-in.o
                                       0x43e8 (size before relaxing)
 .debug_str     0x000000000001f5da      0x4b1 drivers/spi/built-in.o
                                       0x3f64 (size before relaxing)
 .debug_str     0x000000000001fa8b      0x152 drivers/usb/common/built-in.o
                                       0x1246 (size before relaxing)
 .debug_str     0x000000000001fbdd     0x1dd4 drivers/usb/gadget/built-in.o
                                       0xcbab (size before relaxing)
 .debug_str     0x00000000000219b1      0x22e drivers/usb/gadget/udc/built-in.o
                                       0x2cc8 (size before relaxing)
 .debug_str     0x0000000000021bdf      0x27f drivers/usb/host/built-in.o
                                       0x1d63 (size before relaxing)
 .debug_str     0x0000000000021e5e     0x1b11 drivers/usb/musb-new/built-in.o
                                      0x12278 (size before relaxing)
 .debug_str     0x000000000002396f      0x75b env/built-in.o
                                       0x4b01 (size before relaxing)
 .debug_str     0x00000000000240ca     0x1deb fs/built-in.o
                                       0xc864 (size before relaxing)
 .debug_str     0x0000000000025eb5     0x71e0 lib/built-in.o
                                      0x635cc (size before relaxing)
 .debug_str     0x000000000002d095     0x1371 net/built-in.o
                                      0x1023e (size before relaxing)
 .debug_str     0x000000000002e406       0x19 arch/arm/lib/lib.a(lib1funcs.o)
                                         0x42 (size before relaxing)
 .debug_str     0x000000000002e41f       0x18 arch/arm/lib/lib.a(uldivmod.o)
                                         0x41 (size before relaxing)
 .debug_str     0x000000000002e437       0x1b arch/arm/lib/lib.a(div0.o)
                                        0x1d3 (size before relaxing)

.debug_frame    0x0000000000000000    0x185cc
 .debug_frame   0x0000000000000000       0xf4 board/ti/am335x/built-in.o
 .debug_frame   0x00000000000000f4      0x1ec arch/arm/cpu/armv7/built-in.o
 .debug_frame   0x00000000000002e0      0x520 arch/arm/lib/built-in.o
 .debug_frame   0x0000000000000800      0x688 arch/arm/mach-omap2/built-in.o
 .debug_frame   0x0000000000000e88      0x2d8 board/ti/common/built-in.o
 .debug_frame   0x0000000000001160     0x24e8 cmd/built-in.o
 .debug_frame   0x0000000000003648     0x3864 common/built-in.o
 .debug_frame   0x0000000000006eac      0x698 disk/built-in.o
 .debug_frame   0x0000000000007544     0x53c4 drivers/built-in.o
 .debug_frame   0x000000000000c908      0x6f4 drivers/gpio/built-in.o
 .debug_frame   0x000000000000cffc      0x4b8 drivers/i2c/built-in.o
 .debug_frame   0x000000000000d4b4      0x358 drivers/net/built-in.o
 .debug_frame   0x000000000000d80c      0x35c drivers/net/phy/built-in.o
 .debug_frame   0x000000000000db68      0x3fc drivers/serial/built-in.o
 .debug_frame   0x000000000000df64      0x4ac drivers/spi/built-in.o
 .debug_frame   0x000000000000e410       0x70 drivers/usb/common/built-in.o
 .debug_frame   0x000000000000e480      0xce0 drivers/usb/gadget/built-in.o
 .debug_frame   0x000000000000f160      0x188 drivers/usb/gadget/udc/built-in.o
 .debug_frame   0x000000000000f2e8      0x2e0 drivers/usb/host/built-in.o
 .debug_frame   0x000000000000f5c8      0xa98 drivers/usb/musb-new/built-in.o
 .debug_frame   0x0000000000010060      0x510 env/built-in.o
 .debug_frame   0x0000000000010570     0x13e4 fs/built-in.o
 .debug_frame   0x0000000000011954     0x5f88 lib/built-in.o
 .debug_frame   0x00000000000178dc      0xcc8 net/built-in.o
 .debug_frame   0x00000000000185a4       0x28 arch/arm/lib/lib.a(div0.o)

.debug_loc      0x0000000000000000   0x11f638
 .debug_loc     0x0000000000000000      0x8dd board/ti/am335x/built-in.o
 .debug_loc     0x00000000000008dd      0x583 arch/arm/cpu/armv7/built-in.o
 .debug_loc     0x0000000000000e60     0x1503 arch/arm/lib/built-in.o
 .debug_loc     0x0000000000002363     0x28e9 arch/arm/mach-omap2/built-in.o
 .debug_loc     0x0000000000004c4c      0xe97 board/ti/common/built-in.o
 .debug_loc     0x0000000000005ae3    0x1ef79 cmd/built-in.o
 .debug_loc     0x0000000000024a5c    0x21380 common/built-in.o
 .debug_loc     0x0000000000045ddc     0x3cf2 disk/built-in.o
 .debug_loc     0x0000000000049ace    0x33588 drivers/built-in.o
 .debug_loc     0x000000000007d056     0x2d1c drivers/gpio/built-in.o
 .debug_loc     0x000000000007fd72     0x4470 drivers/i2c/built-in.o
 .debug_loc     0x00000000000841e2     0x3a2c drivers/net/built-in.o
 .debug_loc     0x0000000000087c0e     0x30c9 drivers/net/phy/built-in.o
 .debug_loc     0x000000000008acd7     0x194b drivers/serial/built-in.o
 .debug_loc     0x000000000008c622     0x311f drivers/spi/built-in.o
 .debug_loc     0x000000000008f741      0x1be drivers/usb/common/built-in.o
 .debug_loc     0x000000000008f8ff     0xa339 drivers/usb/gadget/built-in.o
 .debug_loc     0x0000000000099c38      0xbac drivers/usb/gadget/udc/built-in.o
 .debug_loc     0x000000000009a7e4     0x1e50 drivers/usb/host/built-in.o
 .debug_loc     0x000000000009c634     0xdebc drivers/usb/musb-new/built-in.o
 .debug_loc     0x00000000000aa4f0     0x1f5c env/built-in.o
 .debug_loc     0x00000000000ac44c    0x12078 fs/built-in.o
 .debug_loc     0x00000000000be4c4    0x5a7eb lib/built-in.o
 .debug_loc     0x0000000000118caf     0x6989 net/built-in.o

.debug_ranges   0x0000000000000000    0x1a6c8
 .debug_ranges  0x0000000000000000      0x1d0 board/ti/am335x/built-in.o
 .debug_ranges  0x00000000000001d0      0x120 arch/arm/cpu/armv7/built-in.o
 .debug_ranges  0x00000000000002f0      0x648 arch/arm/lib/built-in.o
 .debug_ranges  0x0000000000000938      0x690 arch/arm/mach-omap2/built-in.o
 .debug_ranges  0x0000000000000fc8      0x168 board/ti/common/built-in.o
 .debug_ranges  0x0000000000001130     0x2bc0 cmd/built-in.o
 .debug_ranges  0x0000000000003cf0     0x32b8 common/built-in.o
 .debug_ranges  0x0000000000006fa8      0x5d0 disk/built-in.o
 .debug_ranges  0x0000000000007578     0x5578 drivers/built-in.o
 .debug_ranges  0x000000000000caf0      0x3b0 drivers/gpio/built-in.o
 .debug_ranges  0x000000000000cea0     0x10f8 drivers/i2c/built-in.o
 .debug_ranges  0x000000000000df98      0x7d0 drivers/net/built-in.o
 .debug_ranges  0x000000000000e768      0x878 drivers/net/phy/built-in.o
 .debug_ranges  0x000000000000efe0      0x298 drivers/serial/built-in.o
 .debug_ranges  0x000000000000f278      0x500 drivers/spi/built-in.o
 .debug_ranges  0x000000000000f778       0x28 drivers/usb/common/built-in.o
 .debug_ranges  0x000000000000f7a0     0x11b0 drivers/usb/gadget/built-in.o
 .debug_ranges  0x0000000000010950      0x188 drivers/usb/gadget/udc/built-in.o
 .debug_ranges  0x0000000000010ad8      0x2f0 drivers/usb/host/built-in.o
 .debug_ranges  0x0000000000010dc8     0x1b48 drivers/usb/musb-new/built-in.o
 .debug_ranges  0x0000000000012910      0x358 env/built-in.o
 .debug_ranges  0x0000000000012c68     0x16b8 fs/built-in.o
 .debug_ranges  0x0000000000014320     0x5638 lib/built-in.o
 .debug_ranges  0x0000000000019958      0xd20 net/built-in.o
 .debug_ranges  0x000000000001a678       0x40 arch/arm/lib/lib.a(lib1funcs.o)
 .debug_ranges  0x000000000001a6b8       0x10 arch/arm/lib/lib.a(div0.o)
